
MM_Squick.elf:     file format elf32-littlearm

Sections:
Idx Name          Size      VMA       LMA       File off  Algn
  0 .isr_vector   00000198  08000000  08000000  00010000  2**0
                  CONTENTS, ALLOC, LOAD, READONLY, DATA
  1 .text         000078a4  080001a0  080001a0  000101a0  2**4
                  CONTENTS, ALLOC, LOAD, READONLY, CODE
  2 .rodata       0000023c  08007a44  08007a44  00017a44  2**2
                  CONTENTS, ALLOC, LOAD, READONLY, DATA
  3 .ARM.extab    00000000  08007c80  08007c80  0002032c  2**0
                  CONTENTS
  4 .ARM          00000008  08007c80  08007c80  00017c80  2**2
                  CONTENTS, ALLOC, LOAD, READONLY, DATA
  5 .preinit_array 00000000  08007c88  08007c88  0002032c  2**0
                  CONTENTS, ALLOC, LOAD, DATA
  6 .init_array   00000004  08007c88  08007c88  00017c88  2**2
                  CONTENTS, ALLOC, LOAD, DATA
  7 .fini_array   00000004  08007c8c  08007c8c  00017c8c  2**2
                  CONTENTS, ALLOC, LOAD, DATA
  8 .data         0000032c  20000000  08007c90  00020000  2**2
                  CONTENTS, ALLOC, LOAD, DATA
  9 .bss          00000924  2000032c  08007fbc  0002032c  2**2
                  ALLOC
 10 ._user_heap_stack 00000600  20000c50  08007fbc  00020c50  2**0
                  ALLOC
 11 .ARM.attributes 00000030  00000000  00000000  0002032c  2**0
                  CONTENTS, READONLY
 12 .comment      0000007b  00000000  00000000  0002035c  2**0
                  CONTENTS, READONLY
 13 .debug_frame  00000818  00000000  00000000  000203d8  2**2
                  CONTENTS, READONLY, DEBUGGING

Disassembly of section .text:

080001a0 <__do_global_dtors_aux>:
 80001a0:	b510      	push	{r4, lr}
 80001a2:	4c05      	ldr	r4, [pc, #20]	; (80001b8 <__do_global_dtors_aux+0x18>)
 80001a4:	7823      	ldrb	r3, [r4, #0]
 80001a6:	b933      	cbnz	r3, 80001b6 <__do_global_dtors_aux+0x16>
 80001a8:	4b04      	ldr	r3, [pc, #16]	; (80001bc <__do_global_dtors_aux+0x1c>)
 80001aa:	b113      	cbz	r3, 80001b2 <__do_global_dtors_aux+0x12>
 80001ac:	4804      	ldr	r0, [pc, #16]	; (80001c0 <__do_global_dtors_aux+0x20>)
 80001ae:	f3af 8000 	nop.w
 80001b2:	2301      	movs	r3, #1
 80001b4:	7023      	strb	r3, [r4, #0]
 80001b6:	bd10      	pop	{r4, pc}
 80001b8:	2000032c 	.word	0x2000032c
 80001bc:	00000000 	.word	0x00000000
 80001c0:	08007a2c 	.word	0x08007a2c

080001c4 <frame_dummy>:
 80001c4:	b508      	push	{r3, lr}
 80001c6:	4b03      	ldr	r3, [pc, #12]	; (80001d4 <frame_dummy+0x10>)
 80001c8:	b11b      	cbz	r3, 80001d2 <frame_dummy+0xe>
 80001ca:	4903      	ldr	r1, [pc, #12]	; (80001d8 <frame_dummy+0x14>)
 80001cc:	4803      	ldr	r0, [pc, #12]	; (80001dc <frame_dummy+0x18>)
 80001ce:	f3af 8000 	nop.w
 80001d2:	bd08      	pop	{r3, pc}
 80001d4:	00000000 	.word	0x00000000
 80001d8:	20000330 	.word	0x20000330
 80001dc:	08007a2c 	.word	0x08007a2c

080001e0 <memchr>:
 80001e0:	f001 01ff 	and.w	r1, r1, #255	; 0xff
 80001e4:	2a10      	cmp	r2, #16
 80001e6:	db2b      	blt.n	8000240 <memchr+0x60>
 80001e8:	f010 0f07 	tst.w	r0, #7
 80001ec:	d008      	beq.n	8000200 <memchr+0x20>
 80001ee:	f810 3b01 	ldrb.w	r3, [r0], #1
 80001f2:	3a01      	subs	r2, #1
 80001f4:	428b      	cmp	r3, r1
 80001f6:	d02d      	beq.n	8000254 <memchr+0x74>
 80001f8:	f010 0f07 	tst.w	r0, #7
 80001fc:	b342      	cbz	r2, 8000250 <memchr+0x70>
 80001fe:	d1f6      	bne.n	80001ee <memchr+0xe>
 8000200:	b4f0      	push	{r4, r5, r6, r7}
 8000202:	ea41 2101 	orr.w	r1, r1, r1, lsl #8
 8000206:	ea41 4101 	orr.w	r1, r1, r1, lsl #16
 800020a:	f022 0407 	bic.w	r4, r2, #7
 800020e:	f07f 0700 	mvns.w	r7, #0
 8000212:	2300      	movs	r3, #0
 8000214:	e8f0 5602 	ldrd	r5, r6, [r0], #8
 8000218:	3c08      	subs	r4, #8
 800021a:	ea85 0501 	eor.w	r5, r5, r1
 800021e:	ea86 0601 	eor.w	r6, r6, r1
 8000222:	fa85 f547 	uadd8	r5, r5, r7
 8000226:	faa3 f587 	sel	r5, r3, r7
 800022a:	fa86 f647 	uadd8	r6, r6, r7
 800022e:	faa5 f687 	sel	r6, r5, r7
 8000232:	b98e      	cbnz	r6, 8000258 <memchr+0x78>
 8000234:	d1ee      	bne.n	8000214 <memchr+0x34>
 8000236:	bcf0      	pop	{r4, r5, r6, r7}
 8000238:	f001 01ff 	and.w	r1, r1, #255	; 0xff
 800023c:	f002 0207 	and.w	r2, r2, #7
 8000240:	b132      	cbz	r2, 8000250 <memchr+0x70>
 8000242:	f810 3b01 	ldrb.w	r3, [r0], #1
 8000246:	3a01      	subs	r2, #1
 8000248:	ea83 0301 	eor.w	r3, r3, r1
 800024c:	b113      	cbz	r3, 8000254 <memchr+0x74>
 800024e:	d1f8      	bne.n	8000242 <memchr+0x62>
 8000250:	2000      	movs	r0, #0
 8000252:	4770      	bx	lr
 8000254:	3801      	subs	r0, #1
 8000256:	4770      	bx	lr
 8000258:	2d00      	cmp	r5, #0
 800025a:	bf06      	itte	eq
 800025c:	4635      	moveq	r5, r6
 800025e:	3803      	subeq	r0, #3
 8000260:	3807      	subne	r0, #7
 8000262:	f015 0f01 	tst.w	r5, #1
 8000266:	d107      	bne.n	8000278 <memchr+0x98>
 8000268:	3001      	adds	r0, #1
 800026a:	f415 7f80 	tst.w	r5, #256	; 0x100
 800026e:	bf02      	ittt	eq
 8000270:	3001      	addeq	r0, #1
 8000272:	f415 3fc0 	tsteq.w	r5, #98304	; 0x18000
 8000276:	3001      	addeq	r0, #1
 8000278:	bcf0      	pop	{r4, r5, r6, r7}
 800027a:	3801      	subs	r0, #1
 800027c:	4770      	bx	lr
 800027e:	bf00      	nop

08000280 <__aeabi_uldivmod>:
 8000280:	b953      	cbnz	r3, 8000298 <__aeabi_uldivmod+0x18>
 8000282:	b94a      	cbnz	r2, 8000298 <__aeabi_uldivmod+0x18>
 8000284:	2900      	cmp	r1, #0
 8000286:	bf08      	it	eq
 8000288:	2800      	cmpeq	r0, #0
 800028a:	bf1c      	itt	ne
 800028c:	f04f 31ff 	movne.w	r1, #4294967295
 8000290:	f04f 30ff 	movne.w	r0, #4294967295
 8000294:	f000 b972 	b.w	800057c <__aeabi_idiv0>
 8000298:	f1ad 0c08 	sub.w	ip, sp, #8
 800029c:	e96d ce04 	strd	ip, lr, [sp, #-16]!
 80002a0:	f000 f806 	bl	80002b0 <__udivmoddi4>
 80002a4:	f8dd e004 	ldr.w	lr, [sp, #4]
 80002a8:	e9dd 2302 	ldrd	r2, r3, [sp, #8]
 80002ac:	b004      	add	sp, #16
 80002ae:	4770      	bx	lr

080002b0 <__udivmoddi4>:
 80002b0:	e92d 47f0 	stmdb	sp!, {r4, r5, r6, r7, r8, r9, sl, lr}
 80002b4:	9e08      	ldr	r6, [sp, #32]
 80002b6:	4604      	mov	r4, r0
 80002b8:	4688      	mov	r8, r1
 80002ba:	2b00      	cmp	r3, #0
 80002bc:	d14b      	bne.n	8000356 <__udivmoddi4+0xa6>
 80002be:	428a      	cmp	r2, r1
 80002c0:	4615      	mov	r5, r2
 80002c2:	d967      	bls.n	8000394 <__udivmoddi4+0xe4>
 80002c4:	fab2 f282 	clz	r2, r2
 80002c8:	b14a      	cbz	r2, 80002de <__udivmoddi4+0x2e>
 80002ca:	f1c2 0720 	rsb	r7, r2, #32
 80002ce:	fa01 f302 	lsl.w	r3, r1, r2
 80002d2:	fa20 f707 	lsr.w	r7, r0, r7
 80002d6:	4095      	lsls	r5, r2
 80002d8:	ea47 0803 	orr.w	r8, r7, r3
 80002dc:	4094      	lsls	r4, r2
 80002de:	ea4f 4e15 	mov.w	lr, r5, lsr #16
 80002e2:	0c23      	lsrs	r3, r4, #16
 80002e4:	fbb8 f7fe 	udiv	r7, r8, lr
 80002e8:	fa1f fc85 	uxth.w	ip, r5
 80002ec:	fb0e 8817 	mls	r8, lr, r7, r8
 80002f0:	ea43 4308 	orr.w	r3, r3, r8, lsl #16
 80002f4:	fb07 f10c 	mul.w	r1, r7, ip
 80002f8:	4299      	cmp	r1, r3
 80002fa:	d909      	bls.n	8000310 <__udivmoddi4+0x60>
 80002fc:	18eb      	adds	r3, r5, r3
 80002fe:	f107 30ff 	add.w	r0, r7, #4294967295
 8000302:	f080 811b 	bcs.w	800053c <__udivmoddi4+0x28c>
 8000306:	4299      	cmp	r1, r3
 8000308:	f240 8118 	bls.w	800053c <__udivmoddi4+0x28c>
 800030c:	3f02      	subs	r7, #2
 800030e:	442b      	add	r3, r5
 8000310:	1a5b      	subs	r3, r3, r1
 8000312:	b2a4      	uxth	r4, r4
 8000314:	fbb3 f0fe 	udiv	r0, r3, lr
 8000318:	fb0e 3310 	mls	r3, lr, r0, r3
 800031c:	ea44 4403 	orr.w	r4, r4, r3, lsl #16
 8000320:	fb00 fc0c 	mul.w	ip, r0, ip
 8000324:	45a4      	cmp	ip, r4
 8000326:	d909      	bls.n	800033c <__udivmoddi4+0x8c>
 8000328:	192c      	adds	r4, r5, r4
 800032a:	f100 33ff 	add.w	r3, r0, #4294967295
 800032e:	f080 8107 	bcs.w	8000540 <__udivmoddi4+0x290>
 8000332:	45a4      	cmp	ip, r4
 8000334:	f240 8104 	bls.w	8000540 <__udivmoddi4+0x290>
 8000338:	3802      	subs	r0, #2
 800033a:	442c      	add	r4, r5
 800033c:	ea40 4007 	orr.w	r0, r0, r7, lsl #16
 8000340:	eba4 040c 	sub.w	r4, r4, ip
 8000344:	2700      	movs	r7, #0
 8000346:	b11e      	cbz	r6, 8000350 <__udivmoddi4+0xa0>
 8000348:	40d4      	lsrs	r4, r2
 800034a:	2300      	movs	r3, #0
 800034c:	e9c6 4300 	strd	r4, r3, [r6]
 8000350:	4639      	mov	r1, r7
 8000352:	e8bd 87f0 	ldmia.w	sp!, {r4, r5, r6, r7, r8, r9, sl, pc}
 8000356:	428b      	cmp	r3, r1
 8000358:	d909      	bls.n	800036e <__udivmoddi4+0xbe>
 800035a:	2e00      	cmp	r6, #0
 800035c:	f000 80eb 	beq.w	8000536 <__udivmoddi4+0x286>
 8000360:	2700      	movs	r7, #0
 8000362:	e9c6 0100 	strd	r0, r1, [r6]
 8000366:	4638      	mov	r0, r7
 8000368:	4639      	mov	r1, r7
 800036a:	e8bd 87f0 	ldmia.w	sp!, {r4, r5, r6, r7, r8, r9, sl, pc}
 800036e:	fab3 f783 	clz	r7, r3
 8000372:	2f00      	cmp	r7, #0
 8000374:	d147      	bne.n	8000406 <__udivmoddi4+0x156>
 8000376:	428b      	cmp	r3, r1
 8000378:	d302      	bcc.n	8000380 <__udivmoddi4+0xd0>
 800037a:	4282      	cmp	r2, r0
 800037c:	f200 80fa 	bhi.w	8000574 <__udivmoddi4+0x2c4>
 8000380:	1a84      	subs	r4, r0, r2
 8000382:	eb61 0303 	sbc.w	r3, r1, r3
 8000386:	2001      	movs	r0, #1
 8000388:	4698      	mov	r8, r3
 800038a:	2e00      	cmp	r6, #0
 800038c:	d0e0      	beq.n	8000350 <__udivmoddi4+0xa0>
 800038e:	e9c6 4800 	strd	r4, r8, [r6]
 8000392:	e7dd      	b.n	8000350 <__udivmoddi4+0xa0>
 8000394:	b902      	cbnz	r2, 8000398 <__udivmoddi4+0xe8>
 8000396:	deff      	udf	#255	; 0xff
 8000398:	fab2 f282 	clz	r2, r2
 800039c:	2a00      	cmp	r2, #0
 800039e:	f040 808f 	bne.w	80004c0 <__udivmoddi4+0x210>
 80003a2:	1b49      	subs	r1, r1, r5
 80003a4:	ea4f 4e15 	mov.w	lr, r5, lsr #16
 80003a8:	fa1f f885 	uxth.w	r8, r5
 80003ac:	2701      	movs	r7, #1
 80003ae:	fbb1 fcfe 	udiv	ip, r1, lr
 80003b2:	0c23      	lsrs	r3, r4, #16
 80003b4:	fb0e 111c 	mls	r1, lr, ip, r1
 80003b8:	ea43 4301 	orr.w	r3, r3, r1, lsl #16
 80003bc:	fb08 f10c 	mul.w	r1, r8, ip
 80003c0:	4299      	cmp	r1, r3
 80003c2:	d907      	bls.n	80003d4 <__udivmoddi4+0x124>
 80003c4:	18eb      	adds	r3, r5, r3
 80003c6:	f10c 30ff 	add.w	r0, ip, #4294967295
 80003ca:	d202      	bcs.n	80003d2 <__udivmoddi4+0x122>
 80003cc:	4299      	cmp	r1, r3
 80003ce:	f200 80cd 	bhi.w	800056c <__udivmoddi4+0x2bc>
 80003d2:	4684      	mov	ip, r0
 80003d4:	1a59      	subs	r1, r3, r1
 80003d6:	b2a3      	uxth	r3, r4
 80003d8:	fbb1 f0fe 	udiv	r0, r1, lr
 80003dc:	fb0e 1410 	mls	r4, lr, r0, r1
 80003e0:	ea43 4404 	orr.w	r4, r3, r4, lsl #16
 80003e4:	fb08 f800 	mul.w	r8, r8, r0
 80003e8:	45a0      	cmp	r8, r4
 80003ea:	d907      	bls.n	80003fc <__udivmoddi4+0x14c>
 80003ec:	192c      	adds	r4, r5, r4
 80003ee:	f100 33ff 	add.w	r3, r0, #4294967295
 80003f2:	d202      	bcs.n	80003fa <__udivmoddi4+0x14a>
 80003f4:	45a0      	cmp	r8, r4
 80003f6:	f200 80b6 	bhi.w	8000566 <__udivmoddi4+0x2b6>
 80003fa:	4618      	mov	r0, r3
 80003fc:	eba4 0408 	sub.w	r4, r4, r8
 8000400:	ea40 400c 	orr.w	r0, r0, ip, lsl #16
 8000404:	e79f      	b.n	8000346 <__udivmoddi4+0x96>
 8000406:	f1c7 0c20 	rsb	ip, r7, #32
 800040a:	40bb      	lsls	r3, r7
 800040c:	fa22 fe0c 	lsr.w	lr, r2, ip
 8000410:	ea4e 0e03 	orr.w	lr, lr, r3
 8000414:	fa01 f407 	lsl.w	r4, r1, r7
 8000418:	fa20 f50c 	lsr.w	r5, r0, ip
 800041c:	fa21 f30c 	lsr.w	r3, r1, ip
 8000420:	ea4f 481e 	mov.w	r8, lr, lsr #16
 8000424:	4325      	orrs	r5, r4
 8000426:	fbb3 f9f8 	udiv	r9, r3, r8
 800042a:	0c2c      	lsrs	r4, r5, #16
 800042c:	fb08 3319 	mls	r3, r8, r9, r3
 8000430:	fa1f fa8e 	uxth.w	sl, lr
 8000434:	ea44 4303 	orr.w	r3, r4, r3, lsl #16
 8000438:	fb09 f40a 	mul.w	r4, r9, sl
 800043c:	429c      	cmp	r4, r3
 800043e:	fa02 f207 	lsl.w	r2, r2, r7
 8000442:	fa00 f107 	lsl.w	r1, r0, r7
 8000446:	d90b      	bls.n	8000460 <__udivmoddi4+0x1b0>
 8000448:	eb1e 0303 	adds.w	r3, lr, r3
 800044c:	f109 30ff 	add.w	r0, r9, #4294967295
 8000450:	f080 8087 	bcs.w	8000562 <__udivmoddi4+0x2b2>
 8000454:	429c      	cmp	r4, r3
 8000456:	f240 8084 	bls.w	8000562 <__udivmoddi4+0x2b2>
 800045a:	f1a9 0902 	sub.w	r9, r9, #2
 800045e:	4473      	add	r3, lr
 8000460:	1b1b      	subs	r3, r3, r4
 8000462:	b2ad      	uxth	r5, r5
 8000464:	fbb3 f0f8 	udiv	r0, r3, r8
 8000468:	fb08 3310 	mls	r3, r8, r0, r3
 800046c:	ea45 4403 	orr.w	r4, r5, r3, lsl #16
 8000470:	fb00 fa0a 	mul.w	sl, r0, sl
 8000474:	45a2      	cmp	sl, r4
 8000476:	d908      	bls.n	800048a <__udivmoddi4+0x1da>
 8000478:	eb1e 0404 	adds.w	r4, lr, r4
 800047c:	f100 33ff 	add.w	r3, r0, #4294967295
 8000480:	d26b      	bcs.n	800055a <__udivmoddi4+0x2aa>
 8000482:	45a2      	cmp	sl, r4
 8000484:	d969      	bls.n	800055a <__udivmoddi4+0x2aa>
 8000486:	3802      	subs	r0, #2
 8000488:	4474      	add	r4, lr
 800048a:	ea40 4009 	orr.w	r0, r0, r9, lsl #16
 800048e:	fba0 8902 	umull	r8, r9, r0, r2
 8000492:	eba4 040a 	sub.w	r4, r4, sl
 8000496:	454c      	cmp	r4, r9
 8000498:	46c2      	mov	sl, r8
 800049a:	464b      	mov	r3, r9
 800049c:	d354      	bcc.n	8000548 <__udivmoddi4+0x298>
 800049e:	d051      	beq.n	8000544 <__udivmoddi4+0x294>
 80004a0:	2e00      	cmp	r6, #0
 80004a2:	d069      	beq.n	8000578 <__udivmoddi4+0x2c8>
 80004a4:	ebb1 050a 	subs.w	r5, r1, sl
 80004a8:	eb64 0403 	sbc.w	r4, r4, r3
 80004ac:	fa04 fc0c 	lsl.w	ip, r4, ip
 80004b0:	40fd      	lsrs	r5, r7
 80004b2:	40fc      	lsrs	r4, r7
 80004b4:	ea4c 0505 	orr.w	r5, ip, r5
 80004b8:	e9c6 5400 	strd	r5, r4, [r6]
 80004bc:	2700      	movs	r7, #0
 80004be:	e747      	b.n	8000350 <__udivmoddi4+0xa0>
 80004c0:	f1c2 0320 	rsb	r3, r2, #32
 80004c4:	fa20 f703 	lsr.w	r7, r0, r3
 80004c8:	4095      	lsls	r5, r2
 80004ca:	fa01 f002 	lsl.w	r0, r1, r2
 80004ce:	fa21 f303 	lsr.w	r3, r1, r3
 80004d2:	ea4f 4e15 	mov.w	lr, r5, lsr #16
 80004d6:	4338      	orrs	r0, r7
 80004d8:	0c01      	lsrs	r1, r0, #16
 80004da:	fbb3 f7fe 	udiv	r7, r3, lr
 80004de:	fa1f f885 	uxth.w	r8, r5
 80004e2:	fb0e 3317 	mls	r3, lr, r7, r3
 80004e6:	ea41 4103 	orr.w	r1, r1, r3, lsl #16
 80004ea:	fb07 f308 	mul.w	r3, r7, r8
 80004ee:	428b      	cmp	r3, r1
 80004f0:	fa04 f402 	lsl.w	r4, r4, r2
 80004f4:	d907      	bls.n	8000506 <__udivmoddi4+0x256>
 80004f6:	1869      	adds	r1, r5, r1
 80004f8:	f107 3cff 	add.w	ip, r7, #4294967295
 80004fc:	d22f      	bcs.n	800055e <__udivmoddi4+0x2ae>
 80004fe:	428b      	cmp	r3, r1
 8000500:	d92d      	bls.n	800055e <__udivmoddi4+0x2ae>
 8000502:	3f02      	subs	r7, #2
 8000504:	4429      	add	r1, r5
 8000506:	1acb      	subs	r3, r1, r3
 8000508:	b281      	uxth	r1, r0
 800050a:	fbb3 f0fe 	udiv	r0, r3, lr
 800050e:	fb0e 3310 	mls	r3, lr, r0, r3
 8000512:	ea41 4103 	orr.w	r1, r1, r3, lsl #16
 8000516:	fb00 f308 	mul.w	r3, r0, r8
 800051a:	428b      	cmp	r3, r1
 800051c:	d907      	bls.n	800052e <__udivmoddi4+0x27e>
 800051e:	1869      	adds	r1, r5, r1
 8000520:	f100 3cff 	add.w	ip, r0, #4294967295
 8000524:	d217      	bcs.n	8000556 <__udivmoddi4+0x2a6>
 8000526:	428b      	cmp	r3, r1
 8000528:	d915      	bls.n	8000556 <__udivmoddi4+0x2a6>
 800052a:	3802      	subs	r0, #2
 800052c:	4429      	add	r1, r5
 800052e:	1ac9      	subs	r1, r1, r3
 8000530:	ea40 4707 	orr.w	r7, r0, r7, lsl #16
 8000534:	e73b      	b.n	80003ae <__udivmoddi4+0xfe>
 8000536:	4637      	mov	r7, r6
 8000538:	4630      	mov	r0, r6
 800053a:	e709      	b.n	8000350 <__udivmoddi4+0xa0>
 800053c:	4607      	mov	r7, r0
 800053e:	e6e7      	b.n	8000310 <__udivmoddi4+0x60>
 8000540:	4618      	mov	r0, r3
 8000542:	e6fb      	b.n	800033c <__udivmoddi4+0x8c>
 8000544:	4541      	cmp	r1, r8
 8000546:	d2ab      	bcs.n	80004a0 <__udivmoddi4+0x1f0>
 8000548:	ebb8 0a02 	subs.w	sl, r8, r2
 800054c:	eb69 020e 	sbc.w	r2, r9, lr
 8000550:	3801      	subs	r0, #1
 8000552:	4613      	mov	r3, r2
 8000554:	e7a4      	b.n	80004a0 <__udivmoddi4+0x1f0>
 8000556:	4660      	mov	r0, ip
 8000558:	e7e9      	b.n	800052e <__udivmoddi4+0x27e>
 800055a:	4618      	mov	r0, r3
 800055c:	e795      	b.n	800048a <__udivmoddi4+0x1da>
 800055e:	4667      	mov	r7, ip
 8000560:	e7d1      	b.n	8000506 <__udivmoddi4+0x256>
 8000562:	4681      	mov	r9, r0
 8000564:	e77c      	b.n	8000460 <__udivmoddi4+0x1b0>
 8000566:	3802      	subs	r0, #2
 8000568:	442c      	add	r4, r5
 800056a:	e747      	b.n	80003fc <__udivmoddi4+0x14c>
 800056c:	f1ac 0c02 	sub.w	ip, ip, #2
 8000570:	442b      	add	r3, r5
 8000572:	e72f      	b.n	80003d4 <__udivmoddi4+0x124>
 8000574:	4638      	mov	r0, r7
 8000576:	e708      	b.n	800038a <__udivmoddi4+0xda>
 8000578:	4637      	mov	r7, r6
 800057a:	e6e9      	b.n	8000350 <__udivmoddi4+0xa0>

0800057c <__aeabi_idiv0>:
 800057c:	4770      	bx	lr
 800057e:	bf00      	nop

08000580 <VL_Enable>:
 8000580:	2801      	cmp	r0, #1
 8000582:	b510      	push	{r4, lr}
 8000584:	4604      	mov	r4, r0
 8000586:	d01b      	beq.n	80005c0 <VL_Enable+0x40>
 8000588:	d308      	bcc.n	800059c <VL_Enable+0x1c>
 800058a:	2802      	cmp	r0, #2
 800058c:	d020      	beq.n	80005d0 <VL_Enable+0x50>
 800058e:	282a      	cmp	r0, #42	; 0x2a
 8000590:	d02c      	beq.n	80005ec <VL_Enable+0x6c>
 8000592:	2003      	movs	r0, #3
 8000594:	e8bd 4010 	ldmia.w	sp!, {r4, lr}
 8000598:	f004 b8d8 	b.w	800474c <HAL_Delay>
 800059c:	2201      	movs	r2, #1
 800059e:	f44f 6180 	mov.w	r1, #1024	; 0x400
 80005a2:	4816      	ldr	r0, [pc, #88]	; (80005fc <VL_Enable+0x7c>)
 80005a4:	f004 fdca 	bl	800513c <HAL_GPIO_WritePin>
 80005a8:	2200      	movs	r2, #0
 80005aa:	f44f 6100 	mov.w	r1, #2048	; 0x800
 80005ae:	4813      	ldr	r0, [pc, #76]	; (80005fc <VL_Enable+0x7c>)
 80005b0:	f004 fdc4 	bl	800513c <HAL_GPIO_WritePin>
 80005b4:	2200      	movs	r2, #0
 80005b6:	2108      	movs	r1, #8
 80005b8:	4810      	ldr	r0, [pc, #64]	; (80005fc <VL_Enable+0x7c>)
 80005ba:	f004 fdbf 	bl	800513c <HAL_GPIO_WritePin>
 80005be:	e7e8      	b.n	8000592 <VL_Enable+0x12>
 80005c0:	2200      	movs	r2, #0
 80005c2:	f44f 6180 	mov.w	r1, #1024	; 0x400
 80005c6:	480d      	ldr	r0, [pc, #52]	; (80005fc <VL_Enable+0x7c>)
 80005c8:	f004 fdb8 	bl	800513c <HAL_GPIO_WritePin>
 80005cc:	4622      	mov	r2, r4
 80005ce:	e7ec      	b.n	80005aa <VL_Enable+0x2a>
 80005d0:	2200      	movs	r2, #0
 80005d2:	f44f 6180 	mov.w	r1, #1024	; 0x400
 80005d6:	4809      	ldr	r0, [pc, #36]	; (80005fc <VL_Enable+0x7c>)
 80005d8:	f004 fdb0 	bl	800513c <HAL_GPIO_WritePin>
 80005dc:	2200      	movs	r2, #0
 80005de:	f44f 6100 	mov.w	r1, #2048	; 0x800
 80005e2:	4806      	ldr	r0, [pc, #24]	; (80005fc <VL_Enable+0x7c>)
 80005e4:	f004 fdaa 	bl	800513c <HAL_GPIO_WritePin>
 80005e8:	2201      	movs	r2, #1
 80005ea:	e7e4      	b.n	80005b6 <VL_Enable+0x36>
 80005ec:	2201      	movs	r2, #1
 80005ee:	f44f 6180 	mov.w	r1, #1024	; 0x400
 80005f2:	4802      	ldr	r0, [pc, #8]	; (80005fc <VL_Enable+0x7c>)
 80005f4:	f004 fda2 	bl	800513c <HAL_GPIO_WritePin>
 80005f8:	2201      	movs	r2, #1
 80005fa:	e7f0      	b.n	80005de <VL_Enable+0x5e>
 80005fc:	40020800 	.word	0x40020800

08000600 <VL_Init_All>:
 8000600:	e92d 47f0 	stmdb	sp!, {r4, r5, r6, r7, r8, r9, sl, lr}
 8000604:	4e28      	ldr	r6, [pc, #160]	; (80006a8 <VL_Init_All+0xa8>)
 8000606:	f8df 80ac 	ldr.w	r8, [pc, #172]	; 80006b4 <VL_Init_All+0xb4>
 800060a:	4c28      	ldr	r4, [pc, #160]	; (80006ac <VL_Init_All+0xac>)
 800060c:	4681      	mov	r9, r0
 800060e:	2700      	movs	r7, #0
 8000610:	f04f 0a52 	mov.w	sl, #82	; 0x52
 8000614:	b2fd      	uxtb	r5, r7
 8000616:	f64f 73ff 	movw	r3, #65535	; 0xffff
 800061a:	4628      	mov	r0, r5
 800061c:	f8a8 3008 	strh.w	r3, [r8, #8]
 8000620:	f844 6c04 	str.w	r6, [r4, #-4]
 8000624:	f828 3f02 	strh.w	r3, [r8, #2]!
 8000628:	f886 a160 	strb.w	sl, [r6, #352]	; 0x160
 800062c:	f8c6 915c 	str.w	r9, [r6, #348]	; 0x15c
 8000630:	7025      	strb	r5, [r4, #0]
 8000632:	f7ff ffa5 	bl	8000580 <VL_Enable>
 8000636:	f105 012a 	add.w	r1, r5, #42	; 0x2a
 800063a:	0049      	lsls	r1, r1, #1
 800063c:	f001 01fe 	and.w	r1, r1, #254	; 0xfe
 8000640:	f854 0c04 	ldr.w	r0, [r4, #-4]
 8000644:	f003 ff60 	bl	8004508 <VL_init_sensor_setAddres>
 8000648:	2032      	movs	r0, #50	; 0x32
 800064a:	f004 f87f 	bl	800474c <HAL_Delay>
 800064e:	2201      	movs	r2, #1
 8000650:	2102      	movs	r1, #2
 8000652:	f854 0c04 	ldr.w	r0, [r4, #-4]
 8000656:	f003 ff7b 	bl	8004550 <VL_init_parameters>
 800065a:	2032      	movs	r0, #50	; 0x32
 800065c:	f004 f876 	bl	800474c <HAL_Delay>
 8000660:	2200      	movs	r2, #0
 8000662:	2101      	movs	r1, #1
 8000664:	f854 0c04 	ldr.w	r0, [r4, #-4]
 8000668:	f003 ff63 	bl	8004532 <VL_set_interrupt>
 800066c:	2032      	movs	r0, #50	; 0x32
 800066e:	f004 f86d 	bl	800474c <HAL_Delay>
 8000672:	f854 0c04 	ldr.w	r0, [r4, #-4]
 8000676:	f003 ffe9 	bl	800464c <VL_start_measurement_non_blocking>
 800067a:	3701      	adds	r7, #1
 800067c:	2032      	movs	r0, #50	; 0x32
 800067e:	f004 f865 	bl	800474c <HAL_Delay>
 8000682:	2f03      	cmp	r7, #3
 8000684:	f506 76b6 	add.w	r6, r6, #364	; 0x16c
 8000688:	f104 0408 	add.w	r4, r4, #8
 800068c:	d1c2      	bne.n	8000614 <VL_Init_All+0x14>
 800068e:	2201      	movs	r2, #1
 8000690:	f44f 6180 	mov.w	r1, #1024	; 0x400
 8000694:	4806      	ldr	r0, [pc, #24]	; (80006b0 <VL_Init_All+0xb0>)
 8000696:	f004 fd51 	bl	800513c <HAL_GPIO_WritePin>
 800069a:	202a      	movs	r0, #42	; 0x2a
 800069c:	f7ff ff70 	bl	8000580 <VL_Enable>
 80006a0:	2001      	movs	r0, #1
 80006a2:	e8bd 87f0 	ldmia.w	sp!, {r4, r5, r6, r7, r8, r9, sl, pc}
 80006a6:	bf00      	nop
 80006a8:	200003a4 	.word	0x200003a4
 80006ac:	2000037c 	.word	0x2000037c
 80006b0:	40020400 	.word	0x40020400
 80006b4:	2000038e 	.word	0x2000038e

080006b8 <IR_set.part.1>:
 80006b8:	2802      	cmp	r0, #2
 80006ba:	b508      	push	{r3, lr}
 80006bc:	d113      	bne.n	80006e6 <IR_set.part.1+0x2e>
 80006be:	2200      	movs	r2, #0
 80006c0:	f44f 4100 	mov.w	r1, #32768	; 0x8000
 80006c4:	4819      	ldr	r0, [pc, #100]	; (800072c <IR_set.part.1+0x74>)
 80006c6:	f004 fd39 	bl	800513c <HAL_GPIO_WritePin>
 80006ca:	2201      	movs	r2, #1
 80006cc:	f44f 4180 	mov.w	r1, #16384	; 0x4000
 80006d0:	4816      	ldr	r0, [pc, #88]	; (800072c <IR_set.part.1+0x74>)
 80006d2:	f004 fd33 	bl	800513c <HAL_GPIO_WritePin>
 80006d6:	2200      	movs	r2, #0
 80006d8:	f44f 5100 	mov.w	r1, #8192	; 0x2000
 80006dc:	4813      	ldr	r0, [pc, #76]	; (800072c <IR_set.part.1+0x74>)
 80006de:	e8bd 4008 	ldmia.w	sp!, {r3, lr}
 80006e2:	f004 bd2b 	b.w	800513c <HAL_GPIO_WritePin>
 80006e6:	2803      	cmp	r0, #3
 80006e8:	d101      	bne.n	80006ee <IR_set.part.1+0x36>
 80006ea:	2201      	movs	r2, #1
 80006ec:	e7e8      	b.n	80006c0 <IR_set.part.1+0x8>
 80006ee:	2804      	cmp	r0, #4
 80006f0:	d107      	bne.n	8000702 <IR_set.part.1+0x4a>
 80006f2:	2200      	movs	r2, #0
 80006f4:	f44f 4100 	mov.w	r1, #32768	; 0x8000
 80006f8:	480c      	ldr	r0, [pc, #48]	; (800072c <IR_set.part.1+0x74>)
 80006fa:	f004 fd1f 	bl	800513c <HAL_GPIO_WritePin>
 80006fe:	2200      	movs	r2, #0
 8000700:	e7e4      	b.n	80006cc <IR_set.part.1+0x14>
 8000702:	2805      	cmp	r0, #5
 8000704:	f04f 0201 	mov.w	r2, #1
 8000708:	f44f 4100 	mov.w	r1, #32768	; 0x8000
 800070c:	4807      	ldr	r0, [pc, #28]	; (800072c <IR_set.part.1+0x74>)
 800070e:	d109      	bne.n	8000724 <IR_set.part.1+0x6c>
 8000710:	f004 fd14 	bl	800513c <HAL_GPIO_WritePin>
 8000714:	2200      	movs	r2, #0
 8000716:	f44f 4180 	mov.w	r1, #16384	; 0x4000
 800071a:	4804      	ldr	r0, [pc, #16]	; (800072c <IR_set.part.1+0x74>)
 800071c:	f004 fd0e 	bl	800513c <HAL_GPIO_WritePin>
 8000720:	2201      	movs	r2, #1
 8000722:	e7d9      	b.n	80006d8 <IR_set.part.1+0x20>
 8000724:	f004 fd0a 	bl	800513c <HAL_GPIO_WritePin>
 8000728:	2201      	movs	r2, #1
 800072a:	e7f4      	b.n	8000716 <IR_set.part.1+0x5e>
 800072c:	40020400 	.word	0x40020400

08000730 <_write>:
 8000730:	b510      	push	{r4, lr}
 8000732:	2364      	movs	r3, #100	; 0x64
 8000734:	4614      	mov	r4, r2
 8000736:	4803      	ldr	r0, [pc, #12]	; (8000744 <_write+0x14>)
 8000738:	b292      	uxth	r2, r2
 800073a:	f006 f881 	bl	8006840 <HAL_UART_Transmit>
 800073e:	4620      	mov	r0, r4
 8000740:	bd10      	pop	{r4, pc}
 8000742:	bf00      	nop
 8000744:	200009ac 	.word	0x200009ac

08000748 <read_encoders>:
 8000748:	4b0b      	ldr	r3, [pc, #44]	; (8000778 <read_encoders+0x30>)
 800074a:	480c      	ldr	r0, [pc, #48]	; (800077c <read_encoders+0x34>)
 800074c:	6859      	ldr	r1, [r3, #4]
 800074e:	681a      	ldr	r2, [r3, #0]
 8000750:	b510      	push	{r4, lr}
 8000752:	240a      	movs	r4, #10
 8000754:	fb92 f2f4 	sdiv	r2, r2, r4
 8000758:	fb91 f1f4 	sdiv	r1, r1, r4
 800075c:	f006 ff64 	bl	8007628 <iprintf>
 8000760:	4b07      	ldr	r3, [pc, #28]	; (8000780 <read_encoders+0x38>)
 8000762:	4808      	ldr	r0, [pc, #32]	; (8000784 <read_encoders+0x3c>)
 8000764:	6859      	ldr	r1, [r3, #4]
 8000766:	681a      	ldr	r2, [r3, #0]
 8000768:	fb91 f1f4 	sdiv	r1, r1, r4
 800076c:	fb92 f2f4 	sdiv	r2, r2, r4
 8000770:	e8bd 4010 	ldmia.w	sp!, {r4, lr}
 8000774:	f006 bf58 	b.w	8007628 <iprintf>
 8000778:	20000a8c 	.word	0x20000a8c
 800077c:	08007b6c 	.word	0x08007b6c
 8000780:	20000924 	.word	0x20000924
 8000784:	08007b99 	.word	0x08007b99

08000788 <get_encoder_pos>:
 8000788:	4b16      	ldr	r3, [pc, #88]	; (80007e4 <get_encoder_pos+0x5c>)
 800078a:	4a17      	ldr	r2, [pc, #92]	; (80007e8 <get_encoder_pos+0x60>)
 800078c:	b570      	push	{r4, r5, r6, lr}
 800078e:	6812      	ldr	r2, [r2, #0]
 8000790:	681c      	ldr	r4, [r3, #0]
 8000792:	f44f 4100 	mov.w	r1, #32768	; 0x8000
 8000796:	6a63      	ldr	r3, [r4, #36]	; 0x24
 8000798:	6a50      	ldr	r0, [r2, #36]	; 0x24
 800079a:	6261      	str	r1, [r4, #36]	; 0x24
 800079c:	4c13      	ldr	r4, [pc, #76]	; (80007ec <get_encoder_pos+0x64>)
 800079e:	6251      	str	r1, [r2, #36]	; 0x24
 80007a0:	6861      	ldr	r1, [r4, #4]
 80007a2:	22aa      	movs	r2, #170	; 0xaa
 80007a4:	f5a3 4300 	sub.w	r3, r3, #32768	; 0x8000
 80007a8:	4353      	muls	r3, r2
 80007aa:	2633      	movs	r6, #51	; 0x33
 80007ac:	fb93 f3f6 	sdiv	r3, r3, r6
 80007b0:	1ac9      	subs	r1, r1, r3
 80007b2:	6061      	str	r1, [r4, #4]
 80007b4:	f46f 71e7 	mvn.w	r1, #462	; 0x1ce
 80007b8:	4359      	muls	r1, r3
 80007ba:	250a      	movs	r5, #10
 80007bc:	fb91 f1f5 	sdiv	r1, r1, r5
 80007c0:	6021      	str	r1, [r4, #0]
 80007c2:	490b      	ldr	r1, [pc, #44]	; (80007f0 <get_encoder_pos+0x68>)
 80007c4:	f5a0 4300 	sub.w	r3, r0, #32768	; 0x8000
 80007c8:	435a      	muls	r2, r3
 80007ca:	fb92 f3f6 	sdiv	r3, r2, r6
 80007ce:	684a      	ldr	r2, [r1, #4]
 80007d0:	441a      	add	r2, r3
 80007d2:	604a      	str	r2, [r1, #4]
 80007d4:	f240 12cf 	movw	r2, #463	; 0x1cf
 80007d8:	4353      	muls	r3, r2
 80007da:	fb93 f3f5 	sdiv	r3, r3, r5
 80007de:	600b      	str	r3, [r1, #0]
 80007e0:	bd70      	pop	{r4, r5, r6, pc}
 80007e2:	bf00      	nop
 80007e4:	20000bc8 	.word	0x20000bc8
 80007e8:	2000089c 	.word	0x2000089c
 80007ec:	20000a8c 	.word	0x20000a8c
 80007f0:	20000924 	.word	0x20000924

080007f4 <HAL_UART_TxCpltCallback>:
 80007f4:	4a02      	ldr	r2, [pc, #8]	; (8000800 <HAL_UART_TxCpltCallback+0xc>)
 80007f6:	2300      	movs	r3, #0
 80007f8:	6013      	str	r3, [r2, #0]
 80007fa:	4a02      	ldr	r2, [pc, #8]	; (8000804 <HAL_UART_TxCpltCallback+0x10>)
 80007fc:	7013      	strb	r3, [r2, #0]
 80007fe:	4770      	bx	lr
 8000800:	20000364 	.word	0x20000364
 8000804:	20000a94 	.word	0x20000a94

08000808 <HAL_UART_ErrorCallback>:
 8000808:	bf00      	nop
 800080a:	4770      	bx	lr

0800080c <HAL_UART_RxCpltCallback>:
 800080c:	6802      	ldr	r2, [r0, #0]
 800080e:	4b48      	ldr	r3, [pc, #288]	; (8000930 <HAL_UART_RxCpltCallback+0x124>)
 8000810:	429a      	cmp	r2, r3
 8000812:	f040 808c 	bne.w	800092e <HAL_UART_RxCpltCallback+0x122>
 8000816:	4b47      	ldr	r3, [pc, #284]	; (8000934 <HAL_UART_RxCpltCallback+0x128>)
 8000818:	2201      	movs	r2, #1
 800081a:	701a      	strb	r2, [r3, #0]
 800081c:	4b46      	ldr	r3, [pc, #280]	; (8000938 <HAL_UART_RxCpltCallback+0x12c>)
 800081e:	781b      	ldrb	r3, [r3, #0]
 8000820:	2b77      	cmp	r3, #119	; 0x77
 8000822:	d106      	bne.n	8000832 <HAL_UART_RxCpltCallback+0x26>
 8000824:	4a45      	ldr	r2, [pc, #276]	; (800093c <HAL_UART_RxCpltCallback+0x130>)
 8000826:	7013      	strb	r3, [r2, #0]
 8000828:	2201      	movs	r2, #1
 800082a:	4943      	ldr	r1, [pc, #268]	; (8000938 <HAL_UART_RxCpltCallback+0x12c>)
 800082c:	4844      	ldr	r0, [pc, #272]	; (8000940 <HAL_UART_RxCpltCallback+0x134>)
 800082e:	f006 b863 	b.w	80068f8 <HAL_UART_Receive_IT>
 8000832:	2b73      	cmp	r3, #115	; 0x73
 8000834:	d0f6      	beq.n	8000824 <HAL_UART_RxCpltCallback+0x18>
 8000836:	2b61      	cmp	r3, #97	; 0x61
 8000838:	d0f4      	beq.n	8000824 <HAL_UART_RxCpltCallback+0x18>
 800083a:	2b64      	cmp	r3, #100	; 0x64
 800083c:	d0f2      	beq.n	8000824 <HAL_UART_RxCpltCallback+0x18>
 800083e:	2b70      	cmp	r3, #112	; 0x70
 8000840:	d101      	bne.n	8000846 <HAL_UART_RxCpltCallback+0x3a>
 8000842:	4a40      	ldr	r2, [pc, #256]	; (8000944 <HAL_UART_RxCpltCallback+0x138>)
 8000844:	e7ef      	b.n	8000826 <HAL_UART_RxCpltCallback+0x1a>
 8000846:	2b5d      	cmp	r3, #93	; 0x5d
 8000848:	d0fb      	beq.n	8000842 <HAL_UART_RxCpltCallback+0x36>
 800084a:	2b72      	cmp	r3, #114	; 0x72
 800084c:	d0f9      	beq.n	8000842 <HAL_UART_RxCpltCallback+0x36>
 800084e:	2b7a      	cmp	r3, #122	; 0x7a
 8000850:	d0f7      	beq.n	8000842 <HAL_UART_RxCpltCallback+0x36>
 8000852:	2b67      	cmp	r3, #103	; 0x67
 8000854:	d0f5      	beq.n	8000842 <HAL_UART_RxCpltCallback+0x36>
 8000856:	2b6b      	cmp	r3, #107	; 0x6b
 8000858:	d0f3      	beq.n	8000842 <HAL_UART_RxCpltCallback+0x36>
 800085a:	2b30      	cmp	r3, #48	; 0x30
 800085c:	d103      	bne.n	8000866 <HAL_UART_RxCpltCallback+0x5a>
 800085e:	4b3a      	ldr	r3, [pc, #232]	; (8000948 <HAL_UART_RxCpltCallback+0x13c>)
 8000860:	2200      	movs	r2, #0
 8000862:	801a      	strh	r2, [r3, #0]
 8000864:	e7e0      	b.n	8000828 <HAL_UART_RxCpltCallback+0x1c>
 8000866:	2b31      	cmp	r3, #49	; 0x31
 8000868:	d102      	bne.n	8000870 <HAL_UART_RxCpltCallback+0x64>
 800086a:	4b37      	ldr	r3, [pc, #220]	; (8000948 <HAL_UART_RxCpltCallback+0x13c>)
 800086c:	2264      	movs	r2, #100	; 0x64
 800086e:	e7f8      	b.n	8000862 <HAL_UART_RxCpltCallback+0x56>
 8000870:	2b32      	cmp	r3, #50	; 0x32
 8000872:	d102      	bne.n	800087a <HAL_UART_RxCpltCallback+0x6e>
 8000874:	4b34      	ldr	r3, [pc, #208]	; (8000948 <HAL_UART_RxCpltCallback+0x13c>)
 8000876:	22c8      	movs	r2, #200	; 0xc8
 8000878:	e7f3      	b.n	8000862 <HAL_UART_RxCpltCallback+0x56>
 800087a:	2b33      	cmp	r3, #51	; 0x33
 800087c:	d103      	bne.n	8000886 <HAL_UART_RxCpltCallback+0x7a>
 800087e:	4b32      	ldr	r3, [pc, #200]	; (8000948 <HAL_UART_RxCpltCallback+0x13c>)
 8000880:	f44f 7296 	mov.w	r2, #300	; 0x12c
 8000884:	e7ed      	b.n	8000862 <HAL_UART_RxCpltCallback+0x56>
 8000886:	2b34      	cmp	r3, #52	; 0x34
 8000888:	d103      	bne.n	8000892 <HAL_UART_RxCpltCallback+0x86>
 800088a:	4b2f      	ldr	r3, [pc, #188]	; (8000948 <HAL_UART_RxCpltCallback+0x13c>)
 800088c:	f44f 72c8 	mov.w	r2, #400	; 0x190
 8000890:	e7e7      	b.n	8000862 <HAL_UART_RxCpltCallback+0x56>
 8000892:	2b35      	cmp	r3, #53	; 0x35
 8000894:	d103      	bne.n	800089e <HAL_UART_RxCpltCallback+0x92>
 8000896:	4b2c      	ldr	r3, [pc, #176]	; (8000948 <HAL_UART_RxCpltCallback+0x13c>)
 8000898:	f44f 72fa 	mov.w	r2, #500	; 0x1f4
 800089c:	e7e1      	b.n	8000862 <HAL_UART_RxCpltCallback+0x56>
 800089e:	2b36      	cmp	r3, #54	; 0x36
 80008a0:	d103      	bne.n	80008aa <HAL_UART_RxCpltCallback+0x9e>
 80008a2:	4b29      	ldr	r3, [pc, #164]	; (8000948 <HAL_UART_RxCpltCallback+0x13c>)
 80008a4:	f44f 7216 	mov.w	r2, #600	; 0x258
 80008a8:	e7db      	b.n	8000862 <HAL_UART_RxCpltCallback+0x56>
 80008aa:	2b37      	cmp	r3, #55	; 0x37
 80008ac:	d103      	bne.n	80008b6 <HAL_UART_RxCpltCallback+0xaa>
 80008ae:	4b26      	ldr	r3, [pc, #152]	; (8000948 <HAL_UART_RxCpltCallback+0x13c>)
 80008b0:	f44f 722f 	mov.w	r2, #700	; 0x2bc
 80008b4:	e7d5      	b.n	8000862 <HAL_UART_RxCpltCallback+0x56>
 80008b6:	2b38      	cmp	r3, #56	; 0x38
 80008b8:	d103      	bne.n	80008c2 <HAL_UART_RxCpltCallback+0xb6>
 80008ba:	4b23      	ldr	r3, [pc, #140]	; (8000948 <HAL_UART_RxCpltCallback+0x13c>)
 80008bc:	f44f 7248 	mov.w	r2, #800	; 0x320
 80008c0:	e7cf      	b.n	8000862 <HAL_UART_RxCpltCallback+0x56>
 80008c2:	2b39      	cmp	r3, #57	; 0x39
 80008c4:	d103      	bne.n	80008ce <HAL_UART_RxCpltCallback+0xc2>
 80008c6:	4b20      	ldr	r3, [pc, #128]	; (8000948 <HAL_UART_RxCpltCallback+0x13c>)
 80008c8:	f44f 7261 	mov.w	r2, #900	; 0x384
 80008cc:	e7c9      	b.n	8000862 <HAL_UART_RxCpltCallback+0x56>
 80008ce:	2b63      	cmp	r3, #99	; 0x63
 80008d0:	d108      	bne.n	80008e4 <HAL_UART_RxCpltCallback+0xd8>
 80008d2:	4b1c      	ldr	r3, [pc, #112]	; (8000944 <HAL_UART_RxCpltCallback+0x138>)
 80008d4:	2251      	movs	r2, #81	; 0x51
 80008d6:	701a      	strb	r2, [r3, #0]
 80008d8:	4a1c      	ldr	r2, [pc, #112]	; (800094c <HAL_UART_RxCpltCallback+0x140>)
 80008da:	8813      	ldrh	r3, [r2, #0]
 80008dc:	3301      	adds	r3, #1
 80008de:	b21b      	sxth	r3, r3
 80008e0:	8013      	strh	r3, [r2, #0]
 80008e2:	e7a1      	b.n	8000828 <HAL_UART_RxCpltCallback+0x1c>
 80008e4:	2b76      	cmp	r3, #118	; 0x76
 80008e6:	d106      	bne.n	80008f6 <HAL_UART_RxCpltCallback+0xea>
 80008e8:	4b16      	ldr	r3, [pc, #88]	; (8000944 <HAL_UART_RxCpltCallback+0x138>)
 80008ea:	2251      	movs	r2, #81	; 0x51
 80008ec:	701a      	strb	r2, [r3, #0]
 80008ee:	4a17      	ldr	r2, [pc, #92]	; (800094c <HAL_UART_RxCpltCallback+0x140>)
 80008f0:	8813      	ldrh	r3, [r2, #0]
 80008f2:	3b01      	subs	r3, #1
 80008f4:	e7f3      	b.n	80008de <HAL_UART_RxCpltCallback+0xd2>
 80008f6:	2b62      	cmp	r3, #98	; 0x62
 80008f8:	d104      	bne.n	8000904 <HAL_UART_RxCpltCallback+0xf8>
 80008fa:	4b12      	ldr	r3, [pc, #72]	; (8000944 <HAL_UART_RxCpltCallback+0x138>)
 80008fc:	2251      	movs	r2, #81	; 0x51
 80008fe:	701a      	strb	r2, [r3, #0]
 8000900:	4a13      	ldr	r2, [pc, #76]	; (8000950 <HAL_UART_RxCpltCallback+0x144>)
 8000902:	e7ea      	b.n	80008da <HAL_UART_RxCpltCallback+0xce>
 8000904:	2b6e      	cmp	r3, #110	; 0x6e
 8000906:	d104      	bne.n	8000912 <HAL_UART_RxCpltCallback+0x106>
 8000908:	4b0e      	ldr	r3, [pc, #56]	; (8000944 <HAL_UART_RxCpltCallback+0x138>)
 800090a:	2251      	movs	r2, #81	; 0x51
 800090c:	701a      	strb	r2, [r3, #0]
 800090e:	4a10      	ldr	r2, [pc, #64]	; (8000950 <HAL_UART_RxCpltCallback+0x144>)
 8000910:	e7ee      	b.n	80008f0 <HAL_UART_RxCpltCallback+0xe4>
 8000912:	2b6d      	cmp	r3, #109	; 0x6d
 8000914:	d104      	bne.n	8000920 <HAL_UART_RxCpltCallback+0x114>
 8000916:	4b0b      	ldr	r3, [pc, #44]	; (8000944 <HAL_UART_RxCpltCallback+0x138>)
 8000918:	2251      	movs	r2, #81	; 0x51
 800091a:	701a      	strb	r2, [r3, #0]
 800091c:	4a0d      	ldr	r2, [pc, #52]	; (8000954 <HAL_UART_RxCpltCallback+0x148>)
 800091e:	e7dc      	b.n	80008da <HAL_UART_RxCpltCallback+0xce>
 8000920:	2b2c      	cmp	r3, #44	; 0x2c
 8000922:	d181      	bne.n	8000828 <HAL_UART_RxCpltCallback+0x1c>
 8000924:	4b07      	ldr	r3, [pc, #28]	; (8000944 <HAL_UART_RxCpltCallback+0x138>)
 8000926:	2251      	movs	r2, #81	; 0x51
 8000928:	701a      	strb	r2, [r3, #0]
 800092a:	4a0a      	ldr	r2, [pc, #40]	; (8000954 <HAL_UART_RxCpltCallback+0x148>)
 800092c:	e7e0      	b.n	80008f0 <HAL_UART_RxCpltCallback+0xe4>
 800092e:	4770      	bx	lr
 8000930:	40011000 	.word	0x40011000
 8000934:	2000035c 	.word	0x2000035c
 8000938:	20000a94 	.word	0x20000a94
 800093c:	2000034c 	.word	0x2000034c
 8000940:	200009ac 	.word	0x200009ac
 8000944:	20000356 	.word	0x20000356
 8000948:	2000035e 	.word	0x2000035e
 800094c:	20000354 	.word	0x20000354
 8000950:	20000352 	.word	0x20000352
 8000954:	20000350 	.word	0x20000350

08000958 <HAL_TIM_PeriodElapsedCallback>:
 8000958:	6802      	ldr	r2, [r0, #0]
 800095a:	4b0e      	ldr	r3, [pc, #56]	; (8000994 <HAL_TIM_PeriodElapsedCallback+0x3c>)
 800095c:	429a      	cmp	r2, r3
 800095e:	b510      	push	{r4, lr}
 8000960:	4604      	mov	r4, r0
 8000962:	d10f      	bne.n	8000984 <HAL_TIM_PeriodElapsedCallback+0x2c>
 8000964:	f7ff ff10 	bl	8000788 <get_encoder_pos>
 8000968:	4a0b      	ldr	r2, [pc, #44]	; (8000998 <HAL_TIM_PeriodElapsedCallback+0x40>)
 800096a:	7811      	ldrb	r1, [r2, #0]
 800096c:	f001 03ff 	and.w	r3, r1, #255	; 0xff
 8000970:	b929      	cbnz	r1, 800097e <HAL_TIM_PeriodElapsedCallback+0x26>
 8000972:	2101      	movs	r1, #1
 8000974:	7011      	strb	r1, [r2, #0]
 8000976:	4a09      	ldr	r2, [pc, #36]	; (800099c <HAL_TIM_PeriodElapsedCallback+0x44>)
 8000978:	6053      	str	r3, [r2, #4]
 800097a:	4a09      	ldr	r2, [pc, #36]	; (80009a0 <HAL_TIM_PeriodElapsedCallback+0x48>)
 800097c:	6053      	str	r3, [r2, #4]
 800097e:	4b09      	ldr	r3, [pc, #36]	; (80009a4 <HAL_TIM_PeriodElapsedCallback+0x4c>)
 8000980:	2201      	movs	r2, #1
 8000982:	701a      	strb	r2, [r3, #0]
 8000984:	6822      	ldr	r2, [r4, #0]
 8000986:	4b08      	ldr	r3, [pc, #32]	; (80009a8 <HAL_TIM_PeriodElapsedCallback+0x50>)
 8000988:	429a      	cmp	r2, r3
 800098a:	bf02      	ittt	eq
 800098c:	4b07      	ldreq	r3, [pc, #28]	; (80009ac <HAL_TIM_PeriodElapsedCallback+0x54>)
 800098e:	2201      	moveq	r2, #1
 8000990:	701a      	strbeq	r2, [r3, #0]
 8000992:	bd10      	pop	{r4, pc}
 8000994:	40014400 	.word	0x40014400
 8000998:	2000034f 	.word	0x2000034f
 800099c:	20000924 	.word	0x20000924
 80009a0:	20000a8c 	.word	0x20000a8c
 80009a4:	20000360 	.word	0x20000360
 80009a8:	40014800 	.word	0x40014800
 80009ac:	2000034b 	.word	0x2000034b

080009b0 <HAL_GPIO_EXTI_Callback>:
 80009b0:	f5b0 5f80 	cmp.w	r0, #4096	; 0x1000
 80009b4:	b510      	push	{r4, lr}
 80009b6:	4604      	mov	r4, r0
 80009b8:	d10c      	bne.n	80009d4 <HAL_GPIO_EXTI_Callback+0x24>
 80009ba:	2104      	movs	r1, #4
 80009bc:	4814      	ldr	r0, [pc, #80]	; (8000a10 <HAL_GPIO_EXTI_Callback+0x60>)
 80009be:	f004 fbc2 	bl	8005146 <HAL_GPIO_TogglePin>
 80009c2:	4b14      	ldr	r3, [pc, #80]	; (8000a14 <HAL_GPIO_EXTI_Callback+0x64>)
 80009c4:	4814      	ldr	r0, [pc, #80]	; (8000a18 <HAL_GPIO_EXTI_Callback+0x68>)
 80009c6:	6819      	ldr	r1, [r3, #0]
 80009c8:	e8bd 4010 	ldmia.w	sp!, {r4, lr}
 80009cc:	3932      	subs	r1, #50	; 0x32
 80009ce:	6019      	str	r1, [r3, #0]
 80009d0:	f006 be2a 	b.w	8007628 <iprintf>
 80009d4:	2804      	cmp	r0, #4
 80009d6:	d108      	bne.n	80009ea <HAL_GPIO_EXTI_Callback+0x3a>
 80009d8:	4810      	ldr	r0, [pc, #64]	; (8000a1c <HAL_GPIO_EXTI_Callback+0x6c>)
 80009da:	f006 fe99 	bl	8007710 <puts>
 80009de:	4a10      	ldr	r2, [pc, #64]	; (8000a20 <HAL_GPIO_EXTI_Callback+0x70>)
 80009e0:	2301      	movs	r3, #1
 80009e2:	7013      	strb	r3, [r2, #0]
 80009e4:	4a0f      	ldr	r2, [pc, #60]	; (8000a24 <HAL_GPIO_EXTI_Callback+0x74>)
 80009e6:	7013      	strb	r3, [r2, #0]
 80009e8:	bd10      	pop	{r4, pc}
 80009ea:	2802      	cmp	r0, #2
 80009ec:	d106      	bne.n	80009fc <HAL_GPIO_EXTI_Callback+0x4c>
 80009ee:	480e      	ldr	r0, [pc, #56]	; (8000a28 <HAL_GPIO_EXTI_Callback+0x78>)
 80009f0:	f006 fe8e 	bl	8007710 <puts>
 80009f4:	4a0a      	ldr	r2, [pc, #40]	; (8000a20 <HAL_GPIO_EXTI_Callback+0x70>)
 80009f6:	2301      	movs	r3, #1
 80009f8:	7053      	strb	r3, [r2, #1]
 80009fa:	e7f3      	b.n	80009e4 <HAL_GPIO_EXTI_Callback+0x34>
 80009fc:	2801      	cmp	r0, #1
 80009fe:	d1f3      	bne.n	80009e8 <HAL_GPIO_EXTI_Callback+0x38>
 8000a00:	480a      	ldr	r0, [pc, #40]	; (8000a2c <HAL_GPIO_EXTI_Callback+0x7c>)
 8000a02:	f006 fe85 	bl	8007710 <puts>
 8000a06:	4b06      	ldr	r3, [pc, #24]	; (8000a20 <HAL_GPIO_EXTI_Callback+0x70>)
 8000a08:	709c      	strb	r4, [r3, #2]
 8000a0a:	4b06      	ldr	r3, [pc, #24]	; (8000a24 <HAL_GPIO_EXTI_Callback+0x74>)
 8000a0c:	701c      	strb	r4, [r3, #0]
 8000a0e:	e7eb      	b.n	80009e8 <HAL_GPIO_EXTI_Callback+0x38>
 8000a10:	40020400 	.word	0x40020400
 8000a14:	20000358 	.word	0x20000358
 8000a18:	08007a44 	.word	0x08007a44
 8000a1c:	08007a61 	.word	0x08007a61
 8000a20:	20000348 	.word	0x20000348
 8000a24:	20000368 	.word	0x20000368
 8000a28:	08007a6e 	.word	0x08007a6e
 8000a2c:	08007a7c 	.word	0x08007a7c

08000a30 <PWM>:
 8000a30:	b570      	push	{r4, r5, r6, lr}
 8000a32:	1e04      	subs	r4, r0, #0
 8000a34:	460e      	mov	r6, r1
 8000a36:	4d43      	ldr	r5, [pc, #268]	; (8000b44 <PWM+0x114>)
 8000a38:	db30      	blt.n	8000a9c <PWM+0x6c>
 8000a3a:	f242 700f 	movw	r0, #9999	; 0x270f
 8000a3e:	782b      	ldrb	r3, [r5, #0]
 8000a40:	4284      	cmp	r4, r0
 8000a42:	bfa8      	it	ge
 8000a44:	4604      	movge	r4, r0
 8000a46:	2b01      	cmp	r3, #1
 8000a48:	d00d      	beq.n	8000a66 <PWM+0x36>
 8000a4a:	2201      	movs	r2, #1
 8000a4c:	f44f 7180 	mov.w	r1, #256	; 0x100
 8000a50:	483d      	ldr	r0, [pc, #244]	; (8000b48 <PWM+0x118>)
 8000a52:	f004 fb73 	bl	800513c <HAL_GPIO_WritePin>
 8000a56:	2200      	movs	r2, #0
 8000a58:	f44f 7100 	mov.w	r1, #512	; 0x200
 8000a5c:	483a      	ldr	r0, [pc, #232]	; (8000b48 <PWM+0x118>)
 8000a5e:	f004 fb6d 	bl	800513c <HAL_GPIO_WritePin>
 8000a62:	2301      	movs	r3, #1
 8000a64:	702b      	strb	r3, [r5, #0]
 8000a66:	2e00      	cmp	r6, #0
 8000a68:	db2d      	blt.n	8000ac6 <PWM+0x96>
 8000a6a:	786b      	ldrb	r3, [r5, #1]
 8000a6c:	2b01      	cmp	r3, #1
 8000a6e:	d00d      	beq.n	8000a8c <PWM+0x5c>
 8000a70:	2200      	movs	r2, #0
 8000a72:	f44f 6100 	mov.w	r1, #2048	; 0x800
 8000a76:	4835      	ldr	r0, [pc, #212]	; (8000b4c <PWM+0x11c>)
 8000a78:	f004 fb60 	bl	800513c <HAL_GPIO_WritePin>
 8000a7c:	2201      	movs	r2, #1
 8000a7e:	f44f 6180 	mov.w	r1, #1024	; 0x400
 8000a82:	4832      	ldr	r0, [pc, #200]	; (8000b4c <PWM+0x11c>)
 8000a84:	f004 fb5a 	bl	800513c <HAL_GPIO_WritePin>
 8000a88:	2301      	movs	r3, #1
 8000a8a:	706b      	strb	r3, [r5, #1]
 8000a8c:	2e00      	cmp	r6, #0
 8000a8e:	d03a      	beq.n	8000b06 <PWM+0xd6>
 8000a90:	f242 730f 	movw	r3, #9999	; 0x270f
 8000a94:	429e      	cmp	r6, r3
 8000a96:	bfa8      	it	ge
 8000a98:	461e      	movge	r6, r3
 8000a9a:	e029      	b.n	8000af0 <PWM+0xc0>
 8000a9c:	482c      	ldr	r0, [pc, #176]	; (8000b50 <PWM+0x120>)
 8000a9e:	782b      	ldrb	r3, [r5, #0]
 8000aa0:	4284      	cmp	r4, r0
 8000aa2:	bfb8      	it	lt
 8000aa4:	4604      	movlt	r4, r0
 8000aa6:	2b02      	cmp	r3, #2
 8000aa8:	d0dd      	beq.n	8000a66 <PWM+0x36>
 8000aaa:	2200      	movs	r2, #0
 8000aac:	f44f 7180 	mov.w	r1, #256	; 0x100
 8000ab0:	4825      	ldr	r0, [pc, #148]	; (8000b48 <PWM+0x118>)
 8000ab2:	f004 fb43 	bl	800513c <HAL_GPIO_WritePin>
 8000ab6:	2201      	movs	r2, #1
 8000ab8:	f44f 7100 	mov.w	r1, #512	; 0x200
 8000abc:	4822      	ldr	r0, [pc, #136]	; (8000b48 <PWM+0x118>)
 8000abe:	f004 fb3d 	bl	800513c <HAL_GPIO_WritePin>
 8000ac2:	2302      	movs	r3, #2
 8000ac4:	e7ce      	b.n	8000a64 <PWM+0x34>
 8000ac6:	4b22      	ldr	r3, [pc, #136]	; (8000b50 <PWM+0x120>)
 8000ac8:	429e      	cmp	r6, r3
 8000aca:	bfb8      	it	lt
 8000acc:	461e      	movlt	r6, r3
 8000ace:	786b      	ldrb	r3, [r5, #1]
 8000ad0:	2b02      	cmp	r3, #2
 8000ad2:	d00d      	beq.n	8000af0 <PWM+0xc0>
 8000ad4:	2201      	movs	r2, #1
 8000ad6:	f44f 6100 	mov.w	r1, #2048	; 0x800
 8000ada:	481c      	ldr	r0, [pc, #112]	; (8000b4c <PWM+0x11c>)
 8000adc:	f004 fb2e 	bl	800513c <HAL_GPIO_WritePin>
 8000ae0:	2200      	movs	r2, #0
 8000ae2:	f44f 6180 	mov.w	r1, #1024	; 0x400
 8000ae6:	4819      	ldr	r0, [pc, #100]	; (8000b4c <PWM+0x11c>)
 8000ae8:	f004 fb28 	bl	800513c <HAL_GPIO_WritePin>
 8000aec:	2302      	movs	r3, #2
 8000aee:	706b      	strb	r3, [r5, #1]
 8000af0:	4b18      	ldr	r3, [pc, #96]	; (8000b54 <PWM+0x124>)
 8000af2:	2c00      	cmp	r4, #0
 8000af4:	681b      	ldr	r3, [r3, #0]
 8000af6:	bfb8      	it	lt
 8000af8:	4264      	neglt	r4, r4
 8000afa:	2e00      	cmp	r6, #0
 8000afc:	bfb8      	it	lt
 8000afe:	4276      	neglt	r6, r6
 8000b00:	635c      	str	r4, [r3, #52]	; 0x34
 8000b02:	639e      	str	r6, [r3, #56]	; 0x38
 8000b04:	bd70      	pop	{r4, r5, r6, pc}
 8000b06:	2c00      	cmp	r4, #0
 8000b08:	d1f2      	bne.n	8000af0 <PWM+0xc0>
 8000b0a:	2201      	movs	r2, #1
 8000b0c:	f44f 6100 	mov.w	r1, #2048	; 0x800
 8000b10:	480e      	ldr	r0, [pc, #56]	; (8000b4c <PWM+0x11c>)
 8000b12:	706c      	strb	r4, [r5, #1]
 8000b14:	702c      	strb	r4, [r5, #0]
 8000b16:	f004 fb11 	bl	800513c <HAL_GPIO_WritePin>
 8000b1a:	2201      	movs	r2, #1
 8000b1c:	f44f 6180 	mov.w	r1, #1024	; 0x400
 8000b20:	480a      	ldr	r0, [pc, #40]	; (8000b4c <PWM+0x11c>)
 8000b22:	f004 fb0b 	bl	800513c <HAL_GPIO_WritePin>
 8000b26:	2201      	movs	r2, #1
 8000b28:	f44f 7180 	mov.w	r1, #256	; 0x100
 8000b2c:	4806      	ldr	r0, [pc, #24]	; (8000b48 <PWM+0x118>)
 8000b2e:	f004 fb05 	bl	800513c <HAL_GPIO_WritePin>
 8000b32:	2201      	movs	r2, #1
 8000b34:	f44f 7100 	mov.w	r1, #512	; 0x200
 8000b38:	4803      	ldr	r0, [pc, #12]	; (8000b48 <PWM+0x118>)
 8000b3a:	f004 faff 	bl	800513c <HAL_GPIO_WritePin>
 8000b3e:	4626      	mov	r6, r4
 8000b40:	e7d6      	b.n	8000af0 <PWM+0xc0>
 8000b42:	bf00      	nop
 8000b44:	2000034d 	.word	0x2000034d
 8000b48:	40020800 	.word	0x40020800
 8000b4c:	40020000 	.word	0x40020000
 8000b50:	ffffd8f1 	.word	0xffffd8f1
 8000b54:	20000a98 	.word	0x20000a98

08000b58 <pos_and_speed_measurement>:
 8000b58:	4b0d      	ldr	r3, [pc, #52]	; (8000b90 <pos_and_speed_measurement+0x38>)
 8000b5a:	8818      	ldrh	r0, [r3, #0]
 8000b5c:	8819      	ldrh	r1, [r3, #0]
 8000b5e:	b200      	sxth	r0, r0
 8000b60:	b209      	sxth	r1, r1
 8000b62:	eb01 0181 	add.w	r1, r1, r1, lsl #2
 8000b66:	eb00 0080 	add.w	r0, r0, r0, lsl #2
 8000b6a:	b510      	push	{r4, lr}
 8000b6c:	0049      	lsls	r1, r1, #1
 8000b6e:	0040      	lsls	r0, r0, #1
 8000b70:	f7ff ff5e 	bl	8000a30 <PWM>
 8000b74:	240a      	movs	r4, #10
 8000b76:	2064      	movs	r0, #100	; 0x64
 8000b78:	f003 fde8 	bl	800474c <HAL_Delay>
 8000b7c:	f7ff fde4 	bl	8000748 <read_encoders>
 8000b80:	3c01      	subs	r4, #1
 8000b82:	d1f8      	bne.n	8000b76 <pos_and_speed_measurement+0x1e>
 8000b84:	4621      	mov	r1, r4
 8000b86:	4620      	mov	r0, r4
 8000b88:	e8bd 4010 	ldmia.w	sp!, {r4, lr}
 8000b8c:	f7ff bf50 	b.w	8000a30 <PWM>
 8000b90:	2000035e 	.word	0x2000035e

08000b94 <initialize_PID>:
 8000b94:	b5f8      	push	{r3, r4, r5, r6, r7, lr}
 8000b96:	4f56      	ldr	r7, [pc, #344]	; (8000cf0 <initialize_PID+0x15c>)
 8000b98:	4e56      	ldr	r6, [pc, #344]	; (8000cf4 <initialize_PID+0x160>)
 8000b9a:	883b      	ldrh	r3, [r7, #0]
 8000b9c:	4d56      	ldr	r5, [pc, #344]	; (8000cf8 <initialize_PID+0x164>)
 8000b9e:	4c57      	ldr	r4, [pc, #348]	; (8000cfc <initialize_PID+0x168>)
 8000ba0:	b21b      	sxth	r3, r3
 8000ba2:	ee00 3a10 	vmov	s0, r3
 8000ba6:	8833      	ldrh	r3, [r6, #0]
 8000ba8:	b21b      	sxth	r3, r3
 8000baa:	ee00 3a90 	vmov	s1, r3
 8000bae:	882b      	ldrh	r3, [r5, #0]
 8000bb0:	b21b      	sxth	r3, r3
 8000bb2:	ee01 3a10 	vmov	s2, r3
 8000bb6:	ed2d 8b04 	vpush	{d8-d9}
 8000bba:	eeb8 1ac1 	vcvt.f32.s32	s2, s2
 8000bbe:	ed9f 9a50 	vldr	s18, [pc, #320]	; 8000d00 <initialize_PID+0x16c>
 8000bc2:	eddf 9a50 	vldr	s19, [pc, #320]	; 8000d04 <initialize_PID+0x170>
 8000bc6:	eddf 8a50 	vldr	s17, [pc, #320]	; 8000d08 <initialize_PID+0x174>
 8000bca:	ed9f 8a50 	vldr	s16, [pc, #320]	; 8000d0c <initialize_PID+0x178>
 8000bce:	eef8 0ae0 	vcvt.f32.s32	s1, s1
 8000bd2:	eeb8 0ac0 	vcvt.f32.s32	s0, s0
 8000bd6:	ee21 1a09 	vmul.f32	s2, s2, s18
 8000bda:	ee60 0a89 	vmul.f32	s1, s1, s18
 8000bde:	2228      	movs	r2, #40	; 0x28
 8000be0:	2104      	movs	r1, #4
 8000be2:	ee20 0a29 	vmul.f32	s0, s0, s19
 8000be6:	4620      	mov	r0, r4
 8000be8:	f000 fd5d 	bl	80016a6 <pid_init>
 8000bec:	eeb0 0a68 	vmov.f32	s0, s17
 8000bf0:	4620      	mov	r0, r4
 8000bf2:	f000 fdd6 	bl	80017a2 <pid_scale>
 8000bf6:	eeb0 0a48 	vmov.f32	s0, s16
 8000bfa:	61a0      	str	r0, [r4, #24]
 8000bfc:	4620      	mov	r0, r4
 8000bfe:	f000 fdd0 	bl	80017a2 <pid_scale>
 8000c02:	eeb0 0a68 	vmov.f32	s0, s17
 8000c06:	6260      	str	r0, [r4, #36]	; 0x24
 8000c08:	4620      	mov	r0, r4
 8000c0a:	f000 fdca 	bl	80017a2 <pid_scale>
 8000c0e:	eeb0 0a48 	vmov.f32	s0, s16
 8000c12:	61e0      	str	r0, [r4, #28]
 8000c14:	4620      	mov	r0, r4
 8000c16:	f000 fdc4 	bl	80017a2 <pid_scale>
 8000c1a:	eeb0 0a68 	vmov.f32	s0, s17
 8000c1e:	62a0      	str	r0, [r4, #40]	; 0x28
 8000c20:	4620      	mov	r0, r4
 8000c22:	f000 fdbe 	bl	80017a2 <pid_scale>
 8000c26:	eeb0 0a48 	vmov.f32	s0, s16
 8000c2a:	6220      	str	r0, [r4, #32]
 8000c2c:	4620      	mov	r0, r4
 8000c2e:	f000 fdb8 	bl	80017a2 <pid_scale>
 8000c32:	eeb0 0a68 	vmov.f32	s0, s17
 8000c36:	62e0      	str	r0, [r4, #44]	; 0x2c
 8000c38:	4620      	mov	r0, r4
 8000c3a:	f000 fdb2 	bl	80017a2 <pid_scale>
 8000c3e:	eeb0 0a48 	vmov.f32	s0, s16
 8000c42:	64a0      	str	r0, [r4, #72]	; 0x48
 8000c44:	4620      	mov	r0, r4
 8000c46:	f000 fdac 	bl	80017a2 <pid_scale>
 8000c4a:	883b      	ldrh	r3, [r7, #0]
 8000c4c:	64e0      	str	r0, [r4, #76]	; 0x4c
 8000c4e:	b21b      	sxth	r3, r3
 8000c50:	ee00 3a10 	vmov	s0, r3
 8000c54:	8833      	ldrh	r3, [r6, #0]
 8000c56:	4c2e      	ldr	r4, [pc, #184]	; (8000d10 <initialize_PID+0x17c>)
 8000c58:	b21b      	sxth	r3, r3
 8000c5a:	ee00 3a90 	vmov	s1, r3
 8000c5e:	882b      	ldrh	r3, [r5, #0]
 8000c60:	b21b      	sxth	r3, r3
 8000c62:	ee01 3a10 	vmov	s2, r3
 8000c66:	eef8 0ae0 	vcvt.f32.s32	s1, s1
 8000c6a:	eeb8 1ac1 	vcvt.f32.s32	s2, s2
 8000c6e:	eeb8 0ac0 	vcvt.f32.s32	s0, s0
 8000c72:	ee21 1a09 	vmul.f32	s2, s2, s18
 8000c76:	ee60 0a89 	vmul.f32	s1, s1, s18
 8000c7a:	2228      	movs	r2, #40	; 0x28
 8000c7c:	2104      	movs	r1, #4
 8000c7e:	ee20 0a29 	vmul.f32	s0, s0, s19
 8000c82:	4620      	mov	r0, r4
 8000c84:	f000 fd0f 	bl	80016a6 <pid_init>
 8000c88:	eeb0 0a68 	vmov.f32	s0, s17
 8000c8c:	4620      	mov	r0, r4
 8000c8e:	f000 fd88 	bl	80017a2 <pid_scale>
 8000c92:	eeb0 0a48 	vmov.f32	s0, s16
 8000c96:	61a0      	str	r0, [r4, #24]
 8000c98:	4620      	mov	r0, r4
 8000c9a:	f000 fd82 	bl	80017a2 <pid_scale>
 8000c9e:	eeb0 0a68 	vmov.f32	s0, s17
 8000ca2:	6260      	str	r0, [r4, #36]	; 0x24
 8000ca4:	4620      	mov	r0, r4
 8000ca6:	f000 fd7c 	bl	80017a2 <pid_scale>
 8000caa:	eeb0 0a48 	vmov.f32	s0, s16
 8000cae:	61e0      	str	r0, [r4, #28]
 8000cb0:	4620      	mov	r0, r4
 8000cb2:	f000 fd76 	bl	80017a2 <pid_scale>
 8000cb6:	eeb0 0a68 	vmov.f32	s0, s17
 8000cba:	62a0      	str	r0, [r4, #40]	; 0x28
 8000cbc:	4620      	mov	r0, r4
 8000cbe:	f000 fd70 	bl	80017a2 <pid_scale>
 8000cc2:	eeb0 0a48 	vmov.f32	s0, s16
 8000cc6:	6220      	str	r0, [r4, #32]
 8000cc8:	4620      	mov	r0, r4
 8000cca:	f000 fd6a 	bl	80017a2 <pid_scale>
 8000cce:	eeb0 0a68 	vmov.f32	s0, s17
 8000cd2:	62e0      	str	r0, [r4, #44]	; 0x2c
 8000cd4:	4620      	mov	r0, r4
 8000cd6:	f000 fd64 	bl	80017a2 <pid_scale>
 8000cda:	eeb0 0a48 	vmov.f32	s0, s16
 8000cde:	64a0      	str	r0, [r4, #72]	; 0x48
 8000ce0:	4620      	mov	r0, r4
 8000ce2:	f000 fd5e 	bl	80017a2 <pid_scale>
 8000ce6:	ecbd 8b04 	vpop	{d8-d9}
 8000cea:	64e0      	str	r0, [r4, #76]	; 0x4c
 8000cec:	bdf8      	pop	{r3, r4, r5, r6, r7, pc}
 8000cee:	bf00      	nop
 8000cf0:	20000354 	.word	0x20000354
 8000cf4:	20000352 	.word	0x20000352
 8000cf8:	20000350 	.word	0x20000350
 8000cfc:	20000954 	.word	0x20000954
 8000d00:	3c23d70a 	.word	0x3c23d70a
 8000d04:	3dcccccd 	.word	0x3dcccccd
 8000d08:	461c3c00 	.word	0x461c3c00
 8000d0c:	c61c3c00 	.word	0xc61c3c00
 8000d10:	20000b18 	.word	0x20000b18

08000d14 <PT_change_sensor>:
 8000d14:	b508      	push	{r3, lr}
 8000d16:	4602      	mov	r2, r0
 8000d18:	b998      	cbnz	r0, 8000d42 <PT_change_sensor+0x2e>
 8000d1a:	2200      	movs	r2, #0
 8000d1c:	f44f 5100 	mov.w	r1, #8192	; 0x2000
 8000d20:	481b      	ldr	r0, [pc, #108]	; (8000d90 <PT_change_sensor+0x7c>)
 8000d22:	f004 fa0b 	bl	800513c <HAL_GPIO_WritePin>
 8000d26:	2200      	movs	r2, #0
 8000d28:	f44f 4180 	mov.w	r1, #16384	; 0x4000
 8000d2c:	4818      	ldr	r0, [pc, #96]	; (8000d90 <PT_change_sensor+0x7c>)
 8000d2e:	f004 fa05 	bl	800513c <HAL_GPIO_WritePin>
 8000d32:	2200      	movs	r2, #0
 8000d34:	f44f 4100 	mov.w	r1, #32768	; 0x8000
 8000d38:	4815      	ldr	r0, [pc, #84]	; (8000d90 <PT_change_sensor+0x7c>)
 8000d3a:	e8bd 4008 	ldmia.w	sp!, {r3, lr}
 8000d3e:	f004 b9fd 	b.w	800513c <HAL_GPIO_WritePin>
 8000d42:	2801      	cmp	r0, #1
 8000d44:	d0ea      	beq.n	8000d1c <PT_change_sensor+0x8>
 8000d46:	2802      	cmp	r0, #2
 8000d48:	d107      	bne.n	8000d5a <PT_change_sensor+0x46>
 8000d4a:	2200      	movs	r2, #0
 8000d4c:	f44f 5100 	mov.w	r1, #8192	; 0x2000
 8000d50:	480f      	ldr	r0, [pc, #60]	; (8000d90 <PT_change_sensor+0x7c>)
 8000d52:	f004 f9f3 	bl	800513c <HAL_GPIO_WritePin>
 8000d56:	2201      	movs	r2, #1
 8000d58:	e7e6      	b.n	8000d28 <PT_change_sensor+0x14>
 8000d5a:	2803      	cmp	r0, #3
 8000d5c:	d101      	bne.n	8000d62 <PT_change_sensor+0x4e>
 8000d5e:	2201      	movs	r2, #1
 8000d60:	e7f4      	b.n	8000d4c <PT_change_sensor+0x38>
 8000d62:	2804      	cmp	r0, #4
 8000d64:	d0d9      	beq.n	8000d1a <PT_change_sensor+0x6>
 8000d66:	2805      	cmp	r0, #5
 8000d68:	f04f 0201 	mov.w	r2, #1
 8000d6c:	f44f 5100 	mov.w	r1, #8192	; 0x2000
 8000d70:	4807      	ldr	r0, [pc, #28]	; (8000d90 <PT_change_sensor+0x7c>)
 8000d72:	d109      	bne.n	8000d88 <PT_change_sensor+0x74>
 8000d74:	f004 f9e2 	bl	800513c <HAL_GPIO_WritePin>
 8000d78:	2200      	movs	r2, #0
 8000d7a:	f44f 4180 	mov.w	r1, #16384	; 0x4000
 8000d7e:	4804      	ldr	r0, [pc, #16]	; (8000d90 <PT_change_sensor+0x7c>)
 8000d80:	f004 f9dc 	bl	800513c <HAL_GPIO_WritePin>
 8000d84:	2201      	movs	r2, #1
 8000d86:	e7d5      	b.n	8000d34 <PT_change_sensor+0x20>
 8000d88:	f004 f9d8 	bl	800513c <HAL_GPIO_WritePin>
 8000d8c:	2201      	movs	r2, #1
 8000d8e:	e7f4      	b.n	8000d7a <PT_change_sensor+0x66>
 8000d90:	40020800 	.word	0x40020800

08000d94 <IR_set>:
 8000d94:	b510      	push	{r4, lr}
 8000d96:	b9b0      	cbnz	r0, 8000dc6 <IR_set+0x32>
 8000d98:	4602      	mov	r2, r0
 8000d9a:	f100 4080 	add.w	r0, r0, #1073741824	; 0x40000000
 8000d9e:	f44f 4100 	mov.w	r1, #32768	; 0x8000
 8000da2:	f500 3001 	add.w	r0, r0, #132096	; 0x20400
 8000da6:	f004 f9c9 	bl	800513c <HAL_GPIO_WritePin>
 8000daa:	2200      	movs	r2, #0
 8000dac:	f44f 4180 	mov.w	r1, #16384	; 0x4000
 8000db0:	480a      	ldr	r0, [pc, #40]	; (8000ddc <IR_set+0x48>)
 8000db2:	f004 f9c3 	bl	800513c <HAL_GPIO_WritePin>
 8000db6:	2200      	movs	r2, #0
 8000db8:	f44f 5100 	mov.w	r1, #8192	; 0x2000
 8000dbc:	4807      	ldr	r0, [pc, #28]	; (8000ddc <IR_set+0x48>)
 8000dbe:	e8bd 4010 	ldmia.w	sp!, {r4, lr}
 8000dc2:	f004 b9bb 	b.w	800513c <HAL_GPIO_WritePin>
 8000dc6:	2801      	cmp	r0, #1
 8000dc8:	d104      	bne.n	8000dd4 <IR_set+0x40>
 8000dca:	4602      	mov	r2, r0
 8000dcc:	f44f 4100 	mov.w	r1, #32768	; 0x8000
 8000dd0:	4802      	ldr	r0, [pc, #8]	; (8000ddc <IR_set+0x48>)
 8000dd2:	e7e8      	b.n	8000da6 <IR_set+0x12>
 8000dd4:	e8bd 4010 	ldmia.w	sp!, {r4, lr}
 8000dd8:	f7ff bc6e 	b.w	80006b8 <IR_set.part.1>
 8000ddc:	40020400 	.word	0x40020400

08000de0 <SystemClock_Config>:
 8000de0:	b570      	push	{r4, r5, r6, lr}
 8000de2:	2414      	movs	r4, #20
 8000de4:	b094      	sub	sp, #80	; 0x50
 8000de6:	4622      	mov	r2, r4
 8000de8:	2100      	movs	r1, #0
 8000dea:	a809      	add	r0, sp, #36	; 0x24
 8000dec:	f006 f8a3 	bl	8006f36 <memset>
 8000df0:	4622      	mov	r2, r4
 8000df2:	2100      	movs	r1, #0
 8000df4:	a803      	add	r0, sp, #12
 8000df6:	f006 f89e 	bl	8006f36 <memset>
 8000dfa:	2400      	movs	r4, #0
 8000dfc:	4b1a      	ldr	r3, [pc, #104]	; (8000e68 <SystemClock_Config+0x88>)
 8000dfe:	9401      	str	r4, [sp, #4]
 8000e00:	6c1a      	ldr	r2, [r3, #64]	; 0x40
 8000e02:	f042 5280 	orr.w	r2, r2, #268435456	; 0x10000000
 8000e06:	641a      	str	r2, [r3, #64]	; 0x40
 8000e08:	6c1b      	ldr	r3, [r3, #64]	; 0x40
 8000e0a:	f003 5380 	and.w	r3, r3, #268435456	; 0x10000000
 8000e0e:	9301      	str	r3, [sp, #4]
 8000e10:	9b01      	ldr	r3, [sp, #4]
 8000e12:	4b16      	ldr	r3, [pc, #88]	; (8000e6c <SystemClock_Config+0x8c>)
 8000e14:	9402      	str	r4, [sp, #8]
 8000e16:	681a      	ldr	r2, [r3, #0]
 8000e18:	f442 4240 	orr.w	r2, r2, #49152	; 0xc000
 8000e1c:	601a      	str	r2, [r3, #0]
 8000e1e:	681b      	ldr	r3, [r3, #0]
 8000e20:	f403 4340 	and.w	r3, r3, #49152	; 0xc000
 8000e24:	9302      	str	r3, [sp, #8]
 8000e26:	9b02      	ldr	r3, [sp, #8]
 8000e28:	2601      	movs	r6, #1
 8000e2a:	2310      	movs	r3, #16
 8000e2c:	2208      	movs	r2, #8
 8000e2e:	e9cd 630b 	strd	r6, r3, [sp, #44]	; 0x2c
 8000e32:	2360      	movs	r3, #96	; 0x60
 8000e34:	2502      	movs	r5, #2
 8000e36:	e9cd 2310 	strd	r2, r3, [sp, #64]	; 0x40
 8000e3a:	a808      	add	r0, sp, #32
 8000e3c:	2304      	movs	r3, #4
 8000e3e:	9313      	str	r3, [sp, #76]	; 0x4c
 8000e40:	9508      	str	r5, [sp, #32]
 8000e42:	e9cd 540e 	strd	r5, r4, [sp, #56]	; 0x38
 8000e46:	9512      	str	r5, [sp, #72]	; 0x48
 8000e48:	f004 fd84 	bl	8005954 <HAL_RCC_OscConfig>
 8000e4c:	230f      	movs	r3, #15
 8000e4e:	e9cd 3503 	strd	r3, r5, [sp, #12]
 8000e52:	4631      	mov	r1, r6
 8000e54:	2380      	movs	r3, #128	; 0x80
 8000e56:	a803      	add	r0, sp, #12
 8000e58:	e9cd 3405 	strd	r3, r4, [sp, #20]
 8000e5c:	9407      	str	r4, [sp, #28]
 8000e5e:	f004 ff4d 	bl	8005cfc <HAL_RCC_ClockConfig>
 8000e62:	b014      	add	sp, #80	; 0x50
 8000e64:	bd70      	pop	{r4, r5, r6, pc}
 8000e66:	bf00      	nop
 8000e68:	40023800 	.word	0x40023800
 8000e6c:	40007000 	.word	0x40007000

08000e70 <main>:
 8000e70:	e92d 4ff0 	stmdb	sp!, {r4, r5, r6, r7, r8, r9, sl, fp, lr}
 8000e74:	b09f      	sub	sp, #124	; 0x7c
 8000e76:	2400      	movs	r4, #0
 8000e78:	4fca      	ldr	r7, [pc, #808]	; (80011a4 <main+0x334>)
 8000e7a:	f8df 836c 	ldr.w	r8, [pc, #876]	; 80011e8 <main+0x378>
 8000e7e:	f003 fc39 	bl	80046f4 <HAL_Init>
 8000e82:	f7ff ffad 	bl	8000de0 <SystemClock_Config>
 8000e86:	2214      	movs	r2, #20
 8000e88:	2100      	movs	r1, #0
 8000e8a:	a815      	add	r0, sp, #84	; 0x54
 8000e8c:	f006 f853 	bl	8006f36 <memset>
 8000e90:	9403      	str	r4, [sp, #12]
 8000e92:	6b3b      	ldr	r3, [r7, #48]	; 0x30
 8000e94:	48c4      	ldr	r0, [pc, #784]	; (80011a8 <main+0x338>)
 8000e96:	f043 0304 	orr.w	r3, r3, #4
 8000e9a:	633b      	str	r3, [r7, #48]	; 0x30
 8000e9c:	6b3b      	ldr	r3, [r7, #48]	; 0x30
 8000e9e:	f003 0304 	and.w	r3, r3, #4
 8000ea2:	9303      	str	r3, [sp, #12]
 8000ea4:	9b03      	ldr	r3, [sp, #12]
 8000ea6:	9404      	str	r4, [sp, #16]
 8000ea8:	6b3b      	ldr	r3, [r7, #48]	; 0x30
 8000eaa:	f043 0380 	orr.w	r3, r3, #128	; 0x80
 8000eae:	633b      	str	r3, [r7, #48]	; 0x30
 8000eb0:	6b3b      	ldr	r3, [r7, #48]	; 0x30
 8000eb2:	f003 0380 	and.w	r3, r3, #128	; 0x80
 8000eb6:	9304      	str	r3, [sp, #16]
 8000eb8:	9b04      	ldr	r3, [sp, #16]
 8000eba:	9405      	str	r4, [sp, #20]
 8000ebc:	6b3b      	ldr	r3, [r7, #48]	; 0x30
 8000ebe:	f043 0301 	orr.w	r3, r3, #1
 8000ec2:	633b      	str	r3, [r7, #48]	; 0x30
 8000ec4:	6b3b      	ldr	r3, [r7, #48]	; 0x30
 8000ec6:	f003 0301 	and.w	r3, r3, #1
 8000eca:	9305      	str	r3, [sp, #20]
 8000ecc:	9b05      	ldr	r3, [sp, #20]
 8000ece:	9406      	str	r4, [sp, #24]
 8000ed0:	6b3b      	ldr	r3, [r7, #48]	; 0x30
 8000ed2:	f043 0302 	orr.w	r3, r3, #2
 8000ed6:	633b      	str	r3, [r7, #48]	; 0x30
 8000ed8:	6b3b      	ldr	r3, [r7, #48]	; 0x30
 8000eda:	f003 0302 	and.w	r3, r3, #2
 8000ede:	9306      	str	r3, [sp, #24]
 8000ee0:	9b06      	ldr	r3, [sp, #24]
 8000ee2:	9407      	str	r4, [sp, #28]
 8000ee4:	6b3b      	ldr	r3, [r7, #48]	; 0x30
 8000ee6:	f043 0308 	orr.w	r3, r3, #8
 8000eea:	633b      	str	r3, [r7, #48]	; 0x30
 8000eec:	6b3b      	ldr	r3, [r7, #48]	; 0x30
 8000eee:	f003 0308 	and.w	r3, r3, #8
 8000ef2:	4622      	mov	r2, r4
 8000ef4:	9307      	str	r3, [sp, #28]
 8000ef6:	f64f 7108 	movw	r1, #65288	; 0xff08
 8000efa:	9b07      	ldr	r3, [sp, #28]
 8000efc:	f004 f91e 	bl	800513c <HAL_GPIO_WritePin>
 8000f00:	4622      	mov	r2, r4
 8000f02:	f24e 4106 	movw	r1, #58374	; 0xe406
 8000f06:	48a9      	ldr	r0, [pc, #676]	; (80011ac <main+0x33c>)
 8000f08:	f004 f918 	bl	800513c <HAL_GPIO_WritePin>
 8000f0c:	4622      	mov	r2, r4
 8000f0e:	f44f 6140 	mov.w	r1, #3072	; 0xc00
 8000f12:	48a7      	ldr	r0, [pc, #668]	; (80011b0 <main+0x340>)
 8000f14:	2501      	movs	r5, #1
 8000f16:	f004 f911 	bl	800513c <HAL_GPIO_WritePin>
 8000f1a:	f44f 4660 	mov.w	r6, #57344	; 0xe000
 8000f1e:	2302      	movs	r3, #2
 8000f20:	a915      	add	r1, sp, #84	; 0x54
 8000f22:	48a1      	ldr	r0, [pc, #644]	; (80011a8 <main+0x338>)
 8000f24:	e9cd 6515 	strd	r6, r5, [sp, #84]	; 0x54
 8000f28:	e9cd 3417 	strd	r3, r4, [sp, #92]	; 0x5c
 8000f2c:	f004 f838 	bl	8004fa0 <HAL_GPIO_Init>
 8000f30:	2302      	movs	r3, #2
 8000f32:	a915      	add	r1, sp, #84	; 0x54
 8000f34:	489f      	ldr	r0, [pc, #636]	; (80011b4 <main+0x344>)
 8000f36:	9417      	str	r4, [sp, #92]	; 0x5c
 8000f38:	f04f 0907 	mov.w	r9, #7
 8000f3c:	e9cd 3415 	strd	r3, r4, [sp, #84]	; 0x54
 8000f40:	f004 f82e 	bl	8004fa0 <HAL_GPIO_Init>
 8000f44:	a915      	add	r1, sp, #84	; 0x54
 8000f46:	4898      	ldr	r0, [pc, #608]	; (80011a8 <main+0x338>)
 8000f48:	9417      	str	r4, [sp, #92]	; 0x5c
 8000f4a:	e9cd 9815 	strd	r9, r8, [sp, #84]	; 0x54
 8000f4e:	f004 f827 	bl	8004fa0 <HAL_GPIO_Init>
 8000f52:	f641 7308 	movw	r3, #7944	; 0x1f08
 8000f56:	a915      	add	r1, sp, #84	; 0x54
 8000f58:	4893      	ldr	r0, [pc, #588]	; (80011a8 <main+0x338>)
 8000f5a:	e9cd 3515 	strd	r3, r5, [sp, #84]	; 0x54
 8000f5e:	e9cd 4417 	strd	r4, r4, [sp, #92]	; 0x5c
 8000f62:	f004 f81d 	bl	8004fa0 <HAL_GPIO_Init>
 8000f66:	f240 4306 	movw	r3, #1030	; 0x406
 8000f6a:	a915      	add	r1, sp, #84	; 0x54
 8000f6c:	488f      	ldr	r0, [pc, #572]	; (80011ac <main+0x33c>)
 8000f6e:	e9cd 3515 	strd	r3, r5, [sp, #84]	; 0x54
 8000f72:	e9cd 5417 	strd	r5, r4, [sp, #92]	; 0x5c
 8000f76:	f004 f813 	bl	8004fa0 <HAL_GPIO_Init>
 8000f7a:	2302      	movs	r3, #2
 8000f7c:	a915      	add	r1, sp, #84	; 0x54
 8000f7e:	488b      	ldr	r0, [pc, #556]	; (80011ac <main+0x33c>)
 8000f80:	e9cd 6515 	strd	r6, r5, [sp, #84]	; 0x54
 8000f84:	e9cd 3417 	strd	r3, r4, [sp, #92]	; 0x5c
 8000f88:	f004 f80a 	bl	8004fa0 <HAL_GPIO_Init>
 8000f8c:	f44f 6340 	mov.w	r3, #3072	; 0xc00
 8000f90:	a915      	add	r1, sp, #84	; 0x54
 8000f92:	4887      	ldr	r0, [pc, #540]	; (80011b0 <main+0x340>)
 8000f94:	e9cd 3515 	strd	r3, r5, [sp, #84]	; 0x54
 8000f98:	f44f 5680 	mov.w	r6, #4096	; 0x1000
 8000f9c:	e9cd 4417 	strd	r4, r4, [sp, #92]	; 0x5c
 8000fa0:	f003 fffe 	bl	8004fa0 <HAL_GPIO_Init>
 8000fa4:	a915      	add	r1, sp, #84	; 0x54
 8000fa6:	4882      	ldr	r0, [pc, #520]	; (80011b0 <main+0x340>)
 8000fa8:	9417      	str	r4, [sp, #92]	; 0x5c
 8000faa:	e9cd 6815 	strd	r6, r8, [sp, #84]	; 0x54
 8000fae:	f003 fff7 	bl	8004fa0 <HAL_GPIO_Init>
 8000fb2:	2304      	movs	r3, #4
 8000fb4:	a915      	add	r1, sp, #84	; 0x54
 8000fb6:	4880      	ldr	r0, [pc, #512]	; (80011b8 <main+0x348>)
 8000fb8:	9417      	str	r4, [sp, #92]	; 0x5c
 8000fba:	e9cd 3415 	strd	r3, r4, [sp, #84]	; 0x54
 8000fbe:	f003 ffef 	bl	8004fa0 <HAL_GPIO_Init>
 8000fc2:	4622      	mov	r2, r4
 8000fc4:	4621      	mov	r1, r4
 8000fc6:	2006      	movs	r0, #6
 8000fc8:	f003 fdf4 	bl	8004bb4 <HAL_NVIC_SetPriority>
 8000fcc:	2006      	movs	r0, #6
 8000fce:	f003 fe25 	bl	8004c1c <HAL_NVIC_EnableIRQ>
 8000fd2:	4622      	mov	r2, r4
 8000fd4:	4621      	mov	r1, r4
 8000fd6:	4648      	mov	r0, r9
 8000fd8:	f003 fdec 	bl	8004bb4 <HAL_NVIC_SetPriority>
 8000fdc:	4648      	mov	r0, r9
 8000fde:	f003 fe1d 	bl	8004c1c <HAL_NVIC_EnableIRQ>
 8000fe2:	4622      	mov	r2, r4
 8000fe4:	4621      	mov	r1, r4
 8000fe6:	2008      	movs	r0, #8
 8000fe8:	f003 fde4 	bl	8004bb4 <HAL_NVIC_SetPriority>
 8000fec:	2008      	movs	r0, #8
 8000fee:	f003 fe15 	bl	8004c1c <HAL_NVIC_EnableIRQ>
 8000ff2:	4622      	mov	r2, r4
 8000ff4:	4621      	mov	r1, r4
 8000ff6:	2028      	movs	r0, #40	; 0x28
 8000ff8:	f003 fddc 	bl	8004bb4 <HAL_NVIC_SetPriority>
 8000ffc:	2028      	movs	r0, #40	; 0x28
 8000ffe:	f003 fe0d 	bl	8004c1c <HAL_NVIC_EnableIRQ>
 8001002:	9402      	str	r4, [sp, #8]
 8001004:	6b3b      	ldr	r3, [r7, #48]	; 0x30
 8001006:	f8df 81e4 	ldr.w	r8, [pc, #484]	; 80011ec <main+0x37c>
 800100a:	f443 0380 	orr.w	r3, r3, #4194304	; 0x400000
 800100e:	633b      	str	r3, [r7, #48]	; 0x30
 8001010:	6b3b      	ldr	r3, [r7, #48]	; 0x30
 8001012:	f403 0380 	and.w	r3, r3, #4194304	; 0x400000
 8001016:	4621      	mov	r1, r4
 8001018:	4622      	mov	r2, r4
 800101a:	9302      	str	r3, [sp, #8]
 800101c:	2038      	movs	r0, #56	; 0x38
 800101e:	9b02      	ldr	r3, [sp, #8]
 8001020:	f003 fdc8 	bl	8004bb4 <HAL_NVIC_SetPriority>
 8001024:	2038      	movs	r0, #56	; 0x38
 8001026:	f003 fdf9 	bl	8004c1c <HAL_NVIC_EnableIRQ>
 800102a:	4a64      	ldr	r2, [pc, #400]	; (80011bc <main+0x34c>)
 800102c:	4b64      	ldr	r3, [pc, #400]	; (80011c0 <main+0x350>)
 800102e:	f8c8 4020 	str.w	r4, [r8, #32]
 8001032:	e9c8 2300 	strd	r2, r3, [r8]
 8001036:	4640      	mov	r0, r8
 8001038:	f44f 4380 	mov.w	r3, #16384	; 0x4000
 800103c:	e9c8 3404 	strd	r3, r4, [r8, #16]
 8001040:	e9c8 4402 	strd	r4, r4, [r8, #8]
 8001044:	e9c8 4406 	strd	r4, r4, [r8, #24]
 8001048:	f004 f990 	bl	800536c <HAL_I2C_Init>
 800104c:	4a5d      	ldr	r2, [pc, #372]	; (80011c4 <main+0x354>)
 800104e:	4b5e      	ldr	r3, [pc, #376]	; (80011c8 <main+0x358>)
 8001050:	6013      	str	r3, [r2, #0]
 8001052:	270c      	movs	r7, #12
 8001054:	f44f 5316 	mov.w	r3, #9600	; 0x2580
 8001058:	4610      	mov	r0, r2
 800105a:	e9c2 3401 	strd	r3, r4, [r2, #4]
 800105e:	e9c2 7405 	strd	r7, r4, [r2, #20]
 8001062:	60d4      	str	r4, [r2, #12]
 8001064:	6114      	str	r4, [r2, #16]
 8001066:	61d4      	str	r4, [r2, #28]
 8001068:	f005 fbbc 	bl	80067e4 <HAL_UART_Init>
 800106c:	4857      	ldr	r0, [pc, #348]	; (80011cc <main+0x35c>)
 800106e:	4958      	ldr	r1, [pc, #352]	; (80011d0 <main+0x360>)
 8001070:	f44f 33e1 	mov.w	r3, #115200	; 0x1c200
 8001074:	f04f 0b10 	mov.w	fp, #16
 8001078:	e9c0 1300 	strd	r1, r3, [r0]
 800107c:	e9c0 4704 	strd	r4, r7, [r0, #16]
 8001080:	e9c0 4402 	strd	r4, r4, [r0, #8]
 8001084:	e9c0 4406 	strd	r4, r4, [r0, #24]
 8001088:	f005 fbac 	bl	80067e4 <HAL_UART_Init>
 800108c:	465a      	mov	r2, fp
 800108e:	4621      	mov	r1, r4
 8001090:	a80a      	add	r0, sp, #40	; 0x28
 8001092:	f005 ff50 	bl	8006f36 <memset>
 8001096:	4621      	mov	r1, r4
 8001098:	221c      	movs	r2, #28
 800109a:	a80e      	add	r0, sp, #56	; 0x38
 800109c:	e9cd 4408 	strd	r4, r4, [sp, #32]
 80010a0:	f005 ff49 	bl	8006f36 <memset>
 80010a4:	2220      	movs	r2, #32
 80010a6:	4621      	mov	r1, r4
 80010a8:	a815      	add	r0, sp, #84	; 0x54
 80010aa:	4f4a      	ldr	r7, [pc, #296]	; (80011d4 <main+0x364>)
 80010ac:	f005 ff43 	bl	8006f36 <memset>
 80010b0:	4b49      	ldr	r3, [pc, #292]	; (80011d8 <main+0x368>)
 80010b2:	60bc      	str	r4, [r7, #8]
 80010b4:	f04f 0a18 	mov.w	sl, #24
 80010b8:	e9c7 3a00 	strd	r3, sl, [r7]
 80010bc:	4638      	mov	r0, r7
 80010be:	f242 730f 	movw	r3, #9999	; 0x270f
 80010c2:	e9c7 3403 	strd	r3, r4, [r7, #12]
 80010c6:	e9c7 4405 	strd	r4, r4, [r7, #20]
 80010ca:	f005 f8ab 	bl	8006224 <HAL_TIM_Base_Init>
 80010ce:	a90a      	add	r1, sp, #40	; 0x28
 80010d0:	4638      	mov	r0, r7
 80010d2:	960a      	str	r6, [sp, #40]	; 0x28
 80010d4:	f005 f9be 	bl	8006454 <HAL_TIM_ConfigClockSource>
 80010d8:	4638      	mov	r0, r7
 80010da:	f005 f8bd 	bl	8006258 <HAL_TIM_PWM_Init>
 80010de:	a908      	add	r1, sp, #32
 80010e0:	4638      	mov	r0, r7
 80010e2:	e9cd 4408 	strd	r4, r4, [sp, #32]
 80010e6:	f005 fa75 	bl	80065d4 <HAL_TIMEx_MasterConfigSynchronization>
 80010ea:	2360      	movs	r3, #96	; 0x60
 80010ec:	4622      	mov	r2, r4
 80010ee:	a90e      	add	r1, sp, #56	; 0x38
 80010f0:	4638      	mov	r0, r7
 80010f2:	e9cd 340e 	strd	r3, r4, [sp, #56]	; 0x38
 80010f6:	e9cd 4410 	strd	r4, r4, [sp, #64]	; 0x40
 80010fa:	e9cd 4412 	strd	r4, r4, [sp, #72]	; 0x48
 80010fe:	9414      	str	r4, [sp, #80]	; 0x50
 8001100:	f005 f93c 	bl	800637c <HAL_TIM_PWM_ConfigChannel>
 8001104:	2204      	movs	r2, #4
 8001106:	a90e      	add	r1, sp, #56	; 0x38
 8001108:	4638      	mov	r0, r7
 800110a:	f005 f937 	bl	800637c <HAL_TIM_PWM_ConfigChannel>
 800110e:	f44f 5300 	mov.w	r3, #8192	; 0x2000
 8001112:	a915      	add	r1, sp, #84	; 0x54
 8001114:	4638      	mov	r0, r7
 8001116:	931a      	str	r3, [sp, #104]	; 0x68
 8001118:	e9cd 4415 	strd	r4, r4, [sp, #84]	; 0x54
 800111c:	e9cd 4417 	strd	r4, r4, [sp, #92]	; 0x5c
 8001120:	9419      	str	r4, [sp, #100]	; 0x64
 8001122:	941c      	str	r4, [sp, #112]	; 0x70
 8001124:	f005 fa90 	bl	8006648 <HAL_TIMEx_ConfigBreakDeadTime>
 8001128:	4638      	mov	r0, r7
 800112a:	f000 fced 	bl	8001b08 <HAL_TIM_MspPostInit>
 800112e:	465a      	mov	r2, fp
 8001130:	4621      	mov	r1, r4
 8001132:	a815      	add	r0, sp, #84	; 0x54
 8001134:	f005 feff 	bl	8006f36 <memset>
 8001138:	4e28      	ldr	r6, [pc, #160]	; (80011dc <main+0x36c>)
 800113a:	4829      	ldr	r0, [pc, #164]	; (80011e0 <main+0x370>)
 800113c:	60b4      	str	r4, [r6, #8]
 800113e:	f44f 3340 	mov.w	r3, #196608	; 0x30000
 8001142:	e9c6 0300 	strd	r0, r3, [r6]
 8001146:	4b27      	ldr	r3, [pc, #156]	; (80011e4 <main+0x374>)
 8001148:	62b3      	str	r3, [r6, #40]	; 0x28
 800114a:	4630      	mov	r0, r6
 800114c:	2306      	movs	r3, #6
 800114e:	61f3      	str	r3, [r6, #28]
 8001150:	6135      	str	r5, [r6, #16]
 8001152:	7635      	strb	r5, [r6, #24]
 8001154:	f886 4020 	strb.w	r4, [r6, #32]
 8001158:	62f4      	str	r4, [r6, #44]	; 0x2c
 800115a:	60f4      	str	r4, [r6, #12]
 800115c:	f886 5030 	strb.w	r5, [r6, #48]	; 0x30
 8001160:	6175      	str	r5, [r6, #20]
 8001162:	f003 fb07 	bl	8004774 <HAL_ADC_Init>
 8001166:	a915      	add	r1, sp, #84	; 0x54
 8001168:	4630      	mov	r0, r6
 800116a:	e9cd 4515 	strd	r4, r5, [sp, #84]	; 0x54
 800116e:	f8cd 905c 	str.w	r9, [sp, #92]	; 0x5c
 8001172:	f003 fc6f 	bl	8004a54 <HAL_ADC_ConfigChannel>
 8001176:	f04f 0c0f 	mov.w	ip, #15
 800117a:	2302      	movs	r3, #2
 800117c:	a915      	add	r1, sp, #84	; 0x54
 800117e:	4630      	mov	r0, r6
 8001180:	e9cd c315 	strd	ip, r3, [sp, #84]	; 0x54
 8001184:	f04f 0903 	mov.w	r9, #3
 8001188:	f003 fc64 	bl	8004a54 <HAL_ADC_ConfigChannel>
 800118c:	2302      	movs	r3, #2
 800118e:	a915      	add	r1, sp, #84	; 0x54
 8001190:	4630      	mov	r0, r6
 8001192:	e9cd 3915 	strd	r3, r9, [sp, #84]	; 0x54
 8001196:	f003 fc5d 	bl	8004a54 <HAL_ADC_ConfigChannel>
 800119a:	2304      	movs	r3, #4
 800119c:	a915      	add	r1, sp, #84	; 0x54
 800119e:	4630      	mov	r0, r6
 80011a0:	e026      	b.n	80011f0 <main+0x380>
 80011a2:	bf00      	nop
 80011a4:	40023800 	.word	0x40023800
 80011a8:	40020800 	.word	0x40020800
 80011ac:	40020400 	.word	0x40020400
 80011b0:	40020000 	.word	0x40020000
 80011b4:	40021c00 	.word	0x40021c00
 80011b8:	40020c00 	.word	0x40020c00
 80011bc:	40005400 	.word	0x40005400
 80011c0:	000186a0 	.word	0x000186a0
 80011c4:	200009ac 	.word	0x200009ac
 80011c8:	40011000 	.word	0x40011000
 80011cc:	20000ad8 	.word	0x20000ad8
 80011d0:	40011400 	.word	0x40011400
 80011d4:	20000a98 	.word	0x20000a98
 80011d8:	40010000 	.word	0x40010000
 80011dc:	200008dc 	.word	0x200008dc
 80011e0:	40012000 	.word	0x40012000
 80011e4:	0f000001 	.word	0x0f000001
 80011e8:	10110000 	.word	0x10110000
 80011ec:	200007f8 	.word	0x200007f8
 80011f0:	f8cd 9054 	str.w	r9, [sp, #84]	; 0x54
 80011f4:	9316      	str	r3, [sp, #88]	; 0x58
 80011f6:	f04f 0905 	mov.w	r9, #5
 80011fa:	f003 fc2b 	bl	8004a54 <HAL_ADC_ConfigChannel>
 80011fe:	2304      	movs	r3, #4
 8001200:	a915      	add	r1, sp, #84	; 0x54
 8001202:	4630      	mov	r0, r6
 8001204:	e9cd 3915 	strd	r3, r9, [sp, #84]	; 0x54
 8001208:	f003 fc24 	bl	8004a54 <HAL_ADC_ConfigChannel>
 800120c:	f8cd 9054 	str.w	r9, [sp, #84]	; 0x54
 8001210:	f10d 0978 	add.w	r9, sp, #120	; 0x78
 8001214:	2306      	movs	r3, #6
 8001216:	a915      	add	r1, sp, #84	; 0x54
 8001218:	4630      	mov	r0, r6
 800121a:	f849 3d20 	str.w	r3, [r9, #-32]!
 800121e:	f003 fc19 	bl	8004a54 <HAL_ADC_ConfigChannel>
 8001222:	f8df e374 	ldr.w	lr, [pc, #884]	; 8001598 <main+0x728>
 8001226:	48c3      	ldr	r0, [pc, #780]	; (8001534 <main+0x6c4>)
 8001228:	f44f 7382 	mov.w	r3, #260	; 0x104
 800122c:	e9c0 e300 	strd	lr, r3, [r0]
 8001230:	f44f 7300 	mov.w	r3, #512	; 0x200
 8001234:	e9c0 3a06 	strd	r3, sl, [r0, #24]
 8001238:	230a      	movs	r3, #10
 800123a:	f8df a360 	ldr.w	sl, [pc, #864]	; 800159c <main+0x72c>
 800123e:	62c3      	str	r3, [r0, #44]	; 0x2c
 8001240:	e9c0 4402 	strd	r4, r4, [r0, #8]
 8001244:	e9c0 4404 	strd	r4, r4, [r0, #16]
 8001248:	e9c0 4408 	strd	r4, r4, [r0, #32]
 800124c:	6284      	str	r4, [r0, #40]	; 0x28
 800124e:	f004 fe0f 	bl	8005e70 <HAL_SPI_Init>
 8001252:	221c      	movs	r2, #28
 8001254:	4621      	mov	r1, r4
 8001256:	4648      	mov	r0, r9
 8001258:	f005 fe6d 	bl	8006f36 <memset>
 800125c:	f04f 4380 	mov.w	r3, #1073741824	; 0x40000000
 8001260:	e9ca 3400 	strd	r3, r4, [sl]
 8001264:	f8ca b008 	str.w	fp, [sl, #8]
 8001268:	2302      	movs	r3, #2
 800126a:	f64f 7bff 	movw	fp, #65535	; 0xffff
 800126e:	a915      	add	r1, sp, #84	; 0x54
 8001270:	4650      	mov	r0, sl
 8001272:	9319      	str	r3, [sp, #100]	; 0x64
 8001274:	931d      	str	r3, [sp, #116]	; 0x74
 8001276:	e9ca b403 	strd	fp, r4, [sl, #12]
 800127a:	e9cd 440e 	strd	r4, r4, [sp, #56]	; 0x38
 800127e:	f8ca 4018 	str.w	r4, [sl, #24]
 8001282:	9515      	str	r5, [sp, #84]	; 0x54
 8001284:	9517      	str	r5, [sp, #92]	; 0x5c
 8001286:	951b      	str	r5, [sp, #108]	; 0x6c
 8001288:	f005 f800 	bl	800628c <HAL_TIM_Encoder_Init>
 800128c:	a90e      	add	r1, sp, #56	; 0x38
 800128e:	4650      	mov	r0, sl
 8001290:	e9cd 440e 	strd	r4, r4, [sp, #56]	; 0x38
 8001294:	f005 f99e 	bl	80065d4 <HAL_TIMEx_MasterConfigSynchronization>
 8001298:	221c      	movs	r2, #28
 800129a:	4621      	mov	r1, r4
 800129c:	4648      	mov	r0, r9
 800129e:	f005 fe4a 	bl	8006f36 <memset>
 80012a2:	f8df 92fc 	ldr.w	r9, [pc, #764]	; 80015a0 <main+0x730>
 80012a6:	4ba4      	ldr	r3, [pc, #656]	; (8001538 <main+0x6c8>)
 80012a8:	f8c9 4010 	str.w	r4, [r9, #16]
 80012ac:	e9c9 3400 	strd	r3, r4, [r9]
 80012b0:	a915      	add	r1, sp, #84	; 0x54
 80012b2:	2302      	movs	r3, #2
 80012b4:	4648      	mov	r0, r9
 80012b6:	e9c9 4b02 	strd	r4, fp, [r9, #8]
 80012ba:	f8c9 4018 	str.w	r4, [r9, #24]
 80012be:	9319      	str	r3, [sp, #100]	; 0x64
 80012c0:	931d      	str	r3, [sp, #116]	; 0x74
 80012c2:	e9cd 440e 	strd	r4, r4, [sp, #56]	; 0x38
 80012c6:	9515      	str	r5, [sp, #84]	; 0x54
 80012c8:	9517      	str	r5, [sp, #92]	; 0x5c
 80012ca:	951b      	str	r5, [sp, #108]	; 0x6c
 80012cc:	f004 ffde 	bl	800628c <HAL_TIM_Encoder_Init>
 80012d0:	a90e      	add	r1, sp, #56	; 0x38
 80012d2:	4648      	mov	r0, r9
 80012d4:	e9cd 440e 	strd	r4, r4, [sp, #56]	; 0x38
 80012d8:	f8df b2c8 	ldr.w	fp, [pc, #712]	; 80015a4 <main+0x734>
 80012dc:	f005 f97a 	bl	80065d4 <HAL_TIMEx_MasterConfigSynchronization>
 80012e0:	4b96      	ldr	r3, [pc, #600]	; (800153c <main+0x6cc>)
 80012e2:	9301      	str	r3, [sp, #4]
 80012e4:	f240 72cf 	movw	r2, #1999	; 0x7cf
 80012e8:	e9c3 b200 	strd	fp, r2, [r3]
 80012ec:	4618      	mov	r0, r3
 80012ee:	f240 32e7 	movw	r2, #999	; 0x3e7
 80012f2:	f8df b2b4 	ldr.w	fp, [pc, #692]	; 80015a8 <main+0x738>
 80012f6:	609c      	str	r4, [r3, #8]
 80012f8:	e9c3 2403 	strd	r2, r4, [r3, #12]
 80012fc:	619c      	str	r4, [r3, #24]
 80012fe:	f004 ff91 	bl	8006224 <HAL_TIM_Base_Init>
 8001302:	4b8f      	ldr	r3, [pc, #572]	; (8001540 <main+0x6d0>)
 8001304:	f8cb 4008 	str.w	r4, [fp, #8]
 8001308:	f241 22bf 	movw	r2, #4799	; 0x12bf
 800130c:	e9cb 3200 	strd	r3, r2, [fp]
 8001310:	4658      	mov	r0, fp
 8001312:	f242 730f 	movw	r3, #9999	; 0x270f
 8001316:	e9cb 3403 	strd	r3, r4, [fp, #12]
 800131a:	f8cb 4018 	str.w	r4, [fp, #24]
 800131e:	f004 ff81 	bl	8006224 <HAL_TIM_Base_Init>
 8001322:	683a      	ldr	r2, [r7, #0]
 8001324:	4621      	mov	r1, r4
 8001326:	6354      	str	r4, [r2, #52]	; 0x34
 8001328:	4638      	mov	r0, r7
 800132a:	6394      	str	r4, [r2, #56]	; 0x38
 800132c:	f005 f950 	bl	80065d0 <HAL_TIM_PWM_Start>
 8001330:	2104      	movs	r1, #4
 8001332:	4638      	mov	r0, r7
 8001334:	f005 f94c 	bl	80065d0 <HAL_TIM_PWM_Start>
 8001338:	4622      	mov	r2, r4
 800133a:	f44f 7180 	mov.w	r1, #256	; 0x100
 800133e:	4881      	ldr	r0, [pc, #516]	; (8001544 <main+0x6d4>)
 8001340:	4f81      	ldr	r7, [pc, #516]	; (8001548 <main+0x6d8>)
 8001342:	f003 fefb 	bl	800513c <HAL_GPIO_WritePin>
 8001346:	462a      	mov	r2, r5
 8001348:	f44f 7100 	mov.w	r1, #512	; 0x200
 800134c:	487d      	ldr	r0, [pc, #500]	; (8001544 <main+0x6d4>)
 800134e:	f003 fef5 	bl	800513c <HAL_GPIO_WritePin>
 8001352:	4622      	mov	r2, r4
 8001354:	f44f 6100 	mov.w	r1, #2048	; 0x800
 8001358:	487c      	ldr	r0, [pc, #496]	; (800154c <main+0x6dc>)
 800135a:	4c7d      	ldr	r4, [pc, #500]	; (8001550 <main+0x6e0>)
 800135c:	f003 feee 	bl	800513c <HAL_GPIO_WritePin>
 8001360:	462a      	mov	r2, r5
 8001362:	f44f 6180 	mov.w	r1, #1024	; 0x400
 8001366:	4879      	ldr	r0, [pc, #484]	; (800154c <main+0x6dc>)
 8001368:	f003 fee8 	bl	800513c <HAL_GPIO_WritePin>
 800136c:	462a      	mov	r2, r5
 800136e:	f44f 6180 	mov.w	r1, #1024	; 0x400
 8001372:	4878      	ldr	r0, [pc, #480]	; (8001554 <main+0x6e4>)
 8001374:	f003 fee2 	bl	800513c <HAL_GPIO_WritePin>
 8001378:	462a      	mov	r2, r5
 800137a:	2104      	movs	r1, #4
 800137c:	4875      	ldr	r0, [pc, #468]	; (8001554 <main+0x6e4>)
 800137e:	f003 fedd 	bl	800513c <HAL_GPIO_WritePin>
 8001382:	462a      	mov	r2, r5
 8001384:	2102      	movs	r1, #2
 8001386:	4873      	ldr	r0, [pc, #460]	; (8001554 <main+0x6e4>)
 8001388:	f003 fed8 	bl	800513c <HAL_GPIO_WritePin>
 800138c:	462a      	mov	r2, r5
 800138e:	4972      	ldr	r1, [pc, #456]	; (8001558 <main+0x6e8>)
 8001390:	4872      	ldr	r0, [pc, #456]	; (800155c <main+0x6ec>)
 8001392:	4d73      	ldr	r5, [pc, #460]	; (8001560 <main+0x6f0>)
 8001394:	f005 fab0 	bl	80068f8 <HAL_UART_Receive_IT>
 8001398:	4640      	mov	r0, r8
 800139a:	f7ff f931 	bl	8000600 <VL_Init_All>
 800139e:	9b01      	ldr	r3, [sp, #4]
 80013a0:	4618      	mov	r0, r3
 80013a2:	f004 fe17 	bl	8005fd4 <HAL_TIM_Base_Start_IT>
 80013a6:	4658      	mov	r0, fp
 80013a8:	f004 fe14 	bl	8005fd4 <HAL_TIM_Base_Start_IT>
 80013ac:	213c      	movs	r1, #60	; 0x3c
 80013ae:	4648      	mov	r0, r9
 80013b0:	f004 fe21 	bl	8005ff6 <HAL_TIM_Encoder_Start>
 80013b4:	213c      	movs	r1, #60	; 0x3c
 80013b6:	4650      	mov	r0, sl
 80013b8:	f004 fe1d 	bl	8005ff6 <HAL_TIM_Encoder_Start>
 80013bc:	f8da 2000 	ldr.w	r2, [sl]
 80013c0:	f44f 4300 	mov.w	r3, #32768	; 0x8000
 80013c4:	6253      	str	r3, [r2, #36]	; 0x24
 80013c6:	f8d9 2000 	ldr.w	r2, [r9]
 80013ca:	f8df 9198 	ldr.w	r9, [pc, #408]	; 8001564 <main+0x6f4>
 80013ce:	6253      	str	r3, [r2, #36]	; 0x24
 80013d0:	8828      	ldrh	r0, [r5, #0]
 80013d2:	8821      	ldrh	r1, [r4, #0]
 80013d4:	883a      	ldrh	r2, [r7, #0]
 80013d6:	b209      	sxth	r1, r1
 80013d8:	b212      	sxth	r2, r2
 80013da:	b200      	sxth	r0, r0
 80013dc:	f7ff fbda 	bl	8000b94 <initialize_PID>
 80013e0:	4630      	mov	r0, r6
 80013e2:	2206      	movs	r2, #6
 80013e4:	495f      	ldr	r1, [pc, #380]	; (8001564 <main+0x6f4>)
 80013e6:	f003 fa6b 	bl	80048c0 <HAL_ADC_Start_DMA>
 80013ea:	4626      	mov	r6, r4
 80013ec:	464c      	mov	r4, r9
 80013ee:	4b5e      	ldr	r3, [pc, #376]	; (8001568 <main+0x6f8>)
 80013f0:	781a      	ldrb	r2, [r3, #0]
 80013f2:	2a01      	cmp	r2, #1
 80013f4:	bf04      	itt	eq
 80013f6:	2200      	moveq	r2, #0
 80013f8:	701a      	strbeq	r2, [r3, #0]
 80013fa:	f8b9 3000 	ldrh.w	r3, [r9]
 80013fe:	f640 228b 	movw	r2, #2699	; 0xa8b
 8001402:	429a      	cmp	r2, r3
 8001404:	d308      	bcc.n	8001418 <main+0x5a8>
 8001406:	f44f 707a 	mov.w	r0, #1000	; 0x3e8
 800140a:	f003 f99f 	bl	800474c <HAL_Delay>
 800140e:	2102      	movs	r1, #2
 8001410:	4850      	ldr	r0, [pc, #320]	; (8001554 <main+0x6e4>)
 8001412:	f003 fe98 	bl	8005146 <HAL_GPIO_TogglePin>
 8001416:	e7ea      	b.n	80013ee <main+0x57e>
 8001418:	4b54      	ldr	r3, [pc, #336]	; (800156c <main+0x6fc>)
 800141a:	781a      	ldrb	r2, [r3, #0]
 800141c:	2a01      	cmp	r2, #1
 800141e:	d137      	bne.n	8001490 <main+0x620>
 8001420:	2200      	movs	r2, #0
 8001422:	701a      	strb	r2, [r3, #0]
 8001424:	f8df 816c 	ldr.w	r8, [pc, #364]	; 8001594 <main+0x724>
 8001428:	4b51      	ldr	r3, [pc, #324]	; (8001570 <main+0x700>)
 800142a:	4852      	ldr	r0, [pc, #328]	; (8001574 <main+0x704>)
 800142c:	6819      	ldr	r1, [r3, #0]
 800142e:	f8b8 2000 	ldrh.w	r2, [r8]
 8001432:	9301      	str	r3, [sp, #4]
 8001434:	b212      	sxth	r2, r2
 8001436:	eb02 0282 	add.w	r2, r2, r2, lsl #2
 800143a:	0052      	lsls	r2, r2, #1
 800143c:	f000 f96a 	bl	8001714 <pid_calc>
 8001440:	4a4d      	ldr	r2, [pc, #308]	; (8001578 <main+0x708>)
 8001442:	6811      	ldr	r1, [r2, #0]
 8001444:	f8b8 2000 	ldrh.w	r2, [r8]
 8001448:	b212      	sxth	r2, r2
 800144a:	eb02 0282 	add.w	r2, r2, r2, lsl #2
 800144e:	0052      	lsls	r2, r2, #1
 8001450:	4682      	mov	sl, r0
 8001452:	484a      	ldr	r0, [pc, #296]	; (800157c <main+0x70c>)
 8001454:	f000 f95e 	bl	8001714 <pid_calc>
 8001458:	4a49      	ldr	r2, [pc, #292]	; (8001580 <main+0x710>)
 800145a:	9b01      	ldr	r3, [sp, #4]
 800145c:	7812      	ldrb	r2, [r2, #0]
 800145e:	2a67      	cmp	r2, #103	; 0x67
 8001460:	4683      	mov	fp, r0
 8001462:	d115      	bne.n	8001490 <main+0x620>
 8001464:	f8b8 1000 	ldrh.w	r1, [r8]
 8001468:	4846      	ldr	r0, [pc, #280]	; (8001584 <main+0x714>)
 800146a:	681a      	ldr	r2, [r3, #0]
 800146c:	b209      	sxth	r1, r1
 800146e:	eb01 0181 	add.w	r1, r1, r1, lsl #2
 8001472:	4653      	mov	r3, sl
 8001474:	0049      	lsls	r1, r1, #1
 8001476:	f006 f8d7 	bl	8007628 <iprintf>
 800147a:	f8b8 0000 	ldrh.w	r0, [r8]
 800147e:	f8b8 1000 	ldrh.w	r1, [r8]
 8001482:	230a      	movs	r3, #10
 8001484:	fb11 b103 	smlabb	r1, r1, r3, fp
 8001488:	fb10 a003 	smlabb	r0, r0, r3, sl
 800148c:	f7ff fad0 	bl	8000a30 <PWM>
 8001490:	f8df a118 	ldr.w	sl, [pc, #280]	; 80015ac <main+0x73c>
 8001494:	f89a 3000 	ldrb.w	r3, [sl]
 8001498:	2b01      	cmp	r3, #1
 800149a:	d1a8      	bne.n	80013ee <main+0x57e>
 800149c:	f8df 8110 	ldr.w	r8, [pc, #272]	; 80015b0 <main+0x740>
 80014a0:	f898 3000 	ldrb.w	r3, [r8]
 80014a4:	2b64      	cmp	r3, #100	; 0x64
 80014a6:	d035      	beq.n	8001514 <main+0x6a4>
 80014a8:	d824      	bhi.n	80014f4 <main+0x684>
 80014aa:	2b61      	cmp	r3, #97	; 0x61
 80014ac:	d02a      	beq.n	8001504 <main+0x694>
 80014ae:	f898 3000 	ldrb.w	r3, [r8]
 80014b2:	2b20      	cmp	r3, #32
 80014b4:	d00c      	beq.n	80014d0 <main+0x660>
 80014b6:	2064      	movs	r0, #100	; 0x64
 80014b8:	f003 f948 	bl	800474c <HAL_Delay>
 80014bc:	4832      	ldr	r0, [pc, #200]	; (8001588 <main+0x718>)
 80014be:	f006 f927 	bl	8007710 <puts>
 80014c2:	2100      	movs	r1, #0
 80014c4:	4608      	mov	r0, r1
 80014c6:	f7ff fab3 	bl	8000a30 <PWM>
 80014ca:	2320      	movs	r3, #32
 80014cc:	f888 3000 	strb.w	r3, [r8]
 80014d0:	f8df 80ac 	ldr.w	r8, [pc, #172]	; 8001580 <main+0x710>
 80014d4:	f898 3000 	ldrb.w	r3, [r8]
 80014d8:	b2db      	uxtb	r3, r3
 80014da:	2b6b      	cmp	r3, #107	; 0x6b
 80014dc:	d06a      	beq.n	80015b4 <main+0x744>
 80014de:	d81d      	bhi.n	800151c <main+0x6ac>
 80014e0:	2b51      	cmp	r3, #81	; 0x51
 80014e2:	f000 809d 	beq.w	8001620 <main+0x7b0>
 80014e6:	2b5d      	cmp	r3, #93	; 0x5d
 80014e8:	f000 80b2 	beq.w	8001650 <main+0x7e0>
 80014ec:	2300      	movs	r3, #0
 80014ee:	f88a 3000 	strb.w	r3, [sl]
 80014f2:	e77c      	b.n	80013ee <main+0x57e>
 80014f4:	2b73      	cmp	r3, #115	; 0x73
 80014f6:	d00b      	beq.n	8001510 <main+0x6a0>
 80014f8:	2b77      	cmp	r3, #119	; 0x77
 80014fa:	d1d8      	bne.n	80014ae <main+0x63e>
 80014fc:	f44f 51fa 	mov.w	r1, #8000	; 0x1f40
 8001500:	4608      	mov	r0, r1
 8001502:	e002      	b.n	800150a <main+0x69a>
 8001504:	4821      	ldr	r0, [pc, #132]	; (800158c <main+0x71c>)
 8001506:	f44f 617a 	mov.w	r1, #4000	; 0xfa0
 800150a:	f7ff fa91 	bl	8000a30 <PWM>
 800150e:	e7ce      	b.n	80014ae <main+0x63e>
 8001510:	491f      	ldr	r1, [pc, #124]	; (8001590 <main+0x720>)
 8001512:	e7f5      	b.n	8001500 <main+0x690>
 8001514:	491d      	ldr	r1, [pc, #116]	; (800158c <main+0x71c>)
 8001516:	f44f 607a 	mov.w	r0, #4000	; 0xfa0
 800151a:	e7f6      	b.n	800150a <main+0x69a>
 800151c:	2b72      	cmp	r3, #114	; 0x72
 800151e:	f000 809a 	beq.w	8001656 <main+0x7e6>
 8001522:	2b7a      	cmp	r3, #122	; 0x7a
 8001524:	f000 808e 	beq.w	8001644 <main+0x7d4>
 8001528:	2b70      	cmp	r3, #112	; 0x70
 800152a:	d1df      	bne.n	80014ec <main+0x67c>
 800152c:	f7ff f90c 	bl	8000748 <read_encoders>
 8001530:	e072      	b.n	8001618 <main+0x7a8>
 8001532:	bf00      	nop
 8001534:	20000b70 	.word	0x20000b70
 8001538:	40000400 	.word	0x40000400
 800153c:	2000084c 	.word	0x2000084c
 8001540:	40014800 	.word	0x40014800
 8001544:	40020800 	.word	0x40020800
 8001548:	20000350 	.word	0x20000350
 800154c:	40020000 	.word	0x40020000
 8001550:	20000352 	.word	0x20000352
 8001554:	40020400 	.word	0x40020400
 8001558:	20000a94 	.word	0x20000a94
 800155c:	200009ac 	.word	0x200009ac
 8001560:	20000354 	.word	0x20000354
 8001564:	200007ec 	.word	0x200007ec
 8001568:	2000034b 	.word	0x2000034b
 800156c:	20000360 	.word	0x20000360
 8001570:	20000a8c 	.word	0x20000a8c
 8001574:	20000954 	.word	0x20000954
 8001578:	20000924 	.word	0x20000924
 800157c:	20000b18 	.word	0x20000b18
 8001580:	20000356 	.word	0x20000356
 8001584:	08007a8a 	.word	0x08007a8a
 8001588:	08007ab0 	.word	0x08007ab0
 800158c:	fffff060 	.word	0xfffff060
 8001590:	ffffe0c0 	.word	0xffffe0c0
 8001594:	2000035e 	.word	0x2000035e
 8001598:	40013000 	.word	0x40013000
 800159c:	20000bc8 	.word	0x20000bc8
 80015a0:	2000089c 	.word	0x2000089c
 80015a4:	40014400 	.word	0x40014400
 80015a8:	200009ec 	.word	0x200009ec
 80015ac:	2000035c 	.word	0x2000035c
 80015b0:	2000034c 	.word	0x2000034c
 80015b4:	4b2f      	ldr	r3, [pc, #188]	; (8001674 <main+0x804>)
 80015b6:	4830      	ldr	r0, [pc, #192]	; (8001678 <main+0x808>)
 80015b8:	f8b3 b000 	ldrh.w	fp, [r3]
 80015bc:	2364      	movs	r3, #100	; 0x64
 80015be:	fa0f fb8b 	sxth.w	fp, fp
 80015c2:	fb9b fbf3 	sdiv	fp, fp, r3
 80015c6:	fa5f fb8b 	uxtb.w	fp, fp
 80015ca:	4659      	mov	r1, fp
 80015cc:	f006 f82c 	bl	8007628 <iprintf>
 80015d0:	4658      	mov	r0, fp
 80015d2:	f7ff fb9f 	bl	8000d14 <PT_change_sensor>
 80015d6:	4658      	mov	r0, fp
 80015d8:	f7ff fbdc 	bl	8000d94 <IR_set>
 80015dc:	20fa      	movs	r0, #250	; 0xfa
 80015de:	f003 f8b5 	bl	800474c <HAL_Delay>
 80015e2:	4826      	ldr	r0, [pc, #152]	; (800167c <main+0x80c>)
 80015e4:	f006 f894 	bl	8007710 <puts>
 80015e8:	8821      	ldrh	r1, [r4, #0]
 80015ea:	4825      	ldr	r0, [pc, #148]	; (8001680 <main+0x810>)
 80015ec:	f006 f81c 	bl	8007628 <iprintf>
 80015f0:	8861      	ldrh	r1, [r4, #2]
 80015f2:	4824      	ldr	r0, [pc, #144]	; (8001684 <main+0x814>)
 80015f4:	f006 f818 	bl	8007628 <iprintf>
 80015f8:	88a1      	ldrh	r1, [r4, #4]
 80015fa:	4823      	ldr	r0, [pc, #140]	; (8001688 <main+0x818>)
 80015fc:	f006 f814 	bl	8007628 <iprintf>
 8001600:	88e1      	ldrh	r1, [r4, #6]
 8001602:	4822      	ldr	r0, [pc, #136]	; (800168c <main+0x81c>)
 8001604:	f006 f810 	bl	8007628 <iprintf>
 8001608:	8921      	ldrh	r1, [r4, #8]
 800160a:	4821      	ldr	r0, [pc, #132]	; (8001690 <main+0x820>)
 800160c:	f006 f80c 	bl	8007628 <iprintf>
 8001610:	8961      	ldrh	r1, [r4, #10]
 8001612:	4820      	ldr	r0, [pc, #128]	; (8001694 <main+0x824>)
 8001614:	f006 f808 	bl	8007628 <iprintf>
 8001618:	2320      	movs	r3, #32
 800161a:	f888 3000 	strb.w	r3, [r8]
 800161e:	e765      	b.n	80014ec <main+0x67c>
 8001620:	8829      	ldrh	r1, [r5, #0]
 8001622:	8832      	ldrh	r2, [r6, #0]
 8001624:	883b      	ldrh	r3, [r7, #0]
 8001626:	481c      	ldr	r0, [pc, #112]	; (8001698 <main+0x828>)
 8001628:	b21b      	sxth	r3, r3
 800162a:	b212      	sxth	r2, r2
 800162c:	b209      	sxth	r1, r1
 800162e:	f005 fffb 	bl	8007628 <iprintf>
 8001632:	8828      	ldrh	r0, [r5, #0]
 8001634:	8831      	ldrh	r1, [r6, #0]
 8001636:	883a      	ldrh	r2, [r7, #0]
 8001638:	b209      	sxth	r1, r1
 800163a:	b212      	sxth	r2, r2
 800163c:	b200      	sxth	r0, r0
 800163e:	f7ff faa9 	bl	8000b94 <initialize_PID>
 8001642:	e753      	b.n	80014ec <main+0x67c>
 8001644:	4a15      	ldr	r2, [pc, #84]	; (800169c <main+0x82c>)
 8001646:	2300      	movs	r3, #0
 8001648:	6053      	str	r3, [r2, #4]
 800164a:	4a15      	ldr	r2, [pc, #84]	; (80016a0 <main+0x830>)
 800164c:	6053      	str	r3, [r2, #4]
 800164e:	e7e3      	b.n	8001618 <main+0x7a8>
 8001650:	f7ff fa82 	bl	8000b58 <pos_and_speed_measurement>
 8001654:	e7e0      	b.n	8001618 <main+0x7a8>
 8001656:	4b07      	ldr	r3, [pc, #28]	; (8001674 <main+0x804>)
 8001658:	8818      	ldrh	r0, [r3, #0]
 800165a:	8819      	ldrh	r1, [r3, #0]
 800165c:	b200      	sxth	r0, r0
 800165e:	b209      	sxth	r1, r1
 8001660:	eb01 0181 	add.w	r1, r1, r1, lsl #2
 8001664:	eb00 0080 	add.w	r0, r0, r0, lsl #2
 8001668:	0049      	lsls	r1, r1, #1
 800166a:	0040      	lsls	r0, r0, #1
 800166c:	f7ff f9e0 	bl	8000a30 <PWM>
 8001670:	e7d2      	b.n	8001618 <main+0x7a8>
 8001672:	bf00      	nop
 8001674:	2000035e 	.word	0x2000035e
 8001678:	08007aba 	.word	0x08007aba
 800167c:	08007adf 	.word	0x08007adf
 8001680:	08007af2 	.word	0x08007af2
 8001684:	08007b00 	.word	0x08007b00
 8001688:	08007b10 	.word	0x08007b10
 800168c:	08007b20 	.word	0x08007b20
 8001690:	08007b30 	.word	0x08007b30
 8001694:	08007b40 	.word	0x08007b40
 8001698:	08007b53 	.word	0x08007b53
 800169c:	20000a8c 	.word	0x20000a8c
 80016a0:	20000924 	.word	0x20000924

080016a4 <Error_Handler>:
 80016a4:	4770      	bx	lr

080016a6 <pid_init>:
 80016a6:	2301      	movs	r3, #1
 80016a8:	b510      	push	{r4, lr}
 80016aa:	6343      	str	r3, [r0, #52]	; 0x34
 80016ac:	2400      	movs	r4, #0
 80016ae:	42a1      	cmp	r1, r4
 80016b0:	6b43      	ldr	r3, [r0, #52]	; 0x34
 80016b2:	d82b      	bhi.n	800170c <pid_init+0x66>
 80016b4:	ee07 3a90 	vmov	s15, r3
 80016b8:	eef8 7a67 	vcvt.f32.u32	s15, s15
 80016bc:	f06f 4400 	mvn.w	r4, #2147483648	; 0x80000000
 80016c0:	ee27 0a80 	vmul.f32	s0, s15, s0
 80016c4:	ee67 0aa0 	vmul.f32	s1, s15, s1
 80016c8:	ee67 7a81 	vmul.f32	s15, s15, s2
 80016cc:	eebd 0ac0 	vcvt.s32.f32	s0, s0
 80016d0:	eefd 0ae0 	vcvt.s32.f32	s1, s1
 80016d4:	eefd 7ae7 	vcvt.s32.f32	s15, s15
 80016d8:	2300      	movs	r3, #0
 80016da:	f880 1030 	strb.w	r1, [r0, #48]	; 0x30
 80016de:	f04f 4100 	mov.w	r1, #2147483648	; 0x80000000
 80016e2:	ed80 0a00 	vstr	s0, [r0]
 80016e6:	edc0 0a01 	vstr	s1, [r0, #4]
 80016ea:	edc0 7a02 	vstr	s15, [r0, #8]
 80016ee:	e9c0 3303 	strd	r3, r3, [r0, #12]
 80016f2:	6143      	str	r3, [r0, #20]
 80016f4:	6184      	str	r4, [r0, #24]
 80016f6:	6241      	str	r1, [r0, #36]	; 0x24
 80016f8:	61c4      	str	r4, [r0, #28]
 80016fa:	6281      	str	r1, [r0, #40]	; 0x28
 80016fc:	6204      	str	r4, [r0, #32]
 80016fe:	62c1      	str	r1, [r0, #44]	; 0x2c
 8001700:	e9c0 3310 	strd	r3, r3, [r0, #64]	; 0x40
 8001704:	e9c0 4112 	strd	r4, r1, [r0, #72]	; 0x48
 8001708:	6542      	str	r2, [r0, #84]	; 0x54
 800170a:	bd10      	pop	{r4, pc}
 800170c:	005b      	lsls	r3, r3, #1
 800170e:	6343      	str	r3, [r0, #52]	; 0x34
 8001710:	3401      	adds	r4, #1
 8001712:	e7cc      	b.n	80016ae <pid_init+0x8>

08001714 <pid_calc>:
 8001714:	b5f0      	push	{r4, r5, r6, r7, lr}
 8001716:	e9c0 210e 	strd	r2, r1, [r0, #56]	; 0x38
 800171a:	1a52      	subs	r2, r2, r1
 800171c:	6801      	ldr	r1, [r0, #0]
 800171e:	6984      	ldr	r4, [r0, #24]
 8001720:	4351      	muls	r1, r2
 8001722:	428c      	cmp	r4, r1
 8001724:	4603      	mov	r3, r0
 8001726:	db03      	blt.n	8001730 <pid_calc+0x1c>
 8001728:	6a44      	ldr	r4, [r0, #36]	; 0x24
 800172a:	428c      	cmp	r4, r1
 800172c:	bfb8      	it	lt
 800172e:	460c      	movlt	r4, r1
 8001730:	f893 7030 	ldrb.w	r7, [r3, #48]	; 0x30
 8001734:	685e      	ldr	r6, [r3, #4]
 8001736:	f8d3 c054 	ldr.w	ip, [r3, #84]	; 0x54
 800173a:	fa44 f107 	asr.w	r1, r4, r7
 800173e:	60d9      	str	r1, [r3, #12]
 8001740:	6c59      	ldr	r1, [r3, #68]	; 0x44
 8001742:	fb06 f50c 	mul.w	r5, r6, ip
 8001746:	4355      	muls	r5, r2
 8001748:	f44f 767a 	mov.w	r6, #1000	; 0x3e8
 800174c:	fb95 f5f6 	sdiv	r5, r5, r6
 8001750:	440d      	add	r5, r1
 8001752:	69d9      	ldr	r1, [r3, #28]
 8001754:	42a9      	cmp	r1, r5
 8001756:	db04      	blt.n	8001762 <pid_calc+0x4e>
 8001758:	6a99      	ldr	r1, [r3, #40]	; 0x28
 800175a:	42a9      	cmp	r1, r5
 800175c:	bfcc      	ite	gt
 800175e:	6459      	strgt	r1, [r3, #68]	; 0x44
 8001760:	4629      	movle	r1, r5
 8001762:	fa41 f007 	asr.w	r0, r1, r7
 8001766:	6118      	str	r0, [r3, #16]
 8001768:	6c18      	ldr	r0, [r3, #64]	; 0x40
 800176a:	1a15      	subs	r5, r2, r0
 800176c:	6898      	ldr	r0, [r3, #8]
 800176e:	4368      	muls	r0, r5
 8001770:	fb90 f5fc 	sdiv	r5, r0, ip
 8001774:	6a18      	ldr	r0, [r3, #32]
 8001776:	42a8      	cmp	r0, r5
 8001778:	db03      	blt.n	8001782 <pid_calc+0x6e>
 800177a:	6ad8      	ldr	r0, [r3, #44]	; 0x2c
 800177c:	42a8      	cmp	r0, r5
 800177e:	bfb8      	it	lt
 8001780:	4628      	movlt	r0, r5
 8001782:	440c      	add	r4, r1
 8001784:	fa40 f507 	asr.w	r5, r0, r7
 8001788:	4404      	add	r4, r0
 800178a:	6c98      	ldr	r0, [r3, #72]	; 0x48
 800178c:	615d      	str	r5, [r3, #20]
 800178e:	42a0      	cmp	r0, r4
 8001790:	db03      	blt.n	800179a <pid_calc+0x86>
 8001792:	6cd8      	ldr	r0, [r3, #76]	; 0x4c
 8001794:	42a0      	cmp	r0, r4
 8001796:	bfb8      	it	lt
 8001798:	4620      	movlt	r0, r4
 800179a:	4138      	asrs	r0, r7
 800179c:	6518      	str	r0, [r3, #80]	; 0x50
 800179e:	641a      	str	r2, [r3, #64]	; 0x40
 80017a0:	bdf0      	pop	{r4, r5, r6, r7, pc}

080017a2 <pid_scale>:
 80017a2:	edd0 7a0d 	vldr	s15, [r0, #52]	; 0x34
 80017a6:	eef8 7a67 	vcvt.f32.u32	s15, s15
 80017aa:	ee27 0a80 	vmul.f32	s0, s15, s0
 80017ae:	eefd 7ac0 	vcvt.s32.f32	s15, s0
 80017b2:	ee17 0a90 	vmov	r0, s15
 80017b6:	4770      	bx	lr

080017b8 <HAL_MspInit>:
 80017b8:	b082      	sub	sp, #8
 80017ba:	4b0c      	ldr	r3, [pc, #48]	; (80017ec <HAL_MspInit+0x34>)
 80017bc:	2100      	movs	r1, #0
 80017be:	9100      	str	r1, [sp, #0]
 80017c0:	6c5a      	ldr	r2, [r3, #68]	; 0x44
 80017c2:	f442 4280 	orr.w	r2, r2, #16384	; 0x4000
 80017c6:	645a      	str	r2, [r3, #68]	; 0x44
 80017c8:	6c5a      	ldr	r2, [r3, #68]	; 0x44
 80017ca:	f402 4280 	and.w	r2, r2, #16384	; 0x4000
 80017ce:	9200      	str	r2, [sp, #0]
 80017d0:	9a00      	ldr	r2, [sp, #0]
 80017d2:	9101      	str	r1, [sp, #4]
 80017d4:	6c1a      	ldr	r2, [r3, #64]	; 0x40
 80017d6:	f042 5280 	orr.w	r2, r2, #268435456	; 0x10000000
 80017da:	641a      	str	r2, [r3, #64]	; 0x40
 80017dc:	6c1b      	ldr	r3, [r3, #64]	; 0x40
 80017de:	f003 5380 	and.w	r3, r3, #268435456	; 0x10000000
 80017e2:	9301      	str	r3, [sp, #4]
 80017e4:	9b01      	ldr	r3, [sp, #4]
 80017e6:	b002      	add	sp, #8
 80017e8:	4770      	bx	lr
 80017ea:	bf00      	nop
 80017ec:	40023800 	.word	0x40023800

080017f0 <HAL_ADC_MspInit>:
 80017f0:	b570      	push	{r4, r5, r6, lr}
 80017f2:	4606      	mov	r6, r0
 80017f4:	b088      	sub	sp, #32
 80017f6:	2214      	movs	r2, #20
 80017f8:	2100      	movs	r1, #0
 80017fa:	a803      	add	r0, sp, #12
 80017fc:	f005 fb9b 	bl	8006f36 <memset>
 8001800:	6832      	ldr	r2, [r6, #0]
 8001802:	4b29      	ldr	r3, [pc, #164]	; (80018a8 <HAL_ADC_MspInit+0xb8>)
 8001804:	429a      	cmp	r2, r3
 8001806:	d14c      	bne.n	80018a2 <HAL_ADC_MspInit+0xb2>
 8001808:	f503 338c 	add.w	r3, r3, #71680	; 0x11800
 800180c:	2500      	movs	r5, #0
 800180e:	9500      	str	r5, [sp, #0]
 8001810:	6c5a      	ldr	r2, [r3, #68]	; 0x44
 8001812:	4826      	ldr	r0, [pc, #152]	; (80018ac <HAL_ADC_MspInit+0xbc>)
 8001814:	f442 7280 	orr.w	r2, r2, #256	; 0x100
 8001818:	645a      	str	r2, [r3, #68]	; 0x44
 800181a:	6c5a      	ldr	r2, [r3, #68]	; 0x44
 800181c:	f402 7280 	and.w	r2, r2, #256	; 0x100
 8001820:	9200      	str	r2, [sp, #0]
 8001822:	9a00      	ldr	r2, [sp, #0]
 8001824:	9501      	str	r5, [sp, #4]
 8001826:	6b1a      	ldr	r2, [r3, #48]	; 0x30
 8001828:	f042 0201 	orr.w	r2, r2, #1
 800182c:	631a      	str	r2, [r3, #48]	; 0x30
 800182e:	6b1a      	ldr	r2, [r3, #48]	; 0x30
 8001830:	f002 0201 	and.w	r2, r2, #1
 8001834:	9201      	str	r2, [sp, #4]
 8001836:	9a01      	ldr	r2, [sp, #4]
 8001838:	9502      	str	r5, [sp, #8]
 800183a:	6b1a      	ldr	r2, [r3, #48]	; 0x30
 800183c:	f042 0204 	orr.w	r2, r2, #4
 8001840:	631a      	str	r2, [r3, #48]	; 0x30
 8001842:	6b1b      	ldr	r3, [r3, #48]	; 0x30
 8001844:	f003 0304 	and.w	r3, r3, #4
 8001848:	9302      	str	r3, [sp, #8]
 800184a:	2403      	movs	r4, #3
 800184c:	9b02      	ldr	r3, [sp, #8]
 800184e:	a903      	add	r1, sp, #12
 8001850:	233d      	movs	r3, #61	; 0x3d
 8001852:	e9cd 3403 	strd	r3, r4, [sp, #12]
 8001856:	f003 fba3 	bl	8004fa0 <HAL_GPIO_Init>
 800185a:	2320      	movs	r3, #32
 800185c:	a903      	add	r1, sp, #12
 800185e:	4814      	ldr	r0, [pc, #80]	; (80018b0 <HAL_ADC_MspInit+0xc0>)
 8001860:	9505      	str	r5, [sp, #20]
 8001862:	e9cd 3403 	strd	r3, r4, [sp, #12]
 8001866:	f003 fb9b 	bl	8004fa0 <HAL_GPIO_Init>
 800186a:	4c12      	ldr	r4, [pc, #72]	; (80018b4 <HAL_ADC_MspInit+0xc4>)
 800186c:	4b12      	ldr	r3, [pc, #72]	; (80018b8 <HAL_ADC_MspInit+0xc8>)
 800186e:	f44f 6280 	mov.w	r2, #1024	; 0x400
 8001872:	e9c4 3500 	strd	r3, r5, [r4]
 8001876:	f44f 6300 	mov.w	r3, #2048	; 0x800
 800187a:	e9c4 2304 	strd	r2, r3, [r4, #16]
 800187e:	f44f 5100 	mov.w	r1, #8192	; 0x2000
 8001882:	f44f 7380 	mov.w	r3, #256	; 0x100
 8001886:	4620      	mov	r0, r4
 8001888:	e9c4 5502 	strd	r5, r5, [r4, #8]
 800188c:	e9c4 1306 	strd	r1, r3, [r4, #24]
 8001890:	e9c4 5508 	strd	r5, r5, [r4, #32]
 8001894:	f003 f9fc 	bl	8004c90 <HAL_DMA_Init>
 8001898:	b108      	cbz	r0, 800189e <HAL_ADC_MspInit+0xae>
 800189a:	f7ff ff03 	bl	80016a4 <Error_Handler>
 800189e:	63b4      	str	r4, [r6, #56]	; 0x38
 80018a0:	63a6      	str	r6, [r4, #56]	; 0x38
 80018a2:	b008      	add	sp, #32
 80018a4:	bd70      	pop	{r4, r5, r6, pc}
 80018a6:	bf00      	nop
 80018a8:	40012000 	.word	0x40012000
 80018ac:	40020000 	.word	0x40020000
 80018b0:	40020800 	.word	0x40020800
 80018b4:	20000a2c 	.word	0x20000a2c
 80018b8:	40026410 	.word	0x40026410

080018bc <HAL_I2C_MspInit>:
 80018bc:	b530      	push	{r4, r5, lr}
 80018be:	4604      	mov	r4, r0
 80018c0:	b089      	sub	sp, #36	; 0x24
 80018c2:	2214      	movs	r2, #20
 80018c4:	2100      	movs	r1, #0
 80018c6:	a803      	add	r0, sp, #12
 80018c8:	f005 fb35 	bl	8006f36 <memset>
 80018cc:	6822      	ldr	r2, [r4, #0]
 80018ce:	4b15      	ldr	r3, [pc, #84]	; (8001924 <HAL_I2C_MspInit+0x68>)
 80018d0:	429a      	cmp	r2, r3
 80018d2:	d124      	bne.n	800191e <HAL_I2C_MspInit+0x62>
 80018d4:	4c14      	ldr	r4, [pc, #80]	; (8001928 <HAL_I2C_MspInit+0x6c>)
 80018d6:	4815      	ldr	r0, [pc, #84]	; (800192c <HAL_I2C_MspInit+0x70>)
 80018d8:	2500      	movs	r5, #0
 80018da:	9501      	str	r5, [sp, #4]
 80018dc:	6b23      	ldr	r3, [r4, #48]	; 0x30
 80018de:	f043 0302 	orr.w	r3, r3, #2
 80018e2:	6323      	str	r3, [r4, #48]	; 0x30
 80018e4:	6b23      	ldr	r3, [r4, #48]	; 0x30
 80018e6:	f003 0302 	and.w	r3, r3, #2
 80018ea:	9301      	str	r3, [sp, #4]
 80018ec:	9b01      	ldr	r3, [sp, #4]
 80018ee:	f44f 7240 	mov.w	r2, #768	; 0x300
 80018f2:	2312      	movs	r3, #18
 80018f4:	e9cd 2303 	strd	r2, r3, [sp, #12]
 80018f8:	2101      	movs	r1, #1
 80018fa:	2303      	movs	r3, #3
 80018fc:	e9cd 1305 	strd	r1, r3, [sp, #20]
 8001900:	2304      	movs	r3, #4
 8001902:	a903      	add	r1, sp, #12
 8001904:	9307      	str	r3, [sp, #28]
 8001906:	f003 fb4b 	bl	8004fa0 <HAL_GPIO_Init>
 800190a:	9502      	str	r5, [sp, #8]
 800190c:	6c23      	ldr	r3, [r4, #64]	; 0x40
 800190e:	f443 1300 	orr.w	r3, r3, #2097152	; 0x200000
 8001912:	6423      	str	r3, [r4, #64]	; 0x40
 8001914:	6c23      	ldr	r3, [r4, #64]	; 0x40
 8001916:	f403 1300 	and.w	r3, r3, #2097152	; 0x200000
 800191a:	9302      	str	r3, [sp, #8]
 800191c:	9b02      	ldr	r3, [sp, #8]
 800191e:	b009      	add	sp, #36	; 0x24
 8001920:	bd30      	pop	{r4, r5, pc}
 8001922:	bf00      	nop
 8001924:	40005400 	.word	0x40005400
 8001928:	40023800 	.word	0x40023800
 800192c:	40020400 	.word	0x40020400

08001930 <HAL_SPI_MspInit>:
 8001930:	b510      	push	{r4, lr}
 8001932:	4604      	mov	r4, r0
 8001934:	b088      	sub	sp, #32
 8001936:	2214      	movs	r2, #20
 8001938:	2100      	movs	r1, #0
 800193a:	a803      	add	r0, sp, #12
 800193c:	f005 fafb 	bl	8006f36 <memset>
 8001940:	6822      	ldr	r2, [r4, #0]
 8001942:	4b14      	ldr	r3, [pc, #80]	; (8001994 <HAL_SPI_MspInit+0x64>)
 8001944:	429a      	cmp	r2, r3
 8001946:	d122      	bne.n	800198e <HAL_SPI_MspInit+0x5e>
 8001948:	f503 3384 	add.w	r3, r3, #67584	; 0x10800
 800194c:	2100      	movs	r1, #0
 800194e:	9101      	str	r1, [sp, #4]
 8001950:	6c5a      	ldr	r2, [r3, #68]	; 0x44
 8001952:	4811      	ldr	r0, [pc, #68]	; (8001998 <HAL_SPI_MspInit+0x68>)
 8001954:	f442 5280 	orr.w	r2, r2, #4096	; 0x1000
 8001958:	645a      	str	r2, [r3, #68]	; 0x44
 800195a:	6c5a      	ldr	r2, [r3, #68]	; 0x44
 800195c:	f402 5280 	and.w	r2, r2, #4096	; 0x1000
 8001960:	9201      	str	r2, [sp, #4]
 8001962:	9a01      	ldr	r2, [sp, #4]
 8001964:	9102      	str	r1, [sp, #8]
 8001966:	6b1a      	ldr	r2, [r3, #48]	; 0x30
 8001968:	f042 0202 	orr.w	r2, r2, #2
 800196c:	631a      	str	r2, [r3, #48]	; 0x30
 800196e:	6b1b      	ldr	r3, [r3, #48]	; 0x30
 8001970:	f003 0302 	and.w	r3, r3, #2
 8001974:	9302      	str	r3, [sp, #8]
 8001976:	9b02      	ldr	r3, [sp, #8]
 8001978:	2238      	movs	r2, #56	; 0x38
 800197a:	2302      	movs	r3, #2
 800197c:	2103      	movs	r1, #3
 800197e:	e9cd 2303 	strd	r2, r3, [sp, #12]
 8001982:	2305      	movs	r3, #5
 8001984:	e9cd 1306 	strd	r1, r3, [sp, #24]
 8001988:	a903      	add	r1, sp, #12
 800198a:	f003 fb09 	bl	8004fa0 <HAL_GPIO_Init>
 800198e:	b008      	add	sp, #32
 8001990:	bd10      	pop	{r4, pc}
 8001992:	bf00      	nop
 8001994:	40013000 	.word	0x40013000
 8001998:	40020400 	.word	0x40020400

0800199c <HAL_TIM_Base_MspInit>:
 800199c:	b51f      	push	{r0, r1, r2, r3, r4, lr}
 800199e:	6803      	ldr	r3, [r0, #0]
 80019a0:	4a24      	ldr	r2, [pc, #144]	; (8001a34 <HAL_TIM_Base_MspInit+0x98>)
 80019a2:	4293      	cmp	r3, r2
 80019a4:	d11a      	bne.n	80019dc <HAL_TIM_Base_MspInit+0x40>
 80019a6:	2400      	movs	r4, #0
 80019a8:	4b23      	ldr	r3, [pc, #140]	; (8001a38 <HAL_TIM_Base_MspInit+0x9c>)
 80019aa:	9401      	str	r4, [sp, #4]
 80019ac:	6c5a      	ldr	r2, [r3, #68]	; 0x44
 80019ae:	f042 0201 	orr.w	r2, r2, #1
 80019b2:	645a      	str	r2, [r3, #68]	; 0x44
 80019b4:	6c5b      	ldr	r3, [r3, #68]	; 0x44
 80019b6:	f003 0301 	and.w	r3, r3, #1
 80019ba:	4622      	mov	r2, r4
 80019bc:	9301      	str	r3, [sp, #4]
 80019be:	4621      	mov	r1, r4
 80019c0:	2019      	movs	r0, #25
 80019c2:	9b01      	ldr	r3, [sp, #4]
 80019c4:	f003 f8f6 	bl	8004bb4 <HAL_NVIC_SetPriority>
 80019c8:	2019      	movs	r0, #25
 80019ca:	f003 f927 	bl	8004c1c <HAL_NVIC_EnableIRQ>
 80019ce:	4622      	mov	r2, r4
 80019d0:	201a      	movs	r0, #26
 80019d2:	4611      	mov	r1, r2
 80019d4:	f003 f8ee 	bl	8004bb4 <HAL_NVIC_SetPriority>
 80019d8:	201a      	movs	r0, #26
 80019da:	e013      	b.n	8001a04 <HAL_TIM_Base_MspInit+0x68>
 80019dc:	4a17      	ldr	r2, [pc, #92]	; (8001a3c <HAL_TIM_Base_MspInit+0xa0>)
 80019de:	4293      	cmp	r3, r2
 80019e0:	d115      	bne.n	8001a0e <HAL_TIM_Base_MspInit+0x72>
 80019e2:	2200      	movs	r2, #0
 80019e4:	4b14      	ldr	r3, [pc, #80]	; (8001a38 <HAL_TIM_Base_MspInit+0x9c>)
 80019e6:	9202      	str	r2, [sp, #8]
 80019e8:	6c59      	ldr	r1, [r3, #68]	; 0x44
 80019ea:	f441 3100 	orr.w	r1, r1, #131072	; 0x20000
 80019ee:	6459      	str	r1, [r3, #68]	; 0x44
 80019f0:	6c5b      	ldr	r3, [r3, #68]	; 0x44
 80019f2:	f403 3300 	and.w	r3, r3, #131072	; 0x20000
 80019f6:	9302      	str	r3, [sp, #8]
 80019f8:	2019      	movs	r0, #25
 80019fa:	4611      	mov	r1, r2
 80019fc:	9b02      	ldr	r3, [sp, #8]
 80019fe:	f003 f8d9 	bl	8004bb4 <HAL_NVIC_SetPriority>
 8001a02:	2019      	movs	r0, #25
 8001a04:	b004      	add	sp, #16
 8001a06:	e8bd 4010 	ldmia.w	sp!, {r4, lr}
 8001a0a:	f003 b907 	b.w	8004c1c <HAL_NVIC_EnableIRQ>
 8001a0e:	4a0c      	ldr	r2, [pc, #48]	; (8001a40 <HAL_TIM_Base_MspInit+0xa4>)
 8001a10:	4293      	cmp	r3, r2
 8001a12:	d10c      	bne.n	8001a2e <HAL_TIM_Base_MspInit+0x92>
 8001a14:	4b08      	ldr	r3, [pc, #32]	; (8001a38 <HAL_TIM_Base_MspInit+0x9c>)
 8001a16:	2200      	movs	r2, #0
 8001a18:	9203      	str	r2, [sp, #12]
 8001a1a:	6c59      	ldr	r1, [r3, #68]	; 0x44
 8001a1c:	f441 2180 	orr.w	r1, r1, #262144	; 0x40000
 8001a20:	6459      	str	r1, [r3, #68]	; 0x44
 8001a22:	6c5b      	ldr	r3, [r3, #68]	; 0x44
 8001a24:	f403 2380 	and.w	r3, r3, #262144	; 0x40000
 8001a28:	9303      	str	r3, [sp, #12]
 8001a2a:	9b03      	ldr	r3, [sp, #12]
 8001a2c:	e7d0      	b.n	80019d0 <HAL_TIM_Base_MspInit+0x34>
 8001a2e:	b004      	add	sp, #16
 8001a30:	bd10      	pop	{r4, pc}
 8001a32:	bf00      	nop
 8001a34:	40010000 	.word	0x40010000
 8001a38:	40023800 	.word	0x40023800
 8001a3c:	40014400 	.word	0x40014400
 8001a40:	40014800 	.word	0x40014800

08001a44 <HAL_TIM_Encoder_MspInit>:
 8001a44:	b510      	push	{r4, lr}
 8001a46:	2214      	movs	r2, #20
 8001a48:	b08a      	sub	sp, #40	; 0x28
 8001a4a:	4604      	mov	r4, r0
 8001a4c:	2100      	movs	r1, #0
 8001a4e:	eb0d 0002 	add.w	r0, sp, r2
 8001a52:	f005 fa70 	bl	8006f36 <memset>
 8001a56:	6823      	ldr	r3, [r4, #0]
 8001a58:	f1b3 4f80 	cmp.w	r3, #1073741824	; 0x40000000
 8001a5c:	d12b      	bne.n	8001ab6 <HAL_TIM_Encoder_MspInit+0x72>
 8001a5e:	f503 330e 	add.w	r3, r3, #145408	; 0x23800
 8001a62:	2400      	movs	r4, #0
 8001a64:	9401      	str	r4, [sp, #4]
 8001a66:	6c1a      	ldr	r2, [r3, #64]	; 0x40
 8001a68:	4824      	ldr	r0, [pc, #144]	; (8001afc <HAL_TIM_Encoder_MspInit+0xb8>)
 8001a6a:	f042 0201 	orr.w	r2, r2, #1
 8001a6e:	641a      	str	r2, [r3, #64]	; 0x40
 8001a70:	6c1a      	ldr	r2, [r3, #64]	; 0x40
 8001a72:	f002 0201 	and.w	r2, r2, #1
 8001a76:	9201      	str	r2, [sp, #4]
 8001a78:	9a01      	ldr	r2, [sp, #4]
 8001a7a:	9402      	str	r4, [sp, #8]
 8001a7c:	6b1a      	ldr	r2, [r3, #48]	; 0x30
 8001a7e:	f042 0201 	orr.w	r2, r2, #1
 8001a82:	631a      	str	r2, [r3, #48]	; 0x30
 8001a84:	6b1b      	ldr	r3, [r3, #48]	; 0x30
 8001a86:	f003 0301 	and.w	r3, r3, #1
 8001a8a:	9302      	str	r3, [sp, #8]
 8001a8c:	9b02      	ldr	r3, [sp, #8]
 8001a8e:	f248 0102 	movw	r1, #32770	; 0x8002
 8001a92:	2302      	movs	r3, #2
 8001a94:	e9cd 1305 	strd	r1, r3, [sp, #20]
 8001a98:	2301      	movs	r3, #1
 8001a9a:	a905      	add	r1, sp, #20
 8001a9c:	9309      	str	r3, [sp, #36]	; 0x24
 8001a9e:	f003 fa7f 	bl	8004fa0 <HAL_GPIO_Init>
 8001aa2:	201c      	movs	r0, #28
 8001aa4:	4622      	mov	r2, r4
 8001aa6:	4621      	mov	r1, r4
 8001aa8:	f003 f884 	bl	8004bb4 <HAL_NVIC_SetPriority>
 8001aac:	201c      	movs	r0, #28
 8001aae:	f003 f8b5 	bl	8004c1c <HAL_NVIC_EnableIRQ>
 8001ab2:	b00a      	add	sp, #40	; 0x28
 8001ab4:	bd10      	pop	{r4, pc}
 8001ab6:	4a12      	ldr	r2, [pc, #72]	; (8001b00 <HAL_TIM_Encoder_MspInit+0xbc>)
 8001ab8:	4293      	cmp	r3, r2
 8001aba:	d1fa      	bne.n	8001ab2 <HAL_TIM_Encoder_MspInit+0x6e>
 8001abc:	4b11      	ldr	r3, [pc, #68]	; (8001b04 <HAL_TIM_Encoder_MspInit+0xc0>)
 8001abe:	480f      	ldr	r0, [pc, #60]	; (8001afc <HAL_TIM_Encoder_MspInit+0xb8>)
 8001ac0:	2100      	movs	r1, #0
 8001ac2:	9103      	str	r1, [sp, #12]
 8001ac4:	6c1a      	ldr	r2, [r3, #64]	; 0x40
 8001ac6:	f042 0202 	orr.w	r2, r2, #2
 8001aca:	641a      	str	r2, [r3, #64]	; 0x40
 8001acc:	6c1a      	ldr	r2, [r3, #64]	; 0x40
 8001ace:	f002 0202 	and.w	r2, r2, #2
 8001ad2:	9203      	str	r2, [sp, #12]
 8001ad4:	9a03      	ldr	r2, [sp, #12]
 8001ad6:	9104      	str	r1, [sp, #16]
 8001ad8:	6b1a      	ldr	r2, [r3, #48]	; 0x30
 8001ada:	f042 0201 	orr.w	r2, r2, #1
 8001ade:	631a      	str	r2, [r3, #48]	; 0x30
 8001ae0:	6b1b      	ldr	r3, [r3, #48]	; 0x30
 8001ae2:	f003 0301 	and.w	r3, r3, #1
 8001ae6:	9304      	str	r3, [sp, #16]
 8001ae8:	9b04      	ldr	r3, [sp, #16]
 8001aea:	22c0      	movs	r2, #192	; 0xc0
 8001aec:	2302      	movs	r3, #2
 8001aee:	a905      	add	r1, sp, #20
 8001af0:	e9cd 2305 	strd	r2, r3, [sp, #20]
 8001af4:	9309      	str	r3, [sp, #36]	; 0x24
 8001af6:	f003 fa53 	bl	8004fa0 <HAL_GPIO_Init>
 8001afa:	e7da      	b.n	8001ab2 <HAL_TIM_Encoder_MspInit+0x6e>
 8001afc:	40020000 	.word	0x40020000
 8001b00:	40000400 	.word	0x40000400
 8001b04:	40023800 	.word	0x40023800

08001b08 <HAL_TIM_MspPostInit>:
 8001b08:	b510      	push	{r4, lr}
 8001b0a:	4604      	mov	r4, r0
 8001b0c:	b086      	sub	sp, #24
 8001b0e:	2214      	movs	r2, #20
 8001b10:	2100      	movs	r1, #0
 8001b12:	a801      	add	r0, sp, #4
 8001b14:	f005 fa0f 	bl	8006f36 <memset>
 8001b18:	6822      	ldr	r2, [r4, #0]
 8001b1a:	4b0e      	ldr	r3, [pc, #56]	; (8001b54 <HAL_TIM_MspPostInit+0x4c>)
 8001b1c:	429a      	cmp	r2, r3
 8001b1e:	d116      	bne.n	8001b4e <HAL_TIM_MspPostInit+0x46>
 8001b20:	2300      	movs	r3, #0
 8001b22:	9300      	str	r3, [sp, #0]
 8001b24:	4b0c      	ldr	r3, [pc, #48]	; (8001b58 <HAL_TIM_MspPostInit+0x50>)
 8001b26:	480d      	ldr	r0, [pc, #52]	; (8001b5c <HAL_TIM_MspPostInit+0x54>)
 8001b28:	6b1a      	ldr	r2, [r3, #48]	; 0x30
 8001b2a:	f042 0201 	orr.w	r2, r2, #1
 8001b2e:	631a      	str	r2, [r3, #48]	; 0x30
 8001b30:	6b1b      	ldr	r3, [r3, #48]	; 0x30
 8001b32:	f003 0301 	and.w	r3, r3, #1
 8001b36:	9300      	str	r3, [sp, #0]
 8001b38:	9b00      	ldr	r3, [sp, #0]
 8001b3a:	f44f 7240 	mov.w	r2, #768	; 0x300
 8001b3e:	2302      	movs	r3, #2
 8001b40:	e9cd 2301 	strd	r2, r3, [sp, #4]
 8001b44:	a901      	add	r1, sp, #4
 8001b46:	2301      	movs	r3, #1
 8001b48:	9305      	str	r3, [sp, #20]
 8001b4a:	f003 fa29 	bl	8004fa0 <HAL_GPIO_Init>
 8001b4e:	b006      	add	sp, #24
 8001b50:	bd10      	pop	{r4, pc}
 8001b52:	bf00      	nop
 8001b54:	40010000 	.word	0x40010000
 8001b58:	40023800 	.word	0x40023800
 8001b5c:	40020000 	.word	0x40020000

08001b60 <HAL_UART_MspInit>:
 8001b60:	b510      	push	{r4, lr}
 8001b62:	2214      	movs	r2, #20
 8001b64:	b08a      	sub	sp, #40	; 0x28
 8001b66:	4604      	mov	r4, r0
 8001b68:	2100      	movs	r1, #0
 8001b6a:	eb0d 0002 	add.w	r0, sp, r2
 8001b6e:	f005 f9e2 	bl	8006f36 <memset>
 8001b72:	6823      	ldr	r3, [r4, #0]
 8001b74:	4a2a      	ldr	r2, [pc, #168]	; (8001c20 <HAL_UART_MspInit+0xc0>)
 8001b76:	4293      	cmp	r3, r2
 8001b78:	d12c      	bne.n	8001bd4 <HAL_UART_MspInit+0x74>
 8001b7a:	4b2a      	ldr	r3, [pc, #168]	; (8001c24 <HAL_UART_MspInit+0xc4>)
 8001b7c:	2400      	movs	r4, #0
 8001b7e:	9401      	str	r4, [sp, #4]
 8001b80:	6c5a      	ldr	r2, [r3, #68]	; 0x44
 8001b82:	f042 0210 	orr.w	r2, r2, #16
 8001b86:	645a      	str	r2, [r3, #68]	; 0x44
 8001b88:	6c5a      	ldr	r2, [r3, #68]	; 0x44
 8001b8a:	f002 0210 	and.w	r2, r2, #16
 8001b8e:	9201      	str	r2, [sp, #4]
 8001b90:	9a01      	ldr	r2, [sp, #4]
 8001b92:	9402      	str	r4, [sp, #8]
 8001b94:	6b1a      	ldr	r2, [r3, #48]	; 0x30
 8001b96:	f042 0202 	orr.w	r2, r2, #2
 8001b9a:	631a      	str	r2, [r3, #48]	; 0x30
 8001b9c:	6b1b      	ldr	r3, [r3, #48]	; 0x30
 8001b9e:	f003 0302 	and.w	r3, r3, #2
 8001ba2:	9302      	str	r3, [sp, #8]
 8001ba4:	9b02      	ldr	r3, [sp, #8]
 8001ba6:	20c0      	movs	r0, #192	; 0xc0
 8001ba8:	2302      	movs	r3, #2
 8001baa:	e9cd 0305 	strd	r0, r3, [sp, #20]
 8001bae:	f04f 0c03 	mov.w	ip, #3
 8001bb2:	2307      	movs	r3, #7
 8001bb4:	a905      	add	r1, sp, #20
 8001bb6:	481c      	ldr	r0, [pc, #112]	; (8001c28 <HAL_UART_MspInit+0xc8>)
 8001bb8:	e9cd c308 	strd	ip, r3, [sp, #32]
 8001bbc:	f003 f9f0 	bl	8004fa0 <HAL_GPIO_Init>
 8001bc0:	2025      	movs	r0, #37	; 0x25
 8001bc2:	4622      	mov	r2, r4
 8001bc4:	4621      	mov	r1, r4
 8001bc6:	f002 fff5 	bl	8004bb4 <HAL_NVIC_SetPriority>
 8001bca:	2025      	movs	r0, #37	; 0x25
 8001bcc:	f003 f826 	bl	8004c1c <HAL_NVIC_EnableIRQ>
 8001bd0:	b00a      	add	sp, #40	; 0x28
 8001bd2:	bd10      	pop	{r4, pc}
 8001bd4:	4a15      	ldr	r2, [pc, #84]	; (8001c2c <HAL_UART_MspInit+0xcc>)
 8001bd6:	4293      	cmp	r3, r2
 8001bd8:	d1fa      	bne.n	8001bd0 <HAL_UART_MspInit+0x70>
 8001bda:	4b12      	ldr	r3, [pc, #72]	; (8001c24 <HAL_UART_MspInit+0xc4>)
 8001bdc:	4814      	ldr	r0, [pc, #80]	; (8001c30 <HAL_UART_MspInit+0xd0>)
 8001bde:	2100      	movs	r1, #0
 8001be0:	9103      	str	r1, [sp, #12]
 8001be2:	6c5a      	ldr	r2, [r3, #68]	; 0x44
 8001be4:	f042 0220 	orr.w	r2, r2, #32
 8001be8:	645a      	str	r2, [r3, #68]	; 0x44
 8001bea:	6c5a      	ldr	r2, [r3, #68]	; 0x44
 8001bec:	f002 0220 	and.w	r2, r2, #32
 8001bf0:	9203      	str	r2, [sp, #12]
 8001bf2:	9a03      	ldr	r2, [sp, #12]
 8001bf4:	9104      	str	r1, [sp, #16]
 8001bf6:	6b1a      	ldr	r2, [r3, #48]	; 0x30
 8001bf8:	f042 0204 	orr.w	r2, r2, #4
 8001bfc:	631a      	str	r2, [r3, #48]	; 0x30
 8001bfe:	6b1b      	ldr	r3, [r3, #48]	; 0x30
 8001c00:	f003 0304 	and.w	r3, r3, #4
 8001c04:	9304      	str	r3, [sp, #16]
 8001c06:	9b04      	ldr	r3, [sp, #16]
 8001c08:	22c0      	movs	r2, #192	; 0xc0
 8001c0a:	2302      	movs	r3, #2
 8001c0c:	e9cd 2305 	strd	r2, r3, [sp, #20]
 8001c10:	2103      	movs	r1, #3
 8001c12:	2308      	movs	r3, #8
 8001c14:	e9cd 1308 	strd	r1, r3, [sp, #32]
 8001c18:	a905      	add	r1, sp, #20
 8001c1a:	f003 f9c1 	bl	8004fa0 <HAL_GPIO_Init>
 8001c1e:	e7d7      	b.n	8001bd0 <HAL_UART_MspInit+0x70>
 8001c20:	40011000 	.word	0x40011000
 8001c24:	40023800 	.word	0x40023800
 8001c28:	40020400 	.word	0x40020400
 8001c2c:	40011400 	.word	0x40011400
 8001c30:	40020800 	.word	0x40020800

08001c34 <NMI_Handler>:
 8001c34:	4770      	bx	lr

08001c36 <HardFault_Handler>:
 8001c36:	e7fe      	b.n	8001c36 <HardFault_Handler>

08001c38 <MemManage_Handler>:
 8001c38:	e7fe      	b.n	8001c38 <MemManage_Handler>

08001c3a <BusFault_Handler>:
 8001c3a:	e7fe      	b.n	8001c3a <BusFault_Handler>

08001c3c <UsageFault_Handler>:
 8001c3c:	e7fe      	b.n	8001c3c <UsageFault_Handler>

08001c3e <SVC_Handler>:
 8001c3e:	4770      	bx	lr

08001c40 <DebugMon_Handler>:
 8001c40:	4770      	bx	lr

08001c42 <PendSV_Handler>:
 8001c42:	4770      	bx	lr

08001c44 <SysTick_Handler>:
 8001c44:	f002 bd70 	b.w	8004728 <HAL_IncTick>

08001c48 <EXTI0_IRQHandler>:
 8001c48:	2001      	movs	r0, #1
 8001c4a:	f003 ba83 	b.w	8005154 <HAL_GPIO_EXTI_IRQHandler>

08001c4e <EXTI1_IRQHandler>:
 8001c4e:	2002      	movs	r0, #2
 8001c50:	f003 ba80 	b.w	8005154 <HAL_GPIO_EXTI_IRQHandler>

08001c54 <EXTI2_IRQHandler>:
 8001c54:	2004      	movs	r0, #4
 8001c56:	f003 ba7d 	b.w	8005154 <HAL_GPIO_EXTI_IRQHandler>
	...

08001c5c <TIM1_UP_TIM10_IRQHandler>:
 8001c5c:	b508      	push	{r3, lr}
 8001c5e:	4804      	ldr	r0, [pc, #16]	; (8001c70 <TIM1_UP_TIM10_IRQHandler+0x14>)
 8001c60:	f004 f9ef 	bl	8006042 <HAL_TIM_IRQHandler>
 8001c64:	4803      	ldr	r0, [pc, #12]	; (8001c74 <TIM1_UP_TIM10_IRQHandler+0x18>)
 8001c66:	e8bd 4008 	ldmia.w	sp!, {r3, lr}
 8001c6a:	f004 b9ea 	b.w	8006042 <HAL_TIM_IRQHandler>
 8001c6e:	bf00      	nop
 8001c70:	20000a98 	.word	0x20000a98
 8001c74:	2000084c 	.word	0x2000084c

08001c78 <TIM1_TRG_COM_TIM11_IRQHandler>:
 8001c78:	b508      	push	{r3, lr}
 8001c7a:	4804      	ldr	r0, [pc, #16]	; (8001c8c <TIM1_TRG_COM_TIM11_IRQHandler+0x14>)
 8001c7c:	f004 f9e1 	bl	8006042 <HAL_TIM_IRQHandler>
 8001c80:	4803      	ldr	r0, [pc, #12]	; (8001c90 <TIM1_TRG_COM_TIM11_IRQHandler+0x18>)
 8001c82:	e8bd 4008 	ldmia.w	sp!, {r3, lr}
 8001c86:	f004 b9dc 	b.w	8006042 <HAL_TIM_IRQHandler>
 8001c8a:	bf00      	nop
 8001c8c:	20000a98 	.word	0x20000a98
 8001c90:	200009ec 	.word	0x200009ec

08001c94 <TIM2_IRQHandler>:
 8001c94:	4801      	ldr	r0, [pc, #4]	; (8001c9c <TIM2_IRQHandler+0x8>)
 8001c96:	f004 b9d4 	b.w	8006042 <HAL_TIM_IRQHandler>
 8001c9a:	bf00      	nop
 8001c9c:	20000bc8 	.word	0x20000bc8

08001ca0 <USART1_IRQHandler>:
 8001ca0:	4801      	ldr	r0, [pc, #4]	; (8001ca8 <USART1_IRQHandler+0x8>)
 8001ca2:	f004 be8b 	b.w	80069bc <HAL_UART_IRQHandler>
 8001ca6:	bf00      	nop
 8001ca8:	200009ac 	.word	0x200009ac

08001cac <EXTI15_10_IRQHandler>:
 8001cac:	f44f 5080 	mov.w	r0, #4096	; 0x1000
 8001cb0:	f003 ba50 	b.w	8005154 <HAL_GPIO_EXTI_IRQHandler>

08001cb4 <DMA2_Stream0_IRQHandler>:
 8001cb4:	4801      	ldr	r0, [pc, #4]	; (8001cbc <DMA2_Stream0_IRQHandler+0x8>)
 8001cb6:	f003 b8b5 	b.w	8004e24 <HAL_DMA_IRQHandler>
 8001cba:	bf00      	nop
 8001cbc:	20000a2c 	.word	0x20000a2c

08001cc0 <_read>:
 8001cc0:	b570      	push	{r4, r5, r6, lr}
 8001cc2:	460e      	mov	r6, r1
 8001cc4:	4615      	mov	r5, r2
 8001cc6:	460c      	mov	r4, r1
 8001cc8:	1ba3      	subs	r3, r4, r6
 8001cca:	429d      	cmp	r5, r3
 8001ccc:	dc01      	bgt.n	8001cd2 <_read+0x12>
 8001cce:	4628      	mov	r0, r5
 8001cd0:	bd70      	pop	{r4, r5, r6, pc}
 8001cd2:	f3af 8000 	nop.w
 8001cd6:	f804 0b01 	strb.w	r0, [r4], #1
 8001cda:	e7f5      	b.n	8001cc8 <_read+0x8>

08001cdc <_close>:
 8001cdc:	f04f 30ff 	mov.w	r0, #4294967295
 8001ce0:	4770      	bx	lr

08001ce2 <_fstat>:
 8001ce2:	f44f 5300 	mov.w	r3, #8192	; 0x2000
 8001ce6:	604b      	str	r3, [r1, #4]
 8001ce8:	2000      	movs	r0, #0
 8001cea:	4770      	bx	lr

08001cec <_isatty>:
 8001cec:	2001      	movs	r0, #1
 8001cee:	4770      	bx	lr

08001cf0 <_lseek>:
 8001cf0:	2000      	movs	r0, #0
 8001cf2:	4770      	bx	lr

08001cf4 <_sbrk>:
 8001cf4:	4b0b      	ldr	r3, [pc, #44]	; (8001d24 <_sbrk+0x30>)
 8001cf6:	6819      	ldr	r1, [r3, #0]
 8001cf8:	b510      	push	{r4, lr}
 8001cfa:	4602      	mov	r2, r0
 8001cfc:	b909      	cbnz	r1, 8001d02 <_sbrk+0xe>
 8001cfe:	490a      	ldr	r1, [pc, #40]	; (8001d28 <_sbrk+0x34>)
 8001d00:	6019      	str	r1, [r3, #0]
 8001d02:	6818      	ldr	r0, [r3, #0]
 8001d04:	4909      	ldr	r1, [pc, #36]	; (8001d2c <_sbrk+0x38>)
 8001d06:	4c0a      	ldr	r4, [pc, #40]	; (8001d30 <_sbrk+0x3c>)
 8001d08:	4402      	add	r2, r0
 8001d0a:	1b09      	subs	r1, r1, r4
 8001d0c:	428a      	cmp	r2, r1
 8001d0e:	d906      	bls.n	8001d1e <_sbrk+0x2a>
 8001d10:	f004 fefe 	bl	8006b10 <__errno>
 8001d14:	230c      	movs	r3, #12
 8001d16:	6003      	str	r3, [r0, #0]
 8001d18:	f04f 30ff 	mov.w	r0, #4294967295
 8001d1c:	bd10      	pop	{r4, pc}
 8001d1e:	601a      	str	r2, [r3, #0]
 8001d20:	e7fc      	b.n	8001d1c <_sbrk+0x28>
 8001d22:	bf00      	nop
 8001d24:	2000036c 	.word	0x2000036c
 8001d28:	20000c50 	.word	0x20000c50
 8001d2c:	20020000 	.word	0x20020000
 8001d30:	00000400 	.word	0x00000400

08001d34 <SystemInit>:
 8001d34:	4b05      	ldr	r3, [pc, #20]	; (8001d4c <SystemInit+0x18>)
 8001d36:	f8d3 2088 	ldr.w	r2, [r3, #136]	; 0x88
 8001d3a:	f442 0270 	orr.w	r2, r2, #15728640	; 0xf00000
 8001d3e:	f8c3 2088 	str.w	r2, [r3, #136]	; 0x88
 8001d42:	f04f 6200 	mov.w	r2, #134217728	; 0x8000000
 8001d46:	609a      	str	r2, [r3, #8]
 8001d48:	4770      	bx	lr
 8001d4a:	bf00      	nop
 8001d4c:	e000ed00 	.word	0xe000ed00

08001d50 <VL53L0X_SetDeviceAddress>:
 8001d50:	084a      	lsrs	r2, r1, #1
 8001d52:	218a      	movs	r1, #138	; 0x8a
 8001d54:	f002 bb62 	b.w	800441c <VL53L0X_WrByte>

08001d58 <VL53L0X_SetDeviceMode>:
 8001d58:	2915      	cmp	r1, #21
 8001d5a:	d807      	bhi.n	8001d6c <VL53L0X_SetDeviceMode+0x14>
 8001d5c:	2201      	movs	r2, #1
 8001d5e:	4b05      	ldr	r3, [pc, #20]	; (8001d74 <VL53L0X_SetDeviceMode+0x1c>)
 8001d60:	408a      	lsls	r2, r1
 8001d62:	4013      	ands	r3, r2
 8001d64:	b113      	cbz	r3, 8001d6c <VL53L0X_SetDeviceMode+0x14>
 8001d66:	7401      	strb	r1, [r0, #16]
 8001d68:	2000      	movs	r0, #0
 8001d6a:	4770      	bx	lr
 8001d6c:	f06f 0007 	mvn.w	r0, #7
 8001d70:	4770      	bx	lr
 8001d72:	bf00      	nop
 8001d74:	0030000b 	.word	0x0030000b

08001d78 <VL53L0X_GetFractionEnable>:
 8001d78:	b510      	push	{r4, lr}
 8001d7a:	460a      	mov	r2, r1
 8001d7c:	460c      	mov	r4, r1
 8001d7e:	2109      	movs	r1, #9
 8001d80:	f002 fb8d 	bl	800449e <VL53L0X_RdByte>
 8001d84:	b918      	cbnz	r0, 8001d8e <VL53L0X_GetFractionEnable+0x16>
 8001d86:	7823      	ldrb	r3, [r4, #0]
 8001d88:	f003 0301 	and.w	r3, r3, #1
 8001d8c:	7023      	strb	r3, [r4, #0]
 8001d8e:	bd10      	pop	{r4, pc}

08001d90 <VL53L0X_SetMeasurementTimingBudgetMicroSeconds>:
 8001d90:	f001 be97 	b.w	8003ac2 <VL53L0X_set_measurement_timing_budget_micro_seconds>

08001d94 <VL53L0X_SetVcselPulsePeriod>:
 8001d94:	f001 bd72 	b.w	800387c <VL53L0X_set_vcsel_pulse_period>

08001d98 <VL53L0X_GetVcselPulsePeriod>:
 8001d98:	f001 be7a 	b.w	8003a90 <VL53L0X_get_vcsel_pulse_period>

08001d9c <VL53L0X_SetSequenceStepEnable>:
 8001d9c:	b5f7      	push	{r0, r1, r2, r4, r5, r6, r7, lr}
 8001d9e:	4617      	mov	r7, r2
 8001da0:	aa02      	add	r2, sp, #8
 8001da2:	2300      	movs	r3, #0
 8001da4:	460c      	mov	r4, r1
 8001da6:	f802 3d01 	strb.w	r3, [r2, #-1]!
 8001daa:	2101      	movs	r1, #1
 8001dac:	4606      	mov	r6, r0
 8001dae:	f002 fb76 	bl	800449e <VL53L0X_RdByte>
 8001db2:	4605      	mov	r5, r0
 8001db4:	b9d8      	cbnz	r0, 8001dee <VL53L0X_SetSequenceStepEnable+0x52>
 8001db6:	2f01      	cmp	r7, #1
 8001db8:	f89d 3007 	ldrb.w	r3, [sp, #7]
 8001dbc:	d126      	bne.n	8001e0c <VL53L0X_SetSequenceStepEnable+0x70>
 8001dbe:	2c04      	cmp	r4, #4
 8001dc0:	d83a      	bhi.n	8001e38 <VL53L0X_SetSequenceStepEnable+0x9c>
 8001dc2:	e8df f004 	tbb	[pc, r4]
 8001dc6:	1703      	.short	0x1703
 8001dc8:	1d1a      	.short	0x1d1a
 8001dca:	20          	.byte	0x20
 8001dcb:	00          	.byte	0x00
 8001dcc:	f043 0410 	orr.w	r4, r3, #16
 8001dd0:	42a3      	cmp	r3, r4
 8001dd2:	d00c      	beq.n	8001dee <VL53L0X_SetSequenceStepEnable+0x52>
 8001dd4:	4622      	mov	r2, r4
 8001dd6:	2101      	movs	r1, #1
 8001dd8:	4630      	mov	r0, r6
 8001dda:	f002 fb1f 	bl	800441c <VL53L0X_WrByte>
 8001dde:	4605      	mov	r5, r0
 8001de0:	b928      	cbnz	r0, 8001dee <VL53L0X_SetSequenceStepEnable+0x52>
 8001de2:	f886 4130 	strb.w	r4, [r6, #304]	; 0x130
 8001de6:	6971      	ldr	r1, [r6, #20]
 8001de8:	4630      	mov	r0, r6
 8001dea:	f7ff ffd1 	bl	8001d90 <VL53L0X_SetMeasurementTimingBudgetMicroSeconds>
 8001dee:	4628      	mov	r0, r5
 8001df0:	b003      	add	sp, #12
 8001df2:	bdf0      	pop	{r4, r5, r6, r7, pc}
 8001df4:	f043 0428 	orr.w	r4, r3, #40	; 0x28
 8001df8:	e7ea      	b.n	8001dd0 <VL53L0X_SetSequenceStepEnable+0x34>
 8001dfa:	f043 0404 	orr.w	r4, r3, #4
 8001dfe:	e7e7      	b.n	8001dd0 <VL53L0X_SetSequenceStepEnable+0x34>
 8001e00:	f043 0440 	orr.w	r4, r3, #64	; 0x40
 8001e04:	e7e4      	b.n	8001dd0 <VL53L0X_SetSequenceStepEnable+0x34>
 8001e06:	f043 0480 	orr.w	r4, r3, #128	; 0x80
 8001e0a:	e7e1      	b.n	8001dd0 <VL53L0X_SetSequenceStepEnable+0x34>
 8001e0c:	2c04      	cmp	r4, #4
 8001e0e:	d813      	bhi.n	8001e38 <VL53L0X_SetSequenceStepEnable+0x9c>
 8001e10:	e8df f004 	tbb	[pc, r4]
 8001e14:	0c090603 	.word	0x0c090603
 8001e18:	0f          	.byte	0x0f
 8001e19:	00          	.byte	0x00
 8001e1a:	f003 04ef 	and.w	r4, r3, #239	; 0xef
 8001e1e:	e7d7      	b.n	8001dd0 <VL53L0X_SetSequenceStepEnable+0x34>
 8001e20:	f003 04d7 	and.w	r4, r3, #215	; 0xd7
 8001e24:	e7d4      	b.n	8001dd0 <VL53L0X_SetSequenceStepEnable+0x34>
 8001e26:	f003 04fb 	and.w	r4, r3, #251	; 0xfb
 8001e2a:	e7d1      	b.n	8001dd0 <VL53L0X_SetSequenceStepEnable+0x34>
 8001e2c:	f003 04bf 	and.w	r4, r3, #191	; 0xbf
 8001e30:	e7ce      	b.n	8001dd0 <VL53L0X_SetSequenceStepEnable+0x34>
 8001e32:	f003 047f 	and.w	r4, r3, #127	; 0x7f
 8001e36:	e7cb      	b.n	8001dd0 <VL53L0X_SetSequenceStepEnable+0x34>
 8001e38:	f06f 0503 	mvn.w	r5, #3
 8001e3c:	e7d7      	b.n	8001dee <VL53L0X_SetSequenceStepEnable+0x52>

08001e3e <VL53L0X_GetSequenceStepEnables>:
 8001e3e:	b513      	push	{r0, r1, r4, lr}
 8001e40:	aa02      	add	r2, sp, #8
 8001e42:	2300      	movs	r3, #0
 8001e44:	460c      	mov	r4, r1
 8001e46:	f802 3d01 	strb.w	r3, [r2, #-1]!
 8001e4a:	2101      	movs	r1, #1
 8001e4c:	f002 fb27 	bl	800449e <VL53L0X_RdByte>
 8001e50:	b978      	cbnz	r0, 8001e72 <VL53L0X_GetSequenceStepEnables+0x34>
 8001e52:	f89d 3007 	ldrb.w	r3, [sp, #7]
 8001e56:	f3c3 1200 	ubfx	r2, r3, #4, #1
 8001e5a:	7022      	strb	r2, [r4, #0]
 8001e5c:	f3c3 02c0 	ubfx	r2, r3, #3, #1
 8001e60:	70a2      	strb	r2, [r4, #2]
 8001e62:	f3c3 0280 	ubfx	r2, r3, #2, #1
 8001e66:	7062      	strb	r2, [r4, #1]
 8001e68:	f3c3 1280 	ubfx	r2, r3, #6, #1
 8001e6c:	09db      	lsrs	r3, r3, #7
 8001e6e:	70e2      	strb	r2, [r4, #3]
 8001e70:	7123      	strb	r3, [r4, #4]
 8001e72:	b002      	add	sp, #8
 8001e74:	bd10      	pop	{r4, pc}

08001e76 <VL53L0X_GetInterMeasurementPeriodMilliSeconds>:
 8001e76:	b537      	push	{r0, r1, r2, r4, r5, lr}
 8001e78:	460d      	mov	r5, r1
 8001e7a:	f10d 0202 	add.w	r2, sp, #2
 8001e7e:	21f8      	movs	r1, #248	; 0xf8
 8001e80:	4604      	mov	r4, r0
 8001e82:	f002 fb1b 	bl	80044bc <VL53L0X_RdWord>
 8001e86:	b970      	cbnz	r0, 8001ea6 <VL53L0X_GetInterMeasurementPeriodMilliSeconds+0x30>
 8001e88:	aa01      	add	r2, sp, #4
 8001e8a:	2104      	movs	r1, #4
 8001e8c:	4620      	mov	r0, r4
 8001e8e:	f002 fb24 	bl	80044da <VL53L0X_RdDWord>
 8001e92:	b940      	cbnz	r0, 8001ea6 <VL53L0X_GetInterMeasurementPeriodMilliSeconds+0x30>
 8001e94:	f8bd 2002 	ldrh.w	r2, [sp, #2]
 8001e98:	b11a      	cbz	r2, 8001ea2 <VL53L0X_GetInterMeasurementPeriodMilliSeconds+0x2c>
 8001e9a:	9b01      	ldr	r3, [sp, #4]
 8001e9c:	fbb3 f3f2 	udiv	r3, r3, r2
 8001ea0:	602b      	str	r3, [r5, #0]
 8001ea2:	682b      	ldr	r3, [r5, #0]
 8001ea4:	61a3      	str	r3, [r4, #24]
 8001ea6:	b003      	add	sp, #12
 8001ea8:	bd30      	pop	{r4, r5, pc}

08001eaa <VL53L0X_GetXTalkCompensationEnable>:
 8001eaa:	7f03      	ldrb	r3, [r0, #28]
 8001eac:	700b      	strb	r3, [r1, #0]
 8001eae:	2000      	movs	r0, #0
 8001eb0:	4770      	bx	lr

08001eb2 <VL53L0X_GetXTalkCompensationRateMegaCps>:
 8001eb2:	b537      	push	{r0, r1, r2, r4, r5, lr}
 8001eb4:	460d      	mov	r5, r1
 8001eb6:	f10d 0206 	add.w	r2, sp, #6
 8001eba:	2120      	movs	r1, #32
 8001ebc:	4604      	mov	r4, r0
 8001ebe:	f002 fafd 	bl	80044bc <VL53L0X_RdWord>
 8001ec2:	b928      	cbnz	r0, 8001ed0 <VL53L0X_GetXTalkCompensationRateMegaCps+0x1e>
 8001ec4:	f8bd 3006 	ldrh.w	r3, [sp, #6]
 8001ec8:	b923      	cbnz	r3, 8001ed4 <VL53L0X_GetXTalkCompensationRateMegaCps+0x22>
 8001eca:	6a23      	ldr	r3, [r4, #32]
 8001ecc:	602b      	str	r3, [r5, #0]
 8001ece:	7720      	strb	r0, [r4, #28]
 8001ed0:	b003      	add	sp, #12
 8001ed2:	bd30      	pop	{r4, r5, pc}
 8001ed4:	00db      	lsls	r3, r3, #3
 8001ed6:	602b      	str	r3, [r5, #0]
 8001ed8:	6223      	str	r3, [r4, #32]
 8001eda:	2301      	movs	r3, #1
 8001edc:	7723      	strb	r3, [r4, #28]
 8001ede:	e7f7      	b.n	8001ed0 <VL53L0X_GetXTalkCompensationRateMegaCps+0x1e>

08001ee0 <VL53L0X_SetLimitCheckEnable>:
 8001ee0:	2905      	cmp	r1, #5
 8001ee2:	b570      	push	{r4, r5, r6, lr}
 8001ee4:	4604      	mov	r4, r0
 8001ee6:	460e      	mov	r6, r1
 8001ee8:	4615      	mov	r5, r2
 8001eea:	d835      	bhi.n	8001f58 <VL53L0X_SetLimitCheckEnable+0x78>
 8001eec:	b162      	cbz	r2, 8001f08 <VL53L0X_SetLimitCheckEnable+0x28>
 8001eee:	eb00 0381 	add.w	r3, r0, r1, lsl #2
 8001ef2:	2101      	movs	r1, #1
 8001ef4:	6b5a      	ldr	r2, [r3, #52]	; 0x34
 8001ef6:	2300      	movs	r3, #0
 8001ef8:	1e70      	subs	r0, r6, #1
 8001efa:	2804      	cmp	r0, #4
 8001efc:	d807      	bhi.n	8001f0e <VL53L0X_SetLimitCheckEnable+0x2e>
 8001efe:	e8df f000 	tbb	[pc, r0]
 8001f02:	170e      	.short	0x170e
 8001f04:	1d1a      	.short	0x1d1a
 8001f06:	24          	.byte	0x24
 8001f07:	00          	.byte	0x00
 8001f08:	4611      	mov	r1, r2
 8001f0a:	2301      	movs	r3, #1
 8001f0c:	e7f4      	b.n	8001ef8 <VL53L0X_SetLimitCheckEnable+0x18>
 8001f0e:	f884 1028 	strb.w	r1, [r4, #40]	; 0x28
 8001f12:	4434      	add	r4, r6
 8001f14:	b9e5      	cbnz	r5, 8001f50 <VL53L0X_SetLimitCheckEnable+0x70>
 8001f16:	f884 5028 	strb.w	r5, [r4, #40]	; 0x28
 8001f1a:	2000      	movs	r0, #0
 8001f1c:	e007      	b.n	8001f2e <VL53L0X_SetLimitCheckEnable+0x4e>
 8001f1e:	f3c2 224f 	ubfx	r2, r2, #9, #16
 8001f22:	2144      	movs	r1, #68	; 0x44
 8001f24:	4620      	mov	r0, r4
 8001f26:	f002 fa88 	bl	800443a <VL53L0X_WrWord>
 8001f2a:	2800      	cmp	r0, #0
 8001f2c:	d0f1      	beq.n	8001f12 <VL53L0X_SetLimitCheckEnable+0x32>
 8001f2e:	bd70      	pop	{r4, r5, r6, pc}
 8001f30:	f884 102a 	strb.w	r1, [r4, #42]	; 0x2a
 8001f34:	e7ed      	b.n	8001f12 <VL53L0X_SetLimitCheckEnable+0x32>
 8001f36:	f884 102b 	strb.w	r1, [r4, #43]	; 0x2b
 8001f3a:	e7ea      	b.n	8001f12 <VL53L0X_SetLimitCheckEnable+0x32>
 8001f3c:	005b      	lsls	r3, r3, #1
 8001f3e:	22fe      	movs	r2, #254	; 0xfe
 8001f40:	2160      	movs	r1, #96	; 0x60
 8001f42:	4620      	mov	r0, r4
 8001f44:	f002 fa88 	bl	8004458 <VL53L0X_UpdateByte>
 8001f48:	e7ef      	b.n	8001f2a <VL53L0X_SetLimitCheckEnable+0x4a>
 8001f4a:	011b      	lsls	r3, r3, #4
 8001f4c:	22ef      	movs	r2, #239	; 0xef
 8001f4e:	e7f7      	b.n	8001f40 <VL53L0X_SetLimitCheckEnable+0x60>
 8001f50:	2301      	movs	r3, #1
 8001f52:	f884 3028 	strb.w	r3, [r4, #40]	; 0x28
 8001f56:	e7e0      	b.n	8001f1a <VL53L0X_SetLimitCheckEnable+0x3a>
 8001f58:	f06f 0003 	mvn.w	r0, #3
 8001f5c:	e7e7      	b.n	8001f2e <VL53L0X_SetLimitCheckEnable+0x4e>

08001f5e <VL53L0X_GetLimitCheckEnable>:
 8001f5e:	2905      	cmp	r1, #5
 8001f60:	bf8c      	ite	hi
 8001f62:	f06f 0003 	mvnhi.w	r0, #3
 8001f66:	1840      	addls	r0, r0, r1
 8001f68:	f04f 0300 	mov.w	r3, #0
 8001f6c:	bf97      	itett	ls
 8001f6e:	f890 1028 	ldrbls.w	r1, [r0, #40]	; 0x28
 8001f72:	7013      	strbhi	r3, [r2, #0]
 8001f74:	7011      	strbls	r1, [r2, #0]
 8001f76:	4618      	movls	r0, r3
 8001f78:	4770      	bx	lr

08001f7a <VL53L0X_SetLimitCheckValue>:
 8001f7a:	b570      	push	{r4, r5, r6, lr}
 8001f7c:	1843      	adds	r3, r0, r1
 8001f7e:	4604      	mov	r4, r0
 8001f80:	f893 0028 	ldrb.w	r0, [r3, #40]	; 0x28
 8001f84:	460e      	mov	r6, r1
 8001f86:	4615      	mov	r5, r2
 8001f88:	b918      	cbnz	r0, 8001f92 <VL53L0X_SetLimitCheckValue+0x18>
 8001f8a:	eb04 0481 	add.w	r4, r4, r1, lsl #2
 8001f8e:	6362      	str	r2, [r4, #52]	; 0x34
 8001f90:	bd70      	pop	{r4, r5, r6, pc}
 8001f92:	2905      	cmp	r1, #5
 8001f94:	d81b      	bhi.n	8001fce <VL53L0X_SetLimitCheckValue+0x54>
 8001f96:	e8df f001 	tbb	[pc, r1]
 8001f9a:	0903      	.short	0x0903
 8001f9c:	16161412 	.word	0x16161412
 8001fa0:	6362      	str	r2, [r4, #52]	; 0x34
 8001fa2:	eb04 0486 	add.w	r4, r4, r6, lsl #2
 8001fa6:	2000      	movs	r0, #0
 8001fa8:	6365      	str	r5, [r4, #52]	; 0x34
 8001faa:	e7f1      	b.n	8001f90 <VL53L0X_SetLimitCheckValue+0x16>
 8001fac:	f3c2 224f 	ubfx	r2, r2, #9, #16
 8001fb0:	2144      	movs	r1, #68	; 0x44
 8001fb2:	4620      	mov	r0, r4
 8001fb4:	f002 fa41 	bl	800443a <VL53L0X_WrWord>
 8001fb8:	2800      	cmp	r0, #0
 8001fba:	d0f2      	beq.n	8001fa2 <VL53L0X_SetLimitCheckValue+0x28>
 8001fbc:	e7e8      	b.n	8001f90 <VL53L0X_SetLimitCheckValue+0x16>
 8001fbe:	63e2      	str	r2, [r4, #60]	; 0x3c
 8001fc0:	e7ef      	b.n	8001fa2 <VL53L0X_SetLimitCheckValue+0x28>
 8001fc2:	6422      	str	r2, [r4, #64]	; 0x40
 8001fc4:	e7ed      	b.n	8001fa2 <VL53L0X_SetLimitCheckValue+0x28>
 8001fc6:	f3c2 224f 	ubfx	r2, r2, #9, #16
 8001fca:	2164      	movs	r1, #100	; 0x64
 8001fcc:	e7f1      	b.n	8001fb2 <VL53L0X_SetLimitCheckValue+0x38>
 8001fce:	f06f 0003 	mvn.w	r0, #3
 8001fd2:	e7dd      	b.n	8001f90 <VL53L0X_SetLimitCheckValue+0x16>

08001fd4 <VL53L0X_GetLimitCheckValue>:
 8001fd4:	b537      	push	{r0, r1, r2, r4, r5, lr}
 8001fd6:	4604      	mov	r4, r0
 8001fd8:	4615      	mov	r5, r2
 8001fda:	2905      	cmp	r1, #5
 8001fdc:	d82c      	bhi.n	8002038 <VL53L0X_GetLimitCheckValue+0x64>
 8001fde:	e8df f001 	tbb	[pc, r1]
 8001fe2:	0703      	.short	0x0703
 8001fe4:	1b1b1917 	.word	0x1b1b1917
 8001fe8:	6b43      	ldr	r3, [r0, #52]	; 0x34
 8001fea:	602b      	str	r3, [r5, #0]
 8001fec:	2000      	movs	r0, #0
 8001fee:	e021      	b.n	8002034 <VL53L0X_GetLimitCheckValue+0x60>
 8001ff0:	f10d 0206 	add.w	r2, sp, #6
 8001ff4:	2144      	movs	r1, #68	; 0x44
 8001ff6:	f002 fa61 	bl	80044bc <VL53L0X_RdWord>
 8001ffa:	b9d8      	cbnz	r0, 8002034 <VL53L0X_GetLimitCheckValue+0x60>
 8001ffc:	f8bd 2006 	ldrh.w	r2, [sp, #6]
 8002000:	0253      	lsls	r3, r2, #9
 8002002:	b19a      	cbz	r2, 800202c <VL53L0X_GetLimitCheckValue+0x58>
 8002004:	602b      	str	r3, [r5, #0]
 8002006:	63a3      	str	r3, [r4, #56]	; 0x38
 8002008:	2301      	movs	r3, #1
 800200a:	f884 3029 	strb.w	r3, [r4, #41]	; 0x29
 800200e:	e011      	b.n	8002034 <VL53L0X_GetLimitCheckValue+0x60>
 8002010:	6bc3      	ldr	r3, [r0, #60]	; 0x3c
 8002012:	e7ea      	b.n	8001fea <VL53L0X_GetLimitCheckValue+0x16>
 8002014:	6c03      	ldr	r3, [r0, #64]	; 0x40
 8002016:	e7e8      	b.n	8001fea <VL53L0X_GetLimitCheckValue+0x16>
 8002018:	f10d 0206 	add.w	r2, sp, #6
 800201c:	2164      	movs	r1, #100	; 0x64
 800201e:	f002 fa4d 	bl	80044bc <VL53L0X_RdWord>
 8002022:	b938      	cbnz	r0, 8002034 <VL53L0X_GetLimitCheckValue+0x60>
 8002024:	f8bd 3006 	ldrh.w	r3, [sp, #6]
 8002028:	025b      	lsls	r3, r3, #9
 800202a:	e7de      	b.n	8001fea <VL53L0X_GetLimitCheckValue+0x16>
 800202c:	6ba3      	ldr	r3, [r4, #56]	; 0x38
 800202e:	602b      	str	r3, [r5, #0]
 8002030:	f884 0029 	strb.w	r0, [r4, #41]	; 0x29
 8002034:	b003      	add	sp, #12
 8002036:	bd30      	pop	{r4, r5, pc}
 8002038:	f06f 0003 	mvn.w	r0, #3
 800203c:	e7fa      	b.n	8002034 <VL53L0X_GetLimitCheckValue+0x60>

0800203e <VL53L0X_GetWrapAroundCheckEnable>:
 800203e:	b537      	push	{r0, r1, r2, r4, r5, lr}
 8002040:	460c      	mov	r4, r1
 8002042:	f10d 0207 	add.w	r2, sp, #7
 8002046:	2101      	movs	r1, #1
 8002048:	4605      	mov	r5, r0
 800204a:	f002 fa28 	bl	800449e <VL53L0X_RdByte>
 800204e:	b958      	cbnz	r0, 8002068 <VL53L0X_GetWrapAroundCheckEnable+0x2a>
 8002050:	f89d 3007 	ldrb.w	r3, [sp, #7]
 8002054:	f885 3130 	strb.w	r3, [r5, #304]	; 0x130
 8002058:	061b      	lsls	r3, r3, #24
 800205a:	bf46      	itte	mi
 800205c:	2301      	movmi	r3, #1
 800205e:	7023      	strbmi	r3, [r4, #0]
 8002060:	7020      	strbpl	r0, [r4, #0]
 8002062:	7823      	ldrb	r3, [r4, #0]
 8002064:	f885 304c 	strb.w	r3, [r5, #76]	; 0x4c
 8002068:	b003      	add	sp, #12
 800206a:	bd30      	pop	{r4, r5, pc}

0800206c <VL53L0X_GetDeviceParameters>:
 800206c:	e92d 41f0 	stmdb	sp!, {r4, r5, r6, r7, r8, lr}
 8002070:	7c03      	ldrb	r3, [r0, #16]
 8002072:	460c      	mov	r4, r1
 8002074:	f801 3b08 	strb.w	r3, [r1], #8
 8002078:	4605      	mov	r5, r0
 800207a:	f7ff fefc 	bl	8001e76 <VL53L0X_GetInterMeasurementPeriodMilliSeconds>
 800207e:	bb38      	cbnz	r0, 80020d0 <VL53L0X_GetDeviceParameters+0x64>
 8002080:	7320      	strb	r0, [r4, #12]
 8002082:	f104 0110 	add.w	r1, r4, #16
 8002086:	4628      	mov	r0, r5
 8002088:	f7ff ff13 	bl	8001eb2 <VL53L0X_GetXTalkCompensationRateMegaCps>
 800208c:	bb00      	cbnz	r0, 80020d0 <VL53L0X_GetDeviceParameters+0x64>
 800208e:	f104 0114 	add.w	r1, r4, #20
 8002092:	4628      	mov	r0, r5
 8002094:	f000 fc4d 	bl	8002932 <VL53L0X_get_offset_calibration_data_micro_meter>
 8002098:	b9d0      	cbnz	r0, 80020d0 <VL53L0X_GetDeviceParameters+0x64>
 800209a:	f104 0724 	add.w	r7, r4, #36	; 0x24
 800209e:	f104 0818 	add.w	r8, r4, #24
 80020a2:	4606      	mov	r6, r0
 80020a4:	463a      	mov	r2, r7
 80020a6:	b2b1      	uxth	r1, r6
 80020a8:	4628      	mov	r0, r5
 80020aa:	f7ff ff93 	bl	8001fd4 <VL53L0X_GetLimitCheckValue>
 80020ae:	b978      	cbnz	r0, 80020d0 <VL53L0X_GetDeviceParameters+0x64>
 80020b0:	19ab      	adds	r3, r5, r6
 80020b2:	3601      	adds	r6, #1
 80020b4:	f893 3028 	ldrb.w	r3, [r3, #40]	; 0x28
 80020b8:	f808 3b01 	strb.w	r3, [r8], #1
 80020bc:	2e06      	cmp	r6, #6
 80020be:	f107 0704 	add.w	r7, r7, #4
 80020c2:	d1ef      	bne.n	80020a4 <VL53L0X_GetDeviceParameters+0x38>
 80020c4:	f104 013c 	add.w	r1, r4, #60	; 0x3c
 80020c8:	4628      	mov	r0, r5
 80020ca:	f7ff ffb8 	bl	800203e <VL53L0X_GetWrapAroundCheckEnable>
 80020ce:	b108      	cbz	r0, 80020d4 <VL53L0X_GetDeviceParameters+0x68>
 80020d0:	e8bd 81f0 	ldmia.w	sp!, {r4, r5, r6, r7, r8, pc}
 80020d4:	1d21      	adds	r1, r4, #4
 80020d6:	4628      	mov	r0, r5
 80020d8:	e8bd 41f0 	ldmia.w	sp!, {r4, r5, r6, r7, r8, lr}
 80020dc:	f001 bd54 	b.w	8003b88 <VL53L0X_get_measurement_timing_budget_micro_seconds>

080020e0 <VL53L0X_DataInit>:
 80020e0:	b5f0      	push	{r4, r5, r6, r7, lr}
 80020e2:	2200      	movs	r2, #0
 80020e4:	4605      	mov	r5, r0
 80020e6:	b093      	sub	sp, #76	; 0x4c
 80020e8:	2188      	movs	r1, #136	; 0x88
 80020ea:	f002 f997 	bl	800441c <VL53L0X_WrByte>
 80020ee:	f44f 727a 	mov.w	r2, #1000	; 0x3e8
 80020f2:	f8a5 2152 	strh.w	r2, [r5, #338]	; 0x152
 80020f6:	f44f 72c8 	mov.w	r2, #400	; 0x190
 80020fa:	f8a5 2154 	strh.w	r2, [r5, #340]	; 0x154
 80020fe:	4a4c      	ldr	r2, [pc, #304]	; (8002230 <VL53L0X_DataInit+0x150>)
 8002100:	f8c5 2158 	str.w	r2, [r5, #344]	; 0x158
 8002104:	2300      	movs	r3, #0
 8002106:	4a4b      	ldr	r2, [pc, #300]	; (8002234 <VL53L0X_DataInit+0x154>)
 8002108:	f885 30f0 	strb.w	r3, [r5, #240]	; 0xf0
 800210c:	f8c5 20d4 	str.w	r2, [r5, #212]	; 0xd4
 8002110:	622b      	str	r3, [r5, #32]
 8002112:	a902      	add	r1, sp, #8
 8002114:	4628      	mov	r0, r5
 8002116:	f7ff ffa9 	bl	800206c <VL53L0X_GetDeviceParameters>
 800211a:	4604      	mov	r4, r0
 800211c:	b970      	cbnz	r0, 800213c <VL53L0X_DataInit+0x5c>
 800211e:	f8ad 0008 	strh.w	r0, [sp, #8]
 8002122:	ae02      	add	r6, sp, #8
 8002124:	ce0f      	ldmia	r6!, {r0, r1, r2, r3}
 8002126:	f105 0710 	add.w	r7, r5, #16
 800212a:	c70f      	stmia	r7!, {r0, r1, r2, r3}
 800212c:	ce0f      	ldmia	r6!, {r0, r1, r2, r3}
 800212e:	c70f      	stmia	r7!, {r0, r1, r2, r3}
 8002130:	ce0f      	ldmia	r6!, {r0, r1, r2, r3}
 8002132:	c70f      	stmia	r7!, {r0, r1, r2, r3}
 8002134:	e896 000f 	ldmia.w	r6, {r0, r1, r2, r3}
 8002138:	e887 000f 	stmia.w	r7, {r0, r1, r2, r3}
 800213c:	4b3e      	ldr	r3, [pc, #248]	; (8002238 <VL53L0X_DataInit+0x158>)
 800213e:	f8c5 3134 	str.w	r3, [r5, #308]	; 0x134
 8002142:	f44f 73fa 	mov.w	r3, #500	; 0x1f4
 8002146:	2601      	movs	r6, #1
 8002148:	f8a5 3138 	strh.w	r3, [r5, #312]	; 0x138
 800214c:	f44f 6320 	mov.w	r3, #2560	; 0xa00
 8002150:	f8a5 313c 	strh.w	r3, [r5, #316]	; 0x13c
 8002154:	4632      	mov	r2, r6
 8002156:	2180      	movs	r1, #128	; 0x80
 8002158:	f885 6150 	strb.w	r6, [r5, #336]	; 0x150
 800215c:	4628      	mov	r0, r5
 800215e:	f002 f95d 	bl	800441c <VL53L0X_WrByte>
 8002162:	4632      	mov	r2, r6
 8002164:	4607      	mov	r7, r0
 8002166:	21ff      	movs	r1, #255	; 0xff
 8002168:	4628      	mov	r0, r5
 800216a:	f002 f957 	bl	800441c <VL53L0X_WrByte>
 800216e:	2200      	movs	r2, #0
 8002170:	4338      	orrs	r0, r7
 8002172:	4611      	mov	r1, r2
 8002174:	4304      	orrs	r4, r0
 8002176:	4628      	mov	r0, r5
 8002178:	f002 f950 	bl	800441c <VL53L0X_WrByte>
 800217c:	b264      	sxtb	r4, r4
 800217e:	4304      	orrs	r4, r0
 8002180:	f10d 0207 	add.w	r2, sp, #7
 8002184:	2191      	movs	r1, #145	; 0x91
 8002186:	4628      	mov	r0, r5
 8002188:	f002 f989 	bl	800449e <VL53L0X_RdByte>
 800218c:	b264      	sxtb	r4, r4
 800218e:	f89d 3007 	ldrb.w	r3, [sp, #7]
 8002192:	f885 313a 	strb.w	r3, [r5, #314]	; 0x13a
 8002196:	4304      	orrs	r4, r0
 8002198:	4632      	mov	r2, r6
 800219a:	2100      	movs	r1, #0
 800219c:	4628      	mov	r0, r5
 800219e:	f002 f93d 	bl	800441c <VL53L0X_WrByte>
 80021a2:	b264      	sxtb	r4, r4
 80021a4:	4304      	orrs	r4, r0
 80021a6:	2200      	movs	r2, #0
 80021a8:	21ff      	movs	r1, #255	; 0xff
 80021aa:	4628      	mov	r0, r5
 80021ac:	f002 f936 	bl	800441c <VL53L0X_WrByte>
 80021b0:	b264      	sxtb	r4, r4
 80021b2:	4304      	orrs	r4, r0
 80021b4:	2200      	movs	r2, #0
 80021b6:	2180      	movs	r1, #128	; 0x80
 80021b8:	4628      	mov	r0, r5
 80021ba:	f002 f92f 	bl	800441c <VL53L0X_WrByte>
 80021be:	b264      	sxtb	r4, r4
 80021c0:	4320      	orrs	r0, r4
 80021c2:	b240      	sxtb	r0, r0
 80021c4:	2400      	movs	r4, #0
 80021c6:	bb80      	cbnz	r0, 800222a <VL53L0X_DataInit+0x14a>
 80021c8:	b2a1      	uxth	r1, r4
 80021ca:	2201      	movs	r2, #1
 80021cc:	4628      	mov	r0, r5
 80021ce:	3401      	adds	r4, #1
 80021d0:	f7ff fe86 	bl	8001ee0 <VL53L0X_SetLimitCheckEnable>
 80021d4:	2c06      	cmp	r4, #6
 80021d6:	d1f6      	bne.n	80021c6 <VL53L0X_DataInit+0xe6>
 80021d8:	bb38      	cbnz	r0, 800222a <VL53L0X_DataInit+0x14a>
 80021da:	8568      	strh	r0, [r5, #42]	; 0x2a
 80021dc:	4602      	mov	r2, r0
 80021de:	2104      	movs	r1, #4
 80021e0:	4628      	mov	r0, r5
 80021e2:	f7ff fe7d 	bl	8001ee0 <VL53L0X_SetLimitCheckEnable>
 80021e6:	bb00      	cbnz	r0, 800222a <VL53L0X_DataInit+0x14a>
 80021e8:	4602      	mov	r2, r0
 80021ea:	2105      	movs	r1, #5
 80021ec:	4628      	mov	r0, r5
 80021ee:	f7ff fe77 	bl	8001ee0 <VL53L0X_SetLimitCheckEnable>
 80021f2:	b9d0      	cbnz	r0, 800222a <VL53L0X_DataInit+0x14a>
 80021f4:	f44f 1390 	mov.w	r3, #1179648	; 0x120000
 80021f8:	636b      	str	r3, [r5, #52]	; 0x34
 80021fa:	f44f 4280 	mov.w	r2, #16384	; 0x4000
 80021fe:	2101      	movs	r1, #1
 8002200:	4628      	mov	r0, r5
 8002202:	f7ff feba 	bl	8001f7a <VL53L0X_SetLimitCheckValue>
 8002206:	b980      	cbnz	r0, 800222a <VL53L0X_DataInit+0x14a>
 8002208:	f44f 130c 	mov.w	r3, #2293760	; 0x230000
 800220c:	22ff      	movs	r2, #255	; 0xff
 800220e:	e9c5 300f 	strd	r3, r0, [r5, #60]	; 0x3c
 8002212:	f885 2130 	strb.w	r2, [r5, #304]	; 0x130
 8002216:	2101      	movs	r1, #1
 8002218:	4628      	mov	r0, r5
 800221a:	f002 f8ff 	bl	800441c <VL53L0X_WrByte>
 800221e:	2301      	movs	r3, #1
 8002220:	f885 3132 	strb.w	r3, [r5, #306]	; 0x132
 8002224:	b908      	cbnz	r0, 800222a <VL53L0X_DataInit+0x14a>
 8002226:	f885 0115 	strb.w	r0, [r5, #277]	; 0x115
 800222a:	b013      	add	sp, #76	; 0x4c
 800222c:	bdf0      	pop	{r4, r5, r6, r7, pc}
 800222e:	bf00      	nop
 8002230:	00016b85 	.word	0x00016b85
 8002234:	000970a4 	.word	0x000970a4
 8002238:	03840064 	.word	0x03840064

0800223c <VL53L0X_PerformRefCalibration>:
 800223c:	2301      	movs	r3, #1
 800223e:	f000 bda1 	b.w	8002d84 <VL53L0X_perform_ref_calibration>

08002242 <VL53L0X_GetRangingMeasurementData>:
 8002242:	e92d 47f0 	stmdb	sp!, {r4, r5, r6, r7, r8, r9, sl, lr}
 8002246:	b08e      	sub	sp, #56	; 0x38
 8002248:	460c      	mov	r4, r1
 800224a:	230c      	movs	r3, #12
 800224c:	aa04      	add	r2, sp, #16
 800224e:	2114      	movs	r1, #20
 8002250:	4606      	mov	r6, r0
 8002252:	f002 f8cc 	bl	80043ee <VL53L0X_ReadMulti>
 8002256:	4684      	mov	ip, r0
 8002258:	2800      	cmp	r0, #0
 800225a:	d175      	bne.n	8002348 <VL53L0X_GetRangingMeasurementData+0x106>
 800225c:	f89d 3016 	ldrb.w	r3, [sp, #22]
 8002260:	f89d 2017 	ldrb.w	r2, [sp, #23]
 8002264:	f89d 1018 	ldrb.w	r1, [sp, #24]
 8002268:	f89d 501a 	ldrb.w	r5, [sp, #26]
 800226c:	f89d 701b 	ldrb.w	r7, [sp, #27]
 8002270:	75a0      	strb	r0, [r4, #22]
 8002272:	eb02 2203 	add.w	r2, r2, r3, lsl #8
 8002276:	f89d 3019 	ldrb.w	r3, [sp, #25]
 800227a:	6020      	str	r0, [r4, #0]
 800227c:	eb03 2301 	add.w	r3, r3, r1, lsl #8
 8002280:	b29b      	uxth	r3, r3
 8002282:	025b      	lsls	r3, r3, #9
 8002284:	6123      	str	r3, [r4, #16]
 8002286:	f89d 1012 	ldrb.w	r1, [sp, #18]
 800228a:	f89d 3013 	ldrb.w	r3, [sp, #19]
 800228e:	6060      	str	r0, [r4, #4]
 8002290:	eb07 2705 	add.w	r7, r7, r5, lsl #8
 8002294:	eb03 2301 	add.w	r3, r3, r1, lsl #8
 8002298:	b292      	uxth	r2, r2
 800229a:	f8b6 5152 	ldrh.w	r5, [r6, #338]	; 0x152
 800229e:	f89d 1010 	ldrb.w	r1, [sp, #16]
 80022a2:	0252      	lsls	r2, r2, #9
 80022a4:	b29b      	uxth	r3, r3
 80022a6:	60e2      	str	r2, [r4, #12]
 80022a8:	82a3      	strh	r3, [r4, #20]
 80022aa:	f5b5 7f7a 	cmp.w	r5, #1000	; 0x3e8
 80022ae:	b2bf      	uxth	r7, r7
 80022b0:	f896 c131 	ldrb.w	ip, [r6, #305]	; 0x131
 80022b4:	d00c      	beq.n	80022d0 <VL53L0X_GetRangingMeasurementData+0x8e>
 80022b6:	fb07 f005 	mul.w	r0, r7, r5
 80022ba:	7f37      	ldrb	r7, [r6, #28]
 80022bc:	f44f 757a 	mov.w	r5, #1000	; 0x3e8
 80022c0:	f500 70fa 	add.w	r0, r0, #500	; 0x1f4
 80022c4:	fb90 f0f5 	sdiv	r0, r0, r5
 80022c8:	6a35      	ldr	r5, [r6, #32]
 80022ca:	2f00      	cmp	r7, #0
 80022cc:	d140      	bne.n	8002350 <VL53L0X_GetRangingMeasurementData+0x10e>
 80022ce:	b287      	uxth	r7, r0
 80022d0:	f1bc 0f00 	cmp.w	ip, #0
 80022d4:	d046      	beq.n	8002364 <VL53L0X_GetRangingMeasurementData+0x122>
 80022d6:	08b8      	lsrs	r0, r7, #2
 80022d8:	8120      	strh	r0, [r4, #8]
 80022da:	01b8      	lsls	r0, r7, #6
 80022dc:	75e0      	strb	r0, [r4, #23]
 80022de:	f10d 000f 	add.w	r0, sp, #15
 80022e2:	e9cd 4000 	strd	r4, r0, [sp]
 80022e6:	4630      	mov	r0, r6
 80022e8:	f001 fea2 	bl	8004030 <VL53L0X_get_pal_range_status>
 80022ec:	4684      	mov	ip, r0
 80022ee:	bb58      	cbnz	r0, 8002348 <VL53L0X_GetRangingMeasurementData+0x106>
 80022f0:	f89d e00f 	ldrb.w	lr, [sp, #15]
 80022f4:	f884 e018 	strb.w	lr, [r4, #24]
 80022f8:	f106 0550 	add.w	r5, r6, #80	; 0x50
 80022fc:	cd0f      	ldmia	r5!, {r0, r1, r2, r3}
 80022fe:	af07      	add	r7, sp, #28
 8002300:	c70f      	stmia	r7!, {r0, r1, r2, r3}
 8002302:	e895 0007 	ldmia.w	r5, {r0, r1, r2}
 8002306:	e887 0007 	stmia.w	r7, {r0, r1, r2}
 800230a:	e9d4 1203 	ldrd	r1, r2, [r4, #12]
 800230e:	e9cd 120a 	strd	r1, r2, [sp, #40]	; 0x28
 8002312:	f8b4 a008 	ldrh.w	sl, [r4, #8]
 8002316:	7de3      	ldrb	r3, [r4, #23]
 8002318:	f8b4 900a 	ldrh.w	r9, [r4, #10]
 800231c:	f8b4 8014 	ldrh.w	r8, [r4, #20]
 8002320:	6860      	ldr	r0, [r4, #4]
 8002322:	f8ad a024 	strh.w	sl, [sp, #36]	; 0x24
 8002326:	f8ad 9026 	strh.w	r9, [sp, #38]	; 0x26
 800232a:	f8ad 8030 	strh.w	r8, [sp, #48]	; 0x30
 800232e:	f88d 3033 	strb.w	r3, [sp, #51]	; 0x33
 8002332:	f88d e034 	strb.w	lr, [sp, #52]	; 0x34
 8002336:	ac07      	add	r4, sp, #28
 8002338:	9008      	str	r0, [sp, #32]
 800233a:	cc0f      	ldmia	r4!, {r0, r1, r2, r3}
 800233c:	3650      	adds	r6, #80	; 0x50
 800233e:	c60f      	stmia	r6!, {r0, r1, r2, r3}
 8002340:	e897 0007 	ldmia.w	r7, {r0, r1, r2}
 8002344:	e885 0007 	stmia.w	r5, {r0, r1, r2}
 8002348:	4660      	mov	r0, ip
 800234a:	b00e      	add	sp, #56	; 0x38
 800234c:	e8bd 87f0 	ldmia.w	sp!, {r4, r5, r6, r7, r8, r9, sl, pc}
 8002350:	b2ad      	uxth	r5, r5
 8002352:	435d      	muls	r5, r3
 8002354:	122d      	asrs	r5, r5, #8
 8002356:	42aa      	cmp	r2, r5
 8002358:	d107      	bne.n	800236a <VL53L0X_GetRangingMeasurementData+0x128>
 800235a:	f1bc 0f00 	cmp.w	ip, #0
 800235e:	d10a      	bne.n	8002376 <VL53L0X_GetRangingMeasurementData+0x134>
 8002360:	f648 27e0 	movw	r7, #35552	; 0x8ae0
 8002364:	8127      	strh	r7, [r4, #8]
 8002366:	2000      	movs	r0, #0
 8002368:	e7b8      	b.n	80022dc <VL53L0X_GetRangingMeasurementData+0x9a>
 800236a:	b280      	uxth	r0, r0
 800236c:	4350      	muls	r0, r2
 800236e:	1b55      	subs	r5, r2, r5
 8002370:	fbb0 f0f5 	udiv	r0, r0, r5
 8002374:	e7ab      	b.n	80022ce <VL53L0X_GetRangingMeasurementData+0x8c>
 8002376:	f242 27b8 	movw	r7, #8888	; 0x22b8
 800237a:	e7ac      	b.n	80022d6 <VL53L0X_GetRangingMeasurementData+0x94>

0800237c <VL53L0X_GetInterruptThresholds>:
 800237c:	b5f7      	push	{r0, r1, r2, r4, r5, r6, r7, lr}
 800237e:	4617      	mov	r7, r2
 8002380:	210e      	movs	r1, #14
 8002382:	f10d 0206 	add.w	r2, sp, #6
 8002386:	461d      	mov	r5, r3
 8002388:	4606      	mov	r6, r0
 800238a:	4c0b      	ldr	r4, [pc, #44]	; (80023b8 <VL53L0X_GetInterruptThresholds+0x3c>)
 800238c:	f002 f896 	bl	80044bc <VL53L0X_RdWord>
 8002390:	f8bd 3006 	ldrh.w	r3, [sp, #6]
 8002394:	ea04 4343 	and.w	r3, r4, r3, lsl #17
 8002398:	603b      	str	r3, [r7, #0]
 800239a:	b950      	cbnz	r0, 80023b2 <VL53L0X_GetInterruptThresholds+0x36>
 800239c:	f10d 0206 	add.w	r2, sp, #6
 80023a0:	210c      	movs	r1, #12
 80023a2:	4630      	mov	r0, r6
 80023a4:	f002 f88a 	bl	80044bc <VL53L0X_RdWord>
 80023a8:	f8bd 3006 	ldrh.w	r3, [sp, #6]
 80023ac:	ea04 4443 	and.w	r4, r4, r3, lsl #17
 80023b0:	602c      	str	r4, [r5, #0]
 80023b2:	b003      	add	sp, #12
 80023b4:	bdf0      	pop	{r4, r5, r6, r7, pc}
 80023b6:	bf00      	nop
 80023b8:	1ffe0000 	.word	0x1ffe0000

080023bc <VL53L0X_CheckAndLoadInterruptSettings>:
 80023bc:	b573      	push	{r0, r1, r4, r5, r6, lr}
 80023be:	f890 30da 	ldrb.w	r3, [r0, #218]	; 0xda
 80023c2:	3b01      	subs	r3, #1
 80023c4:	2b02      	cmp	r3, #2
 80023c6:	4606      	mov	r6, r0
 80023c8:	460c      	mov	r4, r1
 80023ca:	d833      	bhi.n	8002434 <VL53L0X_CheckAndLoadInterruptSettings+0x78>
 80023cc:	ab01      	add	r3, sp, #4
 80023ce:	466a      	mov	r2, sp
 80023d0:	2101      	movs	r1, #1
 80023d2:	f7ff ffd3 	bl	800237c <VL53L0X_GetInterruptThresholds>
 80023d6:	9b00      	ldr	r3, [sp, #0]
 80023d8:	f5b3 0f7f 	cmp.w	r3, #16711680	; 0xff0000
 80023dc:	4605      	mov	r5, r0
 80023de:	d803      	bhi.n	80023e8 <VL53L0X_CheckAndLoadInterruptSettings+0x2c>
 80023e0:	9b01      	ldr	r3, [sp, #4]
 80023e2:	f5b3 0f7f 	cmp.w	r3, #16711680	; 0xff0000
 80023e6:	d906      	bls.n	80023f6 <VL53L0X_CheckAndLoadInterruptSettings+0x3a>
 80023e8:	b92d      	cbnz	r5, 80023f6 <VL53L0X_CheckAndLoadInterruptSettings+0x3a>
 80023ea:	b13c      	cbz	r4, 80023fc <VL53L0X_CheckAndLoadInterruptSettings+0x40>
 80023ec:	4912      	ldr	r1, [pc, #72]	; (8002438 <VL53L0X_CheckAndLoadInterruptSettings+0x7c>)
 80023ee:	4630      	mov	r0, r6
 80023f0:	f001 fc2f 	bl	8003c52 <VL53L0X_load_tuning_settings>
 80023f4:	4605      	mov	r5, r0
 80023f6:	4628      	mov	r0, r5
 80023f8:	b002      	add	sp, #8
 80023fa:	bd70      	pop	{r4, r5, r6, pc}
 80023fc:	2204      	movs	r2, #4
 80023fe:	21ff      	movs	r1, #255	; 0xff
 8002400:	4630      	mov	r0, r6
 8002402:	f002 f80b 	bl	800441c <VL53L0X_WrByte>
 8002406:	462a      	mov	r2, r5
 8002408:	4604      	mov	r4, r0
 800240a:	2170      	movs	r1, #112	; 0x70
 800240c:	4630      	mov	r0, r6
 800240e:	f002 f805 	bl	800441c <VL53L0X_WrByte>
 8002412:	462a      	mov	r2, r5
 8002414:	4304      	orrs	r4, r0
 8002416:	21ff      	movs	r1, #255	; 0xff
 8002418:	4630      	mov	r0, r6
 800241a:	f001 ffff 	bl	800441c <VL53L0X_WrByte>
 800241e:	b264      	sxtb	r4, r4
 8002420:	4304      	orrs	r4, r0
 8002422:	462a      	mov	r2, r5
 8002424:	2180      	movs	r1, #128	; 0x80
 8002426:	4630      	mov	r0, r6
 8002428:	f001 fff8 	bl	800441c <VL53L0X_WrByte>
 800242c:	b264      	sxtb	r4, r4
 800242e:	4320      	orrs	r0, r4
 8002430:	b245      	sxtb	r5, r0
 8002432:	e7e0      	b.n	80023f6 <VL53L0X_CheckAndLoadInterruptSettings+0x3a>
 8002434:	2500      	movs	r5, #0
 8002436:	e7de      	b.n	80023f6 <VL53L0X_CheckAndLoadInterruptSettings+0x3a>
 8002438:	200000f7 	.word	0x200000f7

0800243c <VL53L0X_StartMeasurement>:
 800243c:	b537      	push	{r0, r1, r2, r4, r5, lr}
 800243e:	4604      	mov	r4, r0
 8002440:	2201      	movs	r2, #1
 8002442:	2180      	movs	r1, #128	; 0x80
 8002444:	7c05      	ldrb	r5, [r0, #16]
 8002446:	f001 ffe9 	bl	800441c <VL53L0X_WrByte>
 800244a:	2201      	movs	r2, #1
 800244c:	21ff      	movs	r1, #255	; 0xff
 800244e:	4620      	mov	r0, r4
 8002450:	f001 ffe4 	bl	800441c <VL53L0X_WrByte>
 8002454:	2200      	movs	r2, #0
 8002456:	4611      	mov	r1, r2
 8002458:	4620      	mov	r0, r4
 800245a:	f001 ffdf 	bl	800441c <VL53L0X_WrByte>
 800245e:	f894 213a 	ldrb.w	r2, [r4, #314]	; 0x13a
 8002462:	2191      	movs	r1, #145	; 0x91
 8002464:	4620      	mov	r0, r4
 8002466:	f001 ffd9 	bl	800441c <VL53L0X_WrByte>
 800246a:	2201      	movs	r2, #1
 800246c:	2100      	movs	r1, #0
 800246e:	4620      	mov	r0, r4
 8002470:	f001 ffd4 	bl	800441c <VL53L0X_WrByte>
 8002474:	2200      	movs	r2, #0
 8002476:	21ff      	movs	r1, #255	; 0xff
 8002478:	4620      	mov	r0, r4
 800247a:	f001 ffcf 	bl	800441c <VL53L0X_WrByte>
 800247e:	2200      	movs	r2, #0
 8002480:	2180      	movs	r1, #128	; 0x80
 8002482:	4620      	mov	r0, r4
 8002484:	f001 ffca 	bl	800441c <VL53L0X_WrByte>
 8002488:	2d01      	cmp	r5, #1
 800248a:	d02b      	beq.n	80024e4 <VL53L0X_StartMeasurement+0xa8>
 800248c:	d304      	bcc.n	8002498 <VL53L0X_StartMeasurement+0x5c>
 800248e:	2d03      	cmp	r5, #3
 8002490:	d038      	beq.n	8002504 <VL53L0X_StartMeasurement+0xc8>
 8002492:	f06f 0007 	mvn.w	r0, #7
 8002496:	e008      	b.n	80024aa <VL53L0X_StartMeasurement+0x6e>
 8002498:	2201      	movs	r2, #1
 800249a:	2100      	movs	r1, #0
 800249c:	4620      	mov	r0, r4
 800249e:	f001 ffbd 	bl	800441c <VL53L0X_WrByte>
 80024a2:	2301      	movs	r3, #1
 80024a4:	f88d 3007 	strb.w	r3, [sp, #7]
 80024a8:	b1a0      	cbz	r0, 80024d4 <VL53L0X_StartMeasurement+0x98>
 80024aa:	b003      	add	sp, #12
 80024ac:	bd30      	pop	{r4, r5, pc}
 80024ae:	4601      	mov	r1, r0
 80024b0:	f10d 0207 	add.w	r2, sp, #7
 80024b4:	4620      	mov	r0, r4
 80024b6:	f001 fff2 	bl	800449e <VL53L0X_RdByte>
 80024ba:	f89d 3007 	ldrb.w	r3, [sp, #7]
 80024be:	07db      	lsls	r3, r3, #31
 80024c0:	f105 0501 	add.w	r5, r5, #1
 80024c4:	d508      	bpl.n	80024d8 <VL53L0X_StartMeasurement+0x9c>
 80024c6:	b938      	cbnz	r0, 80024d8 <VL53L0X_StartMeasurement+0x9c>
 80024c8:	f5b5 6ffa 	cmp.w	r5, #2000	; 0x7d0
 80024cc:	d1ef      	bne.n	80024ae <VL53L0X_StartMeasurement+0x72>
 80024ce:	f06f 0006 	mvn.w	r0, #6
 80024d2:	e7ea      	b.n	80024aa <VL53L0X_StartMeasurement+0x6e>
 80024d4:	4605      	mov	r5, r0
 80024d6:	e7f0      	b.n	80024ba <VL53L0X_StartMeasurement+0x7e>
 80024d8:	f5b5 6ffa 	cmp.w	r5, #2000	; 0x7d0
 80024dc:	bf08      	it	eq
 80024de:	f06f 0006 	mvneq.w	r0, #6
 80024e2:	e7e2      	b.n	80024aa <VL53L0X_StartMeasurement+0x6e>
 80024e4:	b918      	cbnz	r0, 80024ee <VL53L0X_StartMeasurement+0xb2>
 80024e6:	4629      	mov	r1, r5
 80024e8:	4620      	mov	r0, r4
 80024ea:	f7ff ff67 	bl	80023bc <VL53L0X_CheckAndLoadInterruptSettings>
 80024ee:	2202      	movs	r2, #2
 80024f0:	2100      	movs	r1, #0
 80024f2:	4620      	mov	r0, r4
 80024f4:	f001 ff92 	bl	800441c <VL53L0X_WrByte>
 80024f8:	2800      	cmp	r0, #0
 80024fa:	d1d6      	bne.n	80024aa <VL53L0X_StartMeasurement+0x6e>
 80024fc:	2304      	movs	r3, #4
 80024fe:	f884 3132 	strb.w	r3, [r4, #306]	; 0x132
 8002502:	e7d2      	b.n	80024aa <VL53L0X_StartMeasurement+0x6e>
 8002504:	b918      	cbnz	r0, 800250e <VL53L0X_StartMeasurement+0xd2>
 8002506:	2101      	movs	r1, #1
 8002508:	4620      	mov	r0, r4
 800250a:	f7ff ff57 	bl	80023bc <VL53L0X_CheckAndLoadInterruptSettings>
 800250e:	2204      	movs	r2, #4
 8002510:	e7ee      	b.n	80024f0 <VL53L0X_StartMeasurement+0xb4>

08002512 <VL53L0X_PerformSingleMeasurement>:
 8002512:	b538      	push	{r3, r4, r5, lr}
 8002514:	7c05      	ldrb	r5, [r0, #16]
 8002516:	4604      	mov	r4, r0
 8002518:	b125      	cbz	r5, 8002524 <VL53L0X_PerformSingleMeasurement+0x12>
 800251a:	4620      	mov	r0, r4
 800251c:	f000 fd71 	bl	8003002 <VL53L0X_measurement_poll_for_completion>
 8002520:	b128      	cbz	r0, 800252e <VL53L0X_PerformSingleMeasurement+0x1c>
 8002522:	bd38      	pop	{r3, r4, r5, pc}
 8002524:	f7ff ff8a 	bl	800243c <VL53L0X_StartMeasurement>
 8002528:	2800      	cmp	r0, #0
 800252a:	d0f6      	beq.n	800251a <VL53L0X_PerformSingleMeasurement+0x8>
 800252c:	e7f9      	b.n	8002522 <VL53L0X_PerformSingleMeasurement+0x10>
 800252e:	2d00      	cmp	r5, #0
 8002530:	d1f7      	bne.n	8002522 <VL53L0X_PerformSingleMeasurement+0x10>
 8002532:	2303      	movs	r3, #3
 8002534:	f884 3132 	strb.w	r3, [r4, #306]	; 0x132
 8002538:	e7f3      	b.n	8002522 <VL53L0X_PerformSingleMeasurement+0x10>

0800253a <VL53L0X_ClearInterruptMask>:
 800253a:	b573      	push	{r0, r1, r4, r5, r6, lr}
 800253c:	4606      	mov	r6, r0
 800253e:	2500      	movs	r5, #0
 8002540:	2201      	movs	r2, #1
 8002542:	210b      	movs	r1, #11
 8002544:	4630      	mov	r0, r6
 8002546:	f001 ff69 	bl	800441c <VL53L0X_WrByte>
 800254a:	2200      	movs	r2, #0
 800254c:	4604      	mov	r4, r0
 800254e:	210b      	movs	r1, #11
 8002550:	4630      	mov	r0, r6
 8002552:	f001 ff63 	bl	800441c <VL53L0X_WrByte>
 8002556:	f10d 0207 	add.w	r2, sp, #7
 800255a:	4304      	orrs	r4, r0
 800255c:	2113      	movs	r1, #19
 800255e:	4630      	mov	r0, r6
 8002560:	f001 ff9d 	bl	800449e <VL53L0X_RdByte>
 8002564:	f89d 3007 	ldrb.w	r3, [sp, #7]
 8002568:	b264      	sxtb	r4, r4
 800256a:	4320      	orrs	r0, r4
 800256c:	3501      	adds	r5, #1
 800256e:	075b      	lsls	r3, r3, #29
 8002570:	b240      	sxtb	r0, r0
 8002572:	b2ed      	uxtb	r5, r5
 8002574:	d005      	beq.n	8002582 <VL53L0X_ClearInterruptMask+0x48>
 8002576:	2d03      	cmp	r5, #3
 8002578:	d008      	beq.n	800258c <VL53L0X_ClearInterruptMask+0x52>
 800257a:	2800      	cmp	r0, #0
 800257c:	d0e0      	beq.n	8002540 <VL53L0X_ClearInterruptMask+0x6>
 800257e:	b002      	add	sp, #8
 8002580:	bd70      	pop	{r4, r5, r6, pc}
 8002582:	2d03      	cmp	r5, #3
 8002584:	bf08      	it	eq
 8002586:	f06f 000b 	mvneq.w	r0, #11
 800258a:	e7f8      	b.n	800257e <VL53L0X_ClearInterruptMask+0x44>
 800258c:	f06f 000b 	mvn.w	r0, #11
 8002590:	e7f5      	b.n	800257e <VL53L0X_ClearInterruptMask+0x44>

08002592 <VL53L0X_PerformSingleRangingMeasurement>:
 8002592:	b538      	push	{r3, r4, r5, lr}
 8002594:	2300      	movs	r3, #0
 8002596:	7403      	strb	r3, [r0, #16]
 8002598:	4604      	mov	r4, r0
 800259a:	460d      	mov	r5, r1
 800259c:	f7ff ffb9 	bl	8002512 <VL53L0X_PerformSingleMeasurement>
 80025a0:	b950      	cbnz	r0, 80025b8 <VL53L0X_PerformSingleRangingMeasurement+0x26>
 80025a2:	4629      	mov	r1, r5
 80025a4:	4620      	mov	r0, r4
 80025a6:	f7ff fe4c 	bl	8002242 <VL53L0X_GetRangingMeasurementData>
 80025aa:	b928      	cbnz	r0, 80025b8 <VL53L0X_PerformSingleRangingMeasurement+0x26>
 80025ac:	4601      	mov	r1, r0
 80025ae:	4620      	mov	r0, r4
 80025b0:	e8bd 4038 	ldmia.w	sp!, {r3, r4, r5, lr}
 80025b4:	f7ff bfc1 	b.w	800253a <VL53L0X_ClearInterruptMask>
 80025b8:	bd38      	pop	{r3, r4, r5, pc}

080025ba <VL53L0X_SetGpioConfig.part.1>:
 80025ba:	2915      	cmp	r1, #21
 80025bc:	b570      	push	{r4, r5, r6, lr}
 80025be:	4605      	mov	r5, r0
 80025c0:	4614      	mov	r4, r2
 80025c2:	461e      	mov	r6, r3
 80025c4:	d167      	bne.n	8002696 <VL53L0X_SetGpioConfig.part.1+0xdc>
 80025c6:	2201      	movs	r2, #1
 80025c8:	21ff      	movs	r1, #255	; 0xff
 80025ca:	f001 ff27 	bl	800441c <VL53L0X_WrByte>
 80025ce:	2200      	movs	r2, #0
 80025d0:	4611      	mov	r1, r2
 80025d2:	4604      	mov	r4, r0
 80025d4:	4628      	mov	r0, r5
 80025d6:	f001 ff21 	bl	800441c <VL53L0X_WrByte>
 80025da:	2200      	movs	r2, #0
 80025dc:	4304      	orrs	r4, r0
 80025de:	21ff      	movs	r1, #255	; 0xff
 80025e0:	4628      	mov	r0, r5
 80025e2:	f001 ff1b 	bl	800441c <VL53L0X_WrByte>
 80025e6:	b264      	sxtb	r4, r4
 80025e8:	4304      	orrs	r4, r0
 80025ea:	2201      	movs	r2, #1
 80025ec:	2180      	movs	r1, #128	; 0x80
 80025ee:	4628      	mov	r0, r5
 80025f0:	f001 ff14 	bl	800441c <VL53L0X_WrByte>
 80025f4:	b264      	sxtb	r4, r4
 80025f6:	4304      	orrs	r4, r0
 80025f8:	2202      	movs	r2, #2
 80025fa:	2185      	movs	r1, #133	; 0x85
 80025fc:	4628      	mov	r0, r5
 80025fe:	f001 ff0d 	bl	800441c <VL53L0X_WrByte>
 8002602:	b264      	sxtb	r4, r4
 8002604:	4304      	orrs	r4, r0
 8002606:	2204      	movs	r2, #4
 8002608:	21ff      	movs	r1, #255	; 0xff
 800260a:	4628      	mov	r0, r5
 800260c:	f001 ff06 	bl	800441c <VL53L0X_WrByte>
 8002610:	b264      	sxtb	r4, r4
 8002612:	4304      	orrs	r4, r0
 8002614:	2200      	movs	r2, #0
 8002616:	21cd      	movs	r1, #205	; 0xcd
 8002618:	4628      	mov	r0, r5
 800261a:	f001 feff 	bl	800441c <VL53L0X_WrByte>
 800261e:	b264      	sxtb	r4, r4
 8002620:	4304      	orrs	r4, r0
 8002622:	2211      	movs	r2, #17
 8002624:	21cc      	movs	r1, #204	; 0xcc
 8002626:	4628      	mov	r0, r5
 8002628:	f001 fef8 	bl	800441c <VL53L0X_WrByte>
 800262c:	b264      	sxtb	r4, r4
 800262e:	4304      	orrs	r4, r0
 8002630:	2207      	movs	r2, #7
 8002632:	21ff      	movs	r1, #255	; 0xff
 8002634:	4628      	mov	r0, r5
 8002636:	f001 fef1 	bl	800441c <VL53L0X_WrByte>
 800263a:	b264      	sxtb	r4, r4
 800263c:	4304      	orrs	r4, r0
 800263e:	2200      	movs	r2, #0
 8002640:	21be      	movs	r1, #190	; 0xbe
 8002642:	4628      	mov	r0, r5
 8002644:	f001 feea 	bl	800441c <VL53L0X_WrByte>
 8002648:	b264      	sxtb	r4, r4
 800264a:	4304      	orrs	r4, r0
 800264c:	2206      	movs	r2, #6
 800264e:	21ff      	movs	r1, #255	; 0xff
 8002650:	4628      	mov	r0, r5
 8002652:	f001 fee3 	bl	800441c <VL53L0X_WrByte>
 8002656:	b264      	sxtb	r4, r4
 8002658:	4304      	orrs	r4, r0
 800265a:	2209      	movs	r2, #9
 800265c:	21cc      	movs	r1, #204	; 0xcc
 800265e:	4628      	mov	r0, r5
 8002660:	f001 fedc 	bl	800441c <VL53L0X_WrByte>
 8002664:	b264      	sxtb	r4, r4
 8002666:	4304      	orrs	r4, r0
 8002668:	2200      	movs	r2, #0
 800266a:	21ff      	movs	r1, #255	; 0xff
 800266c:	4628      	mov	r0, r5
 800266e:	f001 fed5 	bl	800441c <VL53L0X_WrByte>
 8002672:	b264      	sxtb	r4, r4
 8002674:	4304      	orrs	r4, r0
 8002676:	2201      	movs	r2, #1
 8002678:	21ff      	movs	r1, #255	; 0xff
 800267a:	4628      	mov	r0, r5
 800267c:	f001 fece 	bl	800441c <VL53L0X_WrByte>
 8002680:	b264      	sxtb	r4, r4
 8002682:	2200      	movs	r2, #0
 8002684:	4304      	orrs	r4, r0
 8002686:	4611      	mov	r1, r2
 8002688:	4628      	mov	r0, r5
 800268a:	f001 fec7 	bl	800441c <VL53L0X_WrByte>
 800268e:	b264      	sxtb	r4, r4
 8002690:	4320      	orrs	r0, r4
 8002692:	b240      	sxtb	r0, r0
 8002694:	bd70      	pop	{r4, r5, r6, pc}
 8002696:	2a04      	cmp	r2, #4
 8002698:	d826      	bhi.n	80026e8 <VL53L0X_SetGpioConfig.part.1+0x12e>
 800269a:	e8df f002 	tbb	[pc, r2]
 800269e:	1f21      	.short	0x1f21
 80026a0:	031d      	.short	0x031d
 80026a2:	23          	.byte	0x23
 80026a3:	00          	.byte	0x00
 80026a4:	2203      	movs	r2, #3
 80026a6:	210a      	movs	r1, #10
 80026a8:	4628      	mov	r0, r5
 80026aa:	f001 feb7 	bl	800441c <VL53L0X_WrByte>
 80026ae:	2800      	cmp	r0, #0
 80026b0:	d1f0      	bne.n	8002694 <VL53L0X_SetGpioConfig.part.1+0xda>
 80026b2:	2e00      	cmp	r6, #0
 80026b4:	bf14      	ite	ne
 80026b6:	2310      	movne	r3, #16
 80026b8:	2300      	moveq	r3, #0
 80026ba:	22ef      	movs	r2, #239	; 0xef
 80026bc:	2184      	movs	r1, #132	; 0x84
 80026be:	4628      	mov	r0, r5
 80026c0:	f001 feca 	bl	8004458 <VL53L0X_UpdateByte>
 80026c4:	2800      	cmp	r0, #0
 80026c6:	d1e5      	bne.n	8002694 <VL53L0X_SetGpioConfig.part.1+0xda>
 80026c8:	f885 40da 	strb.w	r4, [r5, #218]	; 0xda
 80026cc:	4601      	mov	r1, r0
 80026ce:	4628      	mov	r0, r5
 80026d0:	e8bd 4070 	ldmia.w	sp!, {r4, r5, r6, lr}
 80026d4:	f7ff bf31 	b.w	800253a <VL53L0X_ClearInterruptMask>
 80026d8:	2202      	movs	r2, #2
 80026da:	e7e4      	b.n	80026a6 <VL53L0X_SetGpioConfig.part.1+0xec>
 80026dc:	2201      	movs	r2, #1
 80026de:	e7e2      	b.n	80026a6 <VL53L0X_SetGpioConfig.part.1+0xec>
 80026e0:	2200      	movs	r2, #0
 80026e2:	e7e0      	b.n	80026a6 <VL53L0X_SetGpioConfig.part.1+0xec>
 80026e4:	2204      	movs	r2, #4
 80026e6:	e7de      	b.n	80026a6 <VL53L0X_SetGpioConfig.part.1+0xec>
 80026e8:	f06f 000a 	mvn.w	r0, #10
 80026ec:	e7d2      	b.n	8002694 <VL53L0X_SetGpioConfig.part.1+0xda>

080026ee <VL53L0X_SetGpioConfig>:
 80026ee:	b410      	push	{r4}
 80026f0:	4614      	mov	r4, r2
 80026f2:	461a      	mov	r2, r3
 80026f4:	f89d 3004 	ldrb.w	r3, [sp, #4]
 80026f8:	b979      	cbnz	r1, 800271a <VL53L0X_SetGpioConfig+0x2c>
 80026fa:	2c14      	cmp	r4, #20
 80026fc:	d108      	bne.n	8002710 <VL53L0X_SetGpioConfig+0x22>
 80026fe:	2b00      	cmp	r3, #0
 8002700:	bf0c      	ite	eq
 8002702:	2210      	moveq	r2, #16
 8002704:	2201      	movne	r2, #1
 8002706:	2184      	movs	r1, #132	; 0x84
 8002708:	f85d 4b04 	ldr.w	r4, [sp], #4
 800270c:	f001 be86 	b.w	800441c <VL53L0X_WrByte>
 8002710:	4621      	mov	r1, r4
 8002712:	f85d 4b04 	ldr.w	r4, [sp], #4
 8002716:	f7ff bf50 	b.w	80025ba <VL53L0X_SetGpioConfig.part.1>
 800271a:	f06f 0009 	mvn.w	r0, #9
 800271e:	f85d 4b04 	ldr.w	r4, [sp], #4
 8002722:	4770      	bx	lr

08002724 <VL53L0X_StaticInit>:
 8002724:	b570      	push	{r4, r5, r6, lr}
 8002726:	b094      	sub	sp, #80	; 0x50
 8002728:	4605      	mov	r5, r0
 800272a:	2240      	movs	r2, #64	; 0x40
 800272c:	2100      	movs	r1, #0
 800272e:	a804      	add	r0, sp, #16
 8002730:	f004 fc01 	bl	8006f36 <memset>
 8002734:	2300      	movs	r3, #0
 8002736:	2101      	movs	r1, #1
 8002738:	4628      	mov	r0, r5
 800273a:	f8ad 3006 	strh.w	r3, [sp, #6]
 800273e:	f88d 3003 	strb.w	r3, [sp, #3]
 8002742:	f88d 3004 	strb.w	r3, [sp, #4]
 8002746:	9302      	str	r3, [sp, #8]
 8002748:	f000 fcab 	bl	80030a2 <VL53L0X_get_info_from_device>
 800274c:	f895 2114 	ldrb.w	r2, [r5, #276]	; 0x114
 8002750:	2a01      	cmp	r2, #1
 8002752:	d806      	bhi.n	8002762 <VL53L0X_StaticInit+0x3e>
 8002754:	f895 1113 	ldrb.w	r1, [r5, #275]	; 0x113
 8002758:	f040 80ad 	bne.w	80028b6 <VL53L0X_StaticInit+0x192>
 800275c:	2920      	cmp	r1, #32
 800275e:	f240 80ac 	bls.w	80028ba <VL53L0X_StaticInit+0x196>
 8002762:	aa01      	add	r2, sp, #4
 8002764:	a902      	add	r1, sp, #8
 8002766:	4628      	mov	r0, r5
 8002768:	f000 fb27 	bl	8002dba <VL53L0X_perform_ref_spad_management>
 800276c:	4604      	mov	r4, r0
 800276e:	2800      	cmp	r0, #0
 8002770:	f040 809e 	bne.w	80028b0 <VL53L0X_StaticInit+0x18c>
 8002774:	f895 3150 	ldrb.w	r3, [r5, #336]	; 0x150
 8002778:	2b00      	cmp	r3, #0
 800277a:	f040 80a2 	bne.w	80028c2 <VL53L0X_StaticInit+0x19e>
 800277e:	f8d5 114c 	ldr.w	r1, [r5, #332]	; 0x14c
 8002782:	4628      	mov	r0, r5
 8002784:	f001 fa65 	bl	8003c52 <VL53L0X_load_tuning_settings>
 8002788:	4604      	mov	r4, r0
 800278a:	2800      	cmp	r0, #0
 800278c:	f040 8090 	bne.w	80028b0 <VL53L0X_StaticInit+0x18c>
 8002790:	4623      	mov	r3, r4
 8002792:	4621      	mov	r1, r4
 8002794:	2204      	movs	r2, #4
 8002796:	4628      	mov	r0, r5
 8002798:	f7ff ff0f 	bl	80025ba <VL53L0X_SetGpioConfig.part.1>
 800279c:	4604      	mov	r4, r0
 800279e:	2800      	cmp	r0, #0
 80027a0:	f040 8086 	bne.w	80028b0 <VL53L0X_StaticInit+0x18c>
 80027a4:	2201      	movs	r2, #1
 80027a6:	21ff      	movs	r1, #255	; 0xff
 80027a8:	4628      	mov	r0, r5
 80027aa:	f001 fe37 	bl	800441c <VL53L0X_WrByte>
 80027ae:	f10d 0206 	add.w	r2, sp, #6
 80027b2:	4606      	mov	r6, r0
 80027b4:	2184      	movs	r1, #132	; 0x84
 80027b6:	4628      	mov	r0, r5
 80027b8:	f001 fe80 	bl	80044bc <VL53L0X_RdWord>
 80027bc:	4622      	mov	r2, r4
 80027be:	4306      	orrs	r6, r0
 80027c0:	21ff      	movs	r1, #255	; 0xff
 80027c2:	4628      	mov	r0, r5
 80027c4:	f001 fe2a 	bl	800441c <VL53L0X_WrByte>
 80027c8:	b276      	sxtb	r6, r6
 80027ca:	4330      	orrs	r0, r6
 80027cc:	b244      	sxtb	r4, r0
 80027ce:	2c00      	cmp	r4, #0
 80027d0:	d16e      	bne.n	80028b0 <VL53L0X_StaticInit+0x18c>
 80027d2:	f8bd 3006 	ldrh.w	r3, [sp, #6]
 80027d6:	011b      	lsls	r3, r3, #4
 80027d8:	f8c5 30d4 	str.w	r3, [r5, #212]	; 0xd4
 80027dc:	a904      	add	r1, sp, #16
 80027de:	4628      	mov	r0, r5
 80027e0:	f7ff fc44 	bl	800206c <VL53L0X_GetDeviceParameters>
 80027e4:	4604      	mov	r4, r0
 80027e6:	2800      	cmp	r0, #0
 80027e8:	d162      	bne.n	80028b0 <VL53L0X_StaticInit+0x18c>
 80027ea:	f10d 0103 	add.w	r1, sp, #3
 80027ee:	4628      	mov	r0, r5
 80027f0:	f7ff fac2 	bl	8001d78 <VL53L0X_GetFractionEnable>
 80027f4:	4604      	mov	r4, r0
 80027f6:	2800      	cmp	r0, #0
 80027f8:	d15a      	bne.n	80028b0 <VL53L0X_StaticInit+0x18c>
 80027fa:	f89d 3003 	ldrb.w	r3, [sp, #3]
 80027fe:	f885 3131 	strb.w	r3, [r5, #305]	; 0x131
 8002802:	ae04      	add	r6, sp, #16
 8002804:	ce0f      	ldmia	r6!, {r0, r1, r2, r3}
 8002806:	f105 0410 	add.w	r4, r5, #16
 800280a:	c40f      	stmia	r4!, {r0, r1, r2, r3}
 800280c:	ce0f      	ldmia	r6!, {r0, r1, r2, r3}
 800280e:	c40f      	stmia	r4!, {r0, r1, r2, r3}
 8002810:	ce0f      	ldmia	r6!, {r0, r1, r2, r3}
 8002812:	c40f      	stmia	r4!, {r0, r1, r2, r3}
 8002814:	e896 000f 	ldmia.w	r6, {r0, r1, r2, r3}
 8002818:	e884 000f 	stmia.w	r4, {r0, r1, r2, r3}
 800281c:	f10d 0203 	add.w	r2, sp, #3
 8002820:	2101      	movs	r1, #1
 8002822:	4628      	mov	r0, r5
 8002824:	f001 fe3b 	bl	800449e <VL53L0X_RdByte>
 8002828:	4604      	mov	r4, r0
 800282a:	2800      	cmp	r0, #0
 800282c:	d140      	bne.n	80028b0 <VL53L0X_StaticInit+0x18c>
 800282e:	f89d 3003 	ldrb.w	r3, [sp, #3]
 8002832:	f885 3130 	strb.w	r3, [r5, #304]	; 0x130
 8002836:	4602      	mov	r2, r0
 8002838:	4601      	mov	r1, r0
 800283a:	4628      	mov	r0, r5
 800283c:	f7ff faae 	bl	8001d9c <VL53L0X_SetSequenceStepEnable>
 8002840:	4604      	mov	r4, r0
 8002842:	bba8      	cbnz	r0, 80028b0 <VL53L0X_StaticInit+0x18c>
 8002844:	4602      	mov	r2, r0
 8002846:	2102      	movs	r1, #2
 8002848:	4628      	mov	r0, r5
 800284a:	f7ff faa7 	bl	8001d9c <VL53L0X_SetSequenceStepEnable>
 800284e:	4604      	mov	r4, r0
 8002850:	bb70      	cbnz	r0, 80028b0 <VL53L0X_StaticInit+0x18c>
 8002852:	2303      	movs	r3, #3
 8002854:	4601      	mov	r1, r0
 8002856:	f885 3132 	strb.w	r3, [r5, #306]	; 0x132
 800285a:	f10d 0205 	add.w	r2, sp, #5
 800285e:	4628      	mov	r0, r5
 8002860:	f001 f916 	bl	8003a90 <VL53L0X_get_vcsel_pulse_period>
 8002864:	4604      	mov	r4, r0
 8002866:	bb18      	cbnz	r0, 80028b0 <VL53L0X_StaticInit+0x18c>
 8002868:	f89d 3005 	ldrb.w	r3, [sp, #5]
 800286c:	f885 30e8 	strb.w	r3, [r5, #232]	; 0xe8
 8002870:	f10d 0205 	add.w	r2, sp, #5
 8002874:	2101      	movs	r1, #1
 8002876:	4628      	mov	r0, r5
 8002878:	f001 f90a 	bl	8003a90 <VL53L0X_get_vcsel_pulse_period>
 800287c:	4604      	mov	r4, r0
 800287e:	b9b8      	cbnz	r0, 80028b0 <VL53L0X_StaticInit+0x18c>
 8002880:	f89d 3005 	ldrb.w	r3, [sp, #5]
 8002884:	f885 30e0 	strb.w	r3, [r5, #224]	; 0xe0
 8002888:	aa03      	add	r2, sp, #12
 800288a:	2103      	movs	r1, #3
 800288c:	4628      	mov	r0, r5
 800288e:	f000 ff4d 	bl	800372c <get_sequence_step_timeout>
 8002892:	4604      	mov	r4, r0
 8002894:	b960      	cbnz	r0, 80028b0 <VL53L0X_StaticInit+0x18c>
 8002896:	9b03      	ldr	r3, [sp, #12]
 8002898:	f8c5 30e4 	str.w	r3, [r5, #228]	; 0xe4
 800289c:	aa03      	add	r2, sp, #12
 800289e:	2104      	movs	r1, #4
 80028a0:	4628      	mov	r0, r5
 80028a2:	f000 ff43 	bl	800372c <get_sequence_step_timeout>
 80028a6:	4604      	mov	r4, r0
 80028a8:	b910      	cbnz	r0, 80028b0 <VL53L0X_StaticInit+0x18c>
 80028aa:	9b03      	ldr	r3, [sp, #12]
 80028ac:	f8c5 30dc 	str.w	r3, [r5, #220]	; 0xdc
 80028b0:	4620      	mov	r0, r4
 80028b2:	b014      	add	sp, #80	; 0x50
 80028b4:	bd70      	pop	{r4, r5, r6, pc}
 80028b6:	290c      	cmp	r1, #12
 80028b8:	e751      	b.n	800275e <VL53L0X_StaticInit+0x3a>
 80028ba:	4628      	mov	r0, r5
 80028bc:	f000 f90f 	bl	8002ade <VL53L0X_set_reference_spads>
 80028c0:	e754      	b.n	800276c <VL53L0X_StaticInit+0x48>
 80028c2:	4901      	ldr	r1, [pc, #4]	; (80028c8 <VL53L0X_StaticInit+0x1a4>)
 80028c4:	e75d      	b.n	8002782 <VL53L0X_StaticInit+0x5e>
 80028c6:	bf00      	nop
 80028c8:	20000004 	.word	0x20000004

080028cc <VL53L0X_GetInterruptMaskStatus>:
 80028cc:	b513      	push	{r0, r1, r4, lr}
 80028ce:	460c      	mov	r4, r1
 80028d0:	f10d 0207 	add.w	r2, sp, #7
 80028d4:	2113      	movs	r1, #19
 80028d6:	f001 fde2 	bl	800449e <VL53L0X_RdByte>
 80028da:	f89d 3007 	ldrb.w	r3, [sp, #7]
 80028de:	f013 0f18 	tst.w	r3, #24
 80028e2:	f003 0207 	and.w	r2, r3, #7
 80028e6:	bf18      	it	ne
 80028e8:	f06f 0005 	mvnne.w	r0, #5
 80028ec:	6022      	str	r2, [r4, #0]
 80028ee:	b002      	add	sp, #8
 80028f0:	bd10      	pop	{r4, pc}

080028f2 <VL53L0X_GetMeasurementDataReady>:
 80028f2:	b513      	push	{r0, r1, r4, lr}
 80028f4:	f890 30da 	ldrb.w	r3, [r0, #218]	; 0xda
 80028f8:	2b04      	cmp	r3, #4
 80028fa:	460c      	mov	r4, r1
 80028fc:	d10b      	bne.n	8002916 <VL53L0X_GetMeasurementDataReady+0x24>
 80028fe:	a901      	add	r1, sp, #4
 8002900:	f7ff ffe4 	bl	80028cc <VL53L0X_GetInterruptMaskStatus>
 8002904:	9b01      	ldr	r3, [sp, #4]
 8002906:	2b04      	cmp	r3, #4
 8002908:	d101      	bne.n	800290e <VL53L0X_GetMeasurementDataReady+0x1c>
 800290a:	2301      	movs	r3, #1
 800290c:	e000      	b.n	8002910 <VL53L0X_GetMeasurementDataReady+0x1e>
 800290e:	2300      	movs	r3, #0
 8002910:	7023      	strb	r3, [r4, #0]
 8002912:	b002      	add	sp, #8
 8002914:	bd10      	pop	{r4, pc}
 8002916:	aa01      	add	r2, sp, #4
 8002918:	2114      	movs	r1, #20
 800291a:	f001 fdc0 	bl	800449e <VL53L0X_RdByte>
 800291e:	2800      	cmp	r0, #0
 8002920:	d1f7      	bne.n	8002912 <VL53L0X_GetMeasurementDataReady+0x20>
 8002922:	f89d 3004 	ldrb.w	r3, [sp, #4]
 8002926:	07db      	lsls	r3, r3, #31
 8002928:	d4ef      	bmi.n	800290a <VL53L0X_GetMeasurementDataReady+0x18>
 800292a:	7020      	strb	r0, [r4, #0]
 800292c:	e7f1      	b.n	8002912 <VL53L0X_GetMeasurementDataReady+0x20>

0800292e <VL53L0X_PerformRefSpadManagement>:
 800292e:	f000 ba44 	b.w	8002dba <VL53L0X_perform_ref_spad_management>

08002932 <VL53L0X_get_offset_calibration_data_micro_meter>:
 8002932:	b513      	push	{r0, r1, r4, lr}
 8002934:	460c      	mov	r4, r1
 8002936:	f10d 0206 	add.w	r2, sp, #6
 800293a:	2128      	movs	r1, #40	; 0x28
 800293c:	f001 fdbe 	bl	80044bc <VL53L0X_RdWord>
 8002940:	b970      	cbnz	r0, 8002960 <VL53L0X_get_offset_calibration_data_micro_meter+0x2e>
 8002942:	f8bd 3006 	ldrh.w	r3, [sp, #6]
 8002946:	f3c3 030b 	ubfx	r3, r3, #0, #12
 800294a:	f5b3 6f00 	cmp.w	r3, #2048	; 0x800
 800294e:	f04f 02fa 	mov.w	r2, #250	; 0xfa
 8002952:	bf26      	itte	cs
 8002954:	f5a3 5380 	subcs.w	r3, r3, #4096	; 0x1000
 8002958:	fb13 f302 	smulbbcs	r3, r3, r2
 800295c:	4353      	mulcc	r3, r2
 800295e:	6023      	str	r3, [r4, #0]
 8002960:	b002      	add	sp, #8
 8002962:	bd10      	pop	{r4, pc}

08002964 <get_next_good_spad>:
 8002964:	b5f0      	push	{r4, r5, r6, r7, lr}
 8002966:	ea4f 0cd2 	mov.w	ip, r2, lsr #3
 800296a:	f04f 34ff 	mov.w	r4, #4294967295
 800296e:	601c      	str	r4, [r3, #0]
 8002970:	f002 0207 	and.w	r2, r2, #7
 8002974:	4666      	mov	r6, ip
 8002976:	2700      	movs	r7, #0
 8002978:	428e      	cmp	r6, r1
 800297a:	d200      	bcs.n	800297e <get_next_good_spad+0x1a>
 800297c:	b107      	cbz	r7, 8002980 <get_next_good_spad+0x1c>
 800297e:	bdf0      	pop	{r4, r5, r6, r7, pc}
 8002980:	5d85      	ldrb	r5, [r0, r6]
 8002982:	4566      	cmp	r6, ip
 8002984:	bf03      	ittte	eq
 8002986:	4115      	asreq	r5, r2
 8002988:	b2ed      	uxtbeq	r5, r5
 800298a:	4614      	moveq	r4, r2
 800298c:	463c      	movne	r4, r7
 800298e:	f015 0f01 	tst.w	r5, #1
 8002992:	d005      	beq.n	80029a0 <get_next_good_spad+0x3c>
 8002994:	eb04 04c6 	add.w	r4, r4, r6, lsl #3
 8002998:	601c      	str	r4, [r3, #0]
 800299a:	2701      	movs	r7, #1
 800299c:	3601      	adds	r6, #1
 800299e:	e7eb      	b.n	8002978 <get_next_good_spad+0x14>
 80029a0:	3401      	adds	r4, #1
 80029a2:	2c08      	cmp	r4, #8
 80029a4:	ea4f 0555 	mov.w	r5, r5, lsr #1
 80029a8:	d1f1      	bne.n	800298e <get_next_good_spad+0x2a>
 80029aa:	e7f7      	b.n	800299c <get_next_good_spad+0x38>

080029ac <is_aperture>:
 80029ac:	4b03      	ldr	r3, [pc, #12]	; (80029bc <is_aperture+0x10>)
 80029ae:	0980      	lsrs	r0, r0, #6
 80029b0:	f853 0020 	ldr.w	r0, [r3, r0, lsl #2]
 80029b4:	3000      	adds	r0, #0
 80029b6:	bf18      	it	ne
 80029b8:	2001      	movne	r0, #1
 80029ba:	4770      	bx	lr
 80029bc:	200002b0 	.word	0x200002b0

080029c0 <enable_spad_bit>:
 80029c0:	08d3      	lsrs	r3, r2, #3
 80029c2:	428b      	cmp	r3, r1
 80029c4:	f002 0207 	and.w	r2, r2, #7
 80029c8:	bf3f      	itttt	cc
 80029ca:	2101      	movcc	r1, #1
 80029cc:	4091      	lslcc	r1, r2
 80029ce:	5cc2      	ldrbcc	r2, [r0, r3]
 80029d0:	430a      	orrcc	r2, r1
 80029d2:	bf3a      	itte	cc
 80029d4:	54c2      	strbcc	r2, [r0, r3]
 80029d6:	2000      	movcc	r0, #0
 80029d8:	f06f 0031 	mvncs.w	r0, #49	; 0x31
 80029dc:	4770      	bx	lr

080029de <set_ref_spad_map>:
 80029de:	460a      	mov	r2, r1
 80029e0:	2306      	movs	r3, #6
 80029e2:	21b0      	movs	r1, #176	; 0xb0
 80029e4:	f001 bcec 	b.w	80043c0 <VL53L0X_WriteMulti>

080029e8 <get_ref_spad_map>:
 80029e8:	460a      	mov	r2, r1
 80029ea:	2306      	movs	r3, #6
 80029ec:	21b0      	movs	r1, #176	; 0xb0
 80029ee:	f001 bcfe 	b.w	80043ee <VL53L0X_ReadMulti>

080029f2 <enable_ref_spads>:
 80029f2:	e92d 4ff0 	stmdb	sp!, {r4, r5, r6, r7, r8, r9, sl, fp, lr}
 80029f6:	b087      	sub	sp, #28
 80029f8:	f10d 0918 	add.w	r9, sp, #24
 80029fc:	9c12      	ldr	r4, [sp, #72]	; 0x48
 80029fe:	9f10      	ldr	r7, [sp, #64]	; 0x40
 8002a00:	f849 4d0c 	str.w	r4, [r9, #-12]!
 8002a04:	4682      	mov	sl, r0
 8002a06:	468b      	mov	fp, r1
 8002a08:	9201      	str	r2, [sp, #4]
 8002a0a:	461d      	mov	r5, r3
 8002a0c:	f04f 0800 	mov.w	r8, #0
 8002a10:	9b13      	ldr	r3, [sp, #76]	; 0x4c
 8002a12:	4598      	cmp	r8, r3
 8002a14:	d114      	bne.n	8002a40 <enable_ref_spads+0x4e>
 8002a16:	2000      	movs	r0, #0
 8002a18:	9b14      	ldr	r3, [sp, #80]	; 0x50
 8002a1a:	601c      	str	r4, [r3, #0]
 8002a1c:	b968      	cbnz	r0, 8002a3a <enable_ref_spads+0x48>
 8002a1e:	4629      	mov	r1, r5
 8002a20:	4650      	mov	r0, sl
 8002a22:	f7ff ffdc 	bl	80029de <set_ref_spad_map>
 8002a26:	4604      	mov	r4, r0
 8002a28:	b938      	cbnz	r0, 8002a3a <enable_ref_spads+0x48>
 8002a2a:	ae04      	add	r6, sp, #16
 8002a2c:	4631      	mov	r1, r6
 8002a2e:	4650      	mov	r0, sl
 8002a30:	f7ff ffda 	bl	80029e8 <get_ref_spad_map>
 8002a34:	4623      	mov	r3, r4
 8002a36:	429f      	cmp	r7, r3
 8002a38:	d11c      	bne.n	8002a74 <enable_ref_spads+0x82>
 8002a3a:	b007      	add	sp, #28
 8002a3c:	e8bd 8ff0 	ldmia.w	sp!, {r4, r5, r6, r7, r8, r9, sl, fp, pc}
 8002a40:	464b      	mov	r3, r9
 8002a42:	4622      	mov	r2, r4
 8002a44:	4639      	mov	r1, r7
 8002a46:	9801      	ldr	r0, [sp, #4]
 8002a48:	f7ff ff8c 	bl	8002964 <get_next_good_spad>
 8002a4c:	9e03      	ldr	r6, [sp, #12]
 8002a4e:	1c73      	adds	r3, r6, #1
 8002a50:	d00d      	beq.n	8002a6e <enable_ref_spads+0x7c>
 8002a52:	9b11      	ldr	r3, [sp, #68]	; 0x44
 8002a54:	18f0      	adds	r0, r6, r3
 8002a56:	f7ff ffa9 	bl	80029ac <is_aperture>
 8002a5a:	4558      	cmp	r0, fp
 8002a5c:	d107      	bne.n	8002a6e <enable_ref_spads+0x7c>
 8002a5e:	4632      	mov	r2, r6
 8002a60:	4628      	mov	r0, r5
 8002a62:	f7ff ffad 	bl	80029c0 <enable_spad_bit>
 8002a66:	1c74      	adds	r4, r6, #1
 8002a68:	f108 0801 	add.w	r8, r8, #1
 8002a6c:	e7d0      	b.n	8002a10 <enable_ref_spads+0x1e>
 8002a6e:	f06f 0031 	mvn.w	r0, #49	; 0x31
 8002a72:	e7d1      	b.n	8002a18 <enable_ref_spads+0x26>
 8002a74:	5ce9      	ldrb	r1, [r5, r3]
 8002a76:	5cf2      	ldrb	r2, [r6, r3]
 8002a78:	4291      	cmp	r1, r2
 8002a7a:	d101      	bne.n	8002a80 <enable_ref_spads+0x8e>
 8002a7c:	3301      	adds	r3, #1
 8002a7e:	e7da      	b.n	8002a36 <enable_ref_spads+0x44>
 8002a80:	f06f 0031 	mvn.w	r0, #49	; 0x31
 8002a84:	e7d9      	b.n	8002a3a <enable_ref_spads+0x48>

08002a86 <perform_ref_signal_measurement>:
 8002a86:	b570      	push	{r4, r5, r6, lr}
 8002a88:	22c0      	movs	r2, #192	; 0xc0
 8002a8a:	b088      	sub	sp, #32
 8002a8c:	460e      	mov	r6, r1
 8002a8e:	2101      	movs	r1, #1
 8002a90:	4604      	mov	r4, r0
 8002a92:	f890 5130 	ldrb.w	r5, [r0, #304]	; 0x130
 8002a96:	f001 fcc1 	bl	800441c <VL53L0X_WrByte>
 8002a9a:	b9f0      	cbnz	r0, 8002ada <perform_ref_signal_measurement+0x54>
 8002a9c:	a901      	add	r1, sp, #4
 8002a9e:	4620      	mov	r0, r4
 8002aa0:	f7ff fd77 	bl	8002592 <VL53L0X_PerformSingleRangingMeasurement>
 8002aa4:	b9c8      	cbnz	r0, 8002ada <perform_ref_signal_measurement+0x54>
 8002aa6:	2201      	movs	r2, #1
 8002aa8:	21ff      	movs	r1, #255	; 0xff
 8002aaa:	4620      	mov	r0, r4
 8002aac:	f001 fcb6 	bl	800441c <VL53L0X_WrByte>
 8002ab0:	b998      	cbnz	r0, 8002ada <perform_ref_signal_measurement+0x54>
 8002ab2:	4632      	mov	r2, r6
 8002ab4:	21b6      	movs	r1, #182	; 0xb6
 8002ab6:	4620      	mov	r0, r4
 8002ab8:	f001 fd00 	bl	80044bc <VL53L0X_RdWord>
 8002abc:	b968      	cbnz	r0, 8002ada <perform_ref_signal_measurement+0x54>
 8002abe:	4602      	mov	r2, r0
 8002ac0:	21ff      	movs	r1, #255	; 0xff
 8002ac2:	4620      	mov	r0, r4
 8002ac4:	f001 fcaa 	bl	800441c <VL53L0X_WrByte>
 8002ac8:	b938      	cbnz	r0, 8002ada <perform_ref_signal_measurement+0x54>
 8002aca:	462a      	mov	r2, r5
 8002acc:	2101      	movs	r1, #1
 8002ace:	4620      	mov	r0, r4
 8002ad0:	f001 fca4 	bl	800441c <VL53L0X_WrByte>
 8002ad4:	b908      	cbnz	r0, 8002ada <perform_ref_signal_measurement+0x54>
 8002ad6:	f884 5130 	strb.w	r5, [r4, #304]	; 0x130
 8002ada:	b008      	add	sp, #32
 8002adc:	bd70      	pop	{r4, r5, r6, pc}

08002ade <VL53L0X_set_reference_spads>:
 8002ade:	b570      	push	{r4, r5, r6, lr}
 8002ae0:	460e      	mov	r6, r1
 8002ae2:	b088      	sub	sp, #32
 8002ae4:	4615      	mov	r5, r2
 8002ae6:	21ff      	movs	r1, #255	; 0xff
 8002ae8:	2201      	movs	r2, #1
 8002aea:	4604      	mov	r4, r0
 8002aec:	f001 fc96 	bl	800441c <VL53L0X_WrByte>
 8002af0:	4602      	mov	r2, r0
 8002af2:	b9a8      	cbnz	r0, 8002b20 <VL53L0X_set_reference_spads+0x42>
 8002af4:	214f      	movs	r1, #79	; 0x4f
 8002af6:	4620      	mov	r0, r4
 8002af8:	f001 fc90 	bl	800441c <VL53L0X_WrByte>
 8002afc:	b980      	cbnz	r0, 8002b20 <VL53L0X_set_reference_spads+0x42>
 8002afe:	222c      	movs	r2, #44	; 0x2c
 8002b00:	214e      	movs	r1, #78	; 0x4e
 8002b02:	4620      	mov	r0, r4
 8002b04:	f001 fc8a 	bl	800441c <VL53L0X_WrByte>
 8002b08:	4602      	mov	r2, r0
 8002b0a:	b948      	cbnz	r0, 8002b20 <VL53L0X_set_reference_spads+0x42>
 8002b0c:	21ff      	movs	r1, #255	; 0xff
 8002b0e:	4620      	mov	r0, r4
 8002b10:	f001 fc84 	bl	800441c <VL53L0X_WrByte>
 8002b14:	b920      	cbnz	r0, 8002b20 <VL53L0X_set_reference_spads+0x42>
 8002b16:	22b4      	movs	r2, #180	; 0xb4
 8002b18:	21b6      	movs	r1, #182	; 0xb6
 8002b1a:	4620      	mov	r0, r4
 8002b1c:	f001 fc7e 	bl	800441c <VL53L0X_WrByte>
 8002b20:	2200      	movs	r2, #0
 8002b22:	f8c4 2124 	str.w	r2, [r4, #292]	; 0x124
 8002b26:	f8a4 2128 	strh.w	r2, [r4, #296]	; 0x128
 8002b2a:	b9dd      	cbnz	r5, 8002b64 <VL53L0X_set_reference_spads+0x86>
 8002b2c:	462a      	mov	r2, r5
 8002b2e:	ab07      	add	r3, sp, #28
 8002b30:	e9cd 6303 	strd	r6, r3, [sp, #12]
 8002b34:	9202      	str	r2, [sp, #8]
 8002b36:	2306      	movs	r3, #6
 8002b38:	22b4      	movs	r2, #180	; 0xb4
 8002b3a:	e9cd 3200 	strd	r3, r2, [sp]
 8002b3e:	4629      	mov	r1, r5
 8002b40:	f504 7392 	add.w	r3, r4, #292	; 0x124
 8002b44:	f504 7295 	add.w	r2, r4, #298	; 0x12a
 8002b48:	4620      	mov	r0, r4
 8002b4a:	f7ff ff52 	bl	80029f2 <enable_ref_spads>
 8002b4e:	b930      	cbnz	r0, 8002b5e <VL53L0X_set_reference_spads+0x80>
 8002b50:	2301      	movs	r3, #1
 8002b52:	f884 3115 	strb.w	r3, [r4, #277]	; 0x115
 8002b56:	f884 6113 	strb.w	r6, [r4, #275]	; 0x113
 8002b5a:	f884 5114 	strb.w	r5, [r4, #276]	; 0x114
 8002b5e:	b008      	add	sp, #32
 8002b60:	bd70      	pop	{r4, r5, r6, pc}
 8002b62:	3201      	adds	r2, #1
 8002b64:	f102 00b4 	add.w	r0, r2, #180	; 0xb4
 8002b68:	f7ff ff20 	bl	80029ac <is_aperture>
 8002b6c:	2800      	cmp	r0, #0
 8002b6e:	d1de      	bne.n	8002b2e <VL53L0X_set_reference_spads+0x50>
 8002b70:	2a2c      	cmp	r2, #44	; 0x2c
 8002b72:	d1f6      	bne.n	8002b62 <VL53L0X_set_reference_spads+0x84>
 8002b74:	e7db      	b.n	8002b2e <VL53L0X_set_reference_spads+0x50>

08002b76 <VL53L0X_perform_single_ref_calibration>:
 8002b76:	b510      	push	{r4, lr}
 8002b78:	f041 0201 	orr.w	r2, r1, #1
 8002b7c:	2100      	movs	r1, #0
 8002b7e:	4604      	mov	r4, r0
 8002b80:	f001 fc4c 	bl	800441c <VL53L0X_WrByte>
 8002b84:	b978      	cbnz	r0, 8002ba6 <VL53L0X_perform_single_ref_calibration+0x30>
 8002b86:	4620      	mov	r0, r4
 8002b88:	f000 fa3b 	bl	8003002 <VL53L0X_measurement_poll_for_completion>
 8002b8c:	b958      	cbnz	r0, 8002ba6 <VL53L0X_perform_single_ref_calibration+0x30>
 8002b8e:	4601      	mov	r1, r0
 8002b90:	4620      	mov	r0, r4
 8002b92:	f7ff fcd2 	bl	800253a <VL53L0X_ClearInterruptMask>
 8002b96:	b930      	cbnz	r0, 8002ba6 <VL53L0X_perform_single_ref_calibration+0x30>
 8002b98:	4602      	mov	r2, r0
 8002b9a:	4601      	mov	r1, r0
 8002b9c:	4620      	mov	r0, r4
 8002b9e:	e8bd 4010 	ldmia.w	sp!, {r4, lr}
 8002ba2:	f001 bc3b 	b.w	800441c <VL53L0X_WrByte>
 8002ba6:	bd10      	pop	{r4, pc}

08002ba8 <VL53L0X_ref_calibration_io>:
 8002ba8:	e92d 4ff7 	stmdb	sp!, {r0, r1, r2, r4, r5, r6, r7, r8, r9, sl, fp, lr}
 8002bac:	f04f 0b00 	mov.w	fp, #0
 8002bb0:	4689      	mov	r9, r1
 8002bb2:	4690      	mov	r8, r2
 8002bb4:	21ff      	movs	r1, #255	; 0xff
 8002bb6:	2201      	movs	r2, #1
 8002bb8:	4605      	mov	r5, r0
 8002bba:	461f      	mov	r7, r3
 8002bbc:	f89d a038 	ldrb.w	sl, [sp, #56]	; 0x38
 8002bc0:	f89d 603c 	ldrb.w	r6, [sp, #60]	; 0x3c
 8002bc4:	f88d b007 	strb.w	fp, [sp, #7]
 8002bc8:	f001 fc28 	bl	800441c <VL53L0X_WrByte>
 8002bcc:	465a      	mov	r2, fp
 8002bce:	4604      	mov	r4, r0
 8002bd0:	4659      	mov	r1, fp
 8002bd2:	4628      	mov	r0, r5
 8002bd4:	f001 fc22 	bl	800441c <VL53L0X_WrByte>
 8002bd8:	465a      	mov	r2, fp
 8002bda:	4304      	orrs	r4, r0
 8002bdc:	21ff      	movs	r1, #255	; 0xff
 8002bde:	4628      	mov	r0, r5
 8002be0:	f001 fc1c 	bl	800441c <VL53L0X_WrByte>
 8002be4:	b264      	sxtb	r4, r4
 8002be6:	4304      	orrs	r4, r0
 8002be8:	b264      	sxtb	r4, r4
 8002bea:	f1b9 0f00 	cmp.w	r9, #0
 8002bee:	d030      	beq.n	8002c52 <VL53L0X_ref_calibration_io+0xaa>
 8002bf0:	f1ba 0f00 	cmp.w	sl, #0
 8002bf4:	d006      	beq.n	8002c04 <VL53L0X_ref_calibration_io+0x5c>
 8002bf6:	9a0c      	ldr	r2, [sp, #48]	; 0x30
 8002bf8:	21cb      	movs	r1, #203	; 0xcb
 8002bfa:	4628      	mov	r0, r5
 8002bfc:	f001 fc4f 	bl	800449e <VL53L0X_RdByte>
 8002c00:	4304      	orrs	r4, r0
 8002c02:	b264      	sxtb	r4, r4
 8002c04:	b13e      	cbz	r6, 8002c16 <VL53L0X_ref_calibration_io+0x6e>
 8002c06:	f10d 0207 	add.w	r2, sp, #7
 8002c0a:	21ee      	movs	r1, #238	; 0xee
 8002c0c:	4628      	mov	r0, r5
 8002c0e:	f001 fc46 	bl	800449e <VL53L0X_RdByte>
 8002c12:	4304      	orrs	r4, r0
 8002c14:	b264      	sxtb	r4, r4
 8002c16:	2201      	movs	r2, #1
 8002c18:	21ff      	movs	r1, #255	; 0xff
 8002c1a:	4628      	mov	r0, r5
 8002c1c:	f001 fbfe 	bl	800441c <VL53L0X_WrByte>
 8002c20:	2201      	movs	r2, #1
 8002c22:	4304      	orrs	r4, r0
 8002c24:	2100      	movs	r1, #0
 8002c26:	4628      	mov	r0, r5
 8002c28:	f001 fbf8 	bl	800441c <VL53L0X_WrByte>
 8002c2c:	b264      	sxtb	r4, r4
 8002c2e:	4304      	orrs	r4, r0
 8002c30:	2200      	movs	r2, #0
 8002c32:	21ff      	movs	r1, #255	; 0xff
 8002c34:	4628      	mov	r0, r5
 8002c36:	f001 fbf1 	bl	800441c <VL53L0X_WrByte>
 8002c3a:	b264      	sxtb	r4, r4
 8002c3c:	f89d 3007 	ldrb.w	r3, [sp, #7]
 8002c40:	9a0d      	ldr	r2, [sp, #52]	; 0x34
 8002c42:	4320      	orrs	r0, r4
 8002c44:	f023 0310 	bic.w	r3, r3, #16
 8002c48:	b240      	sxtb	r0, r0
 8002c4a:	7013      	strb	r3, [r2, #0]
 8002c4c:	b003      	add	sp, #12
 8002c4e:	e8bd 8ff0 	ldmia.w	sp!, {r4, r5, r6, r7, r8, r9, sl, fp, pc}
 8002c52:	f1ba 0f00 	cmp.w	sl, #0
 8002c56:	d006      	beq.n	8002c66 <VL53L0X_ref_calibration_io+0xbe>
 8002c58:	4642      	mov	r2, r8
 8002c5a:	21cb      	movs	r1, #203	; 0xcb
 8002c5c:	4628      	mov	r0, r5
 8002c5e:	f001 fbdd 	bl	800441c <VL53L0X_WrByte>
 8002c62:	4304      	orrs	r4, r0
 8002c64:	b264      	sxtb	r4, r4
 8002c66:	2e00      	cmp	r6, #0
 8002c68:	d0d5      	beq.n	8002c16 <VL53L0X_ref_calibration_io+0x6e>
 8002c6a:	463b      	mov	r3, r7
 8002c6c:	2280      	movs	r2, #128	; 0x80
 8002c6e:	21ee      	movs	r1, #238	; 0xee
 8002c70:	4628      	mov	r0, r5
 8002c72:	f001 fbf1 	bl	8004458 <VL53L0X_UpdateByte>
 8002c76:	e7cc      	b.n	8002c12 <VL53L0X_ref_calibration_io+0x6a>

08002c78 <VL53L0X_perform_vhv_calibration>:
 8002c78:	e92d 43f0 	stmdb	sp!, {r4, r5, r6, r7, r8, r9, lr}
 8002c7c:	b087      	sub	sp, #28
 8002c7e:	4691      	mov	r9, r2
 8002c80:	2200      	movs	r2, #0
 8002c82:	4605      	mov	r5, r0
 8002c84:	4688      	mov	r8, r1
 8002c86:	f88d 2017 	strb.w	r2, [sp, #23]
 8002c8a:	461f      	mov	r7, r3
 8002c8c:	b31b      	cbz	r3, 8002cd6 <VL53L0X_perform_vhv_calibration+0x5e>
 8002c8e:	f890 6130 	ldrb.w	r6, [r0, #304]	; 0x130
 8002c92:	2201      	movs	r2, #1
 8002c94:	4611      	mov	r1, r2
 8002c96:	4628      	mov	r0, r5
 8002c98:	f001 fbc0 	bl	800441c <VL53L0X_WrByte>
 8002c9c:	4604      	mov	r4, r0
 8002c9e:	bb58      	cbnz	r0, 8002cf8 <VL53L0X_perform_vhv_calibration+0x80>
 8002ca0:	2140      	movs	r1, #64	; 0x40
 8002ca2:	4628      	mov	r0, r5
 8002ca4:	f7ff ff67 	bl	8002b76 <VL53L0X_perform_single_ref_calibration>
 8002ca8:	4604      	mov	r4, r0
 8002caa:	bb28      	cbnz	r0, 8002cf8 <VL53L0X_perform_vhv_calibration+0x80>
 8002cac:	f1b9 0f01 	cmp.w	r9, #1
 8002cb0:	d113      	bne.n	8002cda <VL53L0X_perform_vhv_calibration+0x62>
 8002cb2:	f10d 0317 	add.w	r3, sp, #23
 8002cb6:	e9cd 9002 	strd	r9, r0, [sp, #8]
 8002cba:	e9cd 8300 	strd	r8, r3, [sp]
 8002cbe:	4602      	mov	r2, r0
 8002cc0:	4603      	mov	r3, r0
 8002cc2:	4649      	mov	r1, r9
 8002cc4:	4628      	mov	r0, r5
 8002cc6:	f7ff ff6f 	bl	8002ba8 <VL53L0X_ref_calibration_io>
 8002cca:	b140      	cbz	r0, 8002cde <VL53L0X_perform_vhv_calibration+0x66>
 8002ccc:	4604      	mov	r4, r0
 8002cce:	4620      	mov	r0, r4
 8002cd0:	b007      	add	sp, #28
 8002cd2:	e8bd 83f0 	ldmia.w	sp!, {r4, r5, r6, r7, r8, r9, pc}
 8002cd6:	461e      	mov	r6, r3
 8002cd8:	e7db      	b.n	8002c92 <VL53L0X_perform_vhv_calibration+0x1a>
 8002cda:	f888 0000 	strb.w	r0, [r8]
 8002cde:	2f00      	cmp	r7, #0
 8002ce0:	d0f5      	beq.n	8002cce <VL53L0X_perform_vhv_calibration+0x56>
 8002ce2:	4632      	mov	r2, r6
 8002ce4:	2101      	movs	r1, #1
 8002ce6:	4628      	mov	r0, r5
 8002ce8:	f001 fb98 	bl	800441c <VL53L0X_WrByte>
 8002cec:	4604      	mov	r4, r0
 8002cee:	2800      	cmp	r0, #0
 8002cf0:	d1ed      	bne.n	8002cce <VL53L0X_perform_vhv_calibration+0x56>
 8002cf2:	f885 6130 	strb.w	r6, [r5, #304]	; 0x130
 8002cf6:	e7ea      	b.n	8002cce <VL53L0X_perform_vhv_calibration+0x56>
 8002cf8:	2300      	movs	r3, #0
 8002cfa:	f888 3000 	strb.w	r3, [r8]
 8002cfe:	e7e6      	b.n	8002cce <VL53L0X_perform_vhv_calibration+0x56>

08002d00 <VL53L0X_perform_phase_calibration>:
 8002d00:	e92d 43f0 	stmdb	sp!, {r4, r5, r6, r7, r8, r9, lr}
 8002d04:	4605      	mov	r5, r0
 8002d06:	b087      	sub	sp, #28
 8002d08:	4688      	mov	r8, r1
 8002d0a:	4691      	mov	r9, r2
 8002d0c:	461f      	mov	r7, r3
 8002d0e:	b323      	cbz	r3, 8002d5a <VL53L0X_perform_phase_calibration+0x5a>
 8002d10:	f890 6130 	ldrb.w	r6, [r0, #304]	; 0x130
 8002d14:	2202      	movs	r2, #2
 8002d16:	2101      	movs	r1, #1
 8002d18:	4628      	mov	r0, r5
 8002d1a:	f001 fb7f 	bl	800441c <VL53L0X_WrByte>
 8002d1e:	4604      	mov	r4, r0
 8002d20:	bb60      	cbnz	r0, 8002d7c <VL53L0X_perform_phase_calibration+0x7c>
 8002d22:	4601      	mov	r1, r0
 8002d24:	4628      	mov	r0, r5
 8002d26:	f7ff ff26 	bl	8002b76 <VL53L0X_perform_single_ref_calibration>
 8002d2a:	4604      	mov	r4, r0
 8002d2c:	bb30      	cbnz	r0, 8002d7c <VL53L0X_perform_phase_calibration+0x7c>
 8002d2e:	f1b9 0f01 	cmp.w	r9, #1
 8002d32:	d114      	bne.n	8002d5e <VL53L0X_perform_phase_calibration+0x5e>
 8002d34:	f10d 0317 	add.w	r3, sp, #23
 8002d38:	e9cd 0902 	strd	r0, r9, [sp, #8]
 8002d3c:	9300      	str	r3, [sp, #0]
 8002d3e:	4602      	mov	r2, r0
 8002d40:	4603      	mov	r3, r0
 8002d42:	f8cd 8004 	str.w	r8, [sp, #4]
 8002d46:	4649      	mov	r1, r9
 8002d48:	4628      	mov	r0, r5
 8002d4a:	f7ff ff2d 	bl	8002ba8 <VL53L0X_ref_calibration_io>
 8002d4e:	b140      	cbz	r0, 8002d62 <VL53L0X_perform_phase_calibration+0x62>
 8002d50:	4604      	mov	r4, r0
 8002d52:	4620      	mov	r0, r4
 8002d54:	b007      	add	sp, #28
 8002d56:	e8bd 83f0 	ldmia.w	sp!, {r4, r5, r6, r7, r8, r9, pc}
 8002d5a:	461e      	mov	r6, r3
 8002d5c:	e7da      	b.n	8002d14 <VL53L0X_perform_phase_calibration+0x14>
 8002d5e:	f888 0000 	strb.w	r0, [r8]
 8002d62:	2f00      	cmp	r7, #0
 8002d64:	d0f5      	beq.n	8002d52 <VL53L0X_perform_phase_calibration+0x52>
 8002d66:	4632      	mov	r2, r6
 8002d68:	2101      	movs	r1, #1
 8002d6a:	4628      	mov	r0, r5
 8002d6c:	f001 fb56 	bl	800441c <VL53L0X_WrByte>
 8002d70:	4604      	mov	r4, r0
 8002d72:	2800      	cmp	r0, #0
 8002d74:	d1ed      	bne.n	8002d52 <VL53L0X_perform_phase_calibration+0x52>
 8002d76:	f885 6130 	strb.w	r6, [r5, #304]	; 0x130
 8002d7a:	e7ea      	b.n	8002d52 <VL53L0X_perform_phase_calibration+0x52>
 8002d7c:	2300      	movs	r3, #0
 8002d7e:	f888 3000 	strb.w	r3, [r8]
 8002d82:	e7e6      	b.n	8002d52 <VL53L0X_perform_phase_calibration+0x52>

08002d84 <VL53L0X_perform_ref_calibration>:
 8002d84:	b5f8      	push	{r3, r4, r5, r6, r7, lr}
 8002d86:	461e      	mov	r6, r3
 8002d88:	4617      	mov	r7, r2
 8002d8a:	2300      	movs	r3, #0
 8002d8c:	4632      	mov	r2, r6
 8002d8e:	4604      	mov	r4, r0
 8002d90:	f890 5130 	ldrb.w	r5, [r0, #304]	; 0x130
 8002d94:	f7ff ff70 	bl	8002c78 <VL53L0X_perform_vhv_calibration>
 8002d98:	b970      	cbnz	r0, 8002db8 <VL53L0X_perform_ref_calibration+0x34>
 8002d9a:	4603      	mov	r3, r0
 8002d9c:	4632      	mov	r2, r6
 8002d9e:	4639      	mov	r1, r7
 8002da0:	4620      	mov	r0, r4
 8002da2:	f7ff ffad 	bl	8002d00 <VL53L0X_perform_phase_calibration>
 8002da6:	b938      	cbnz	r0, 8002db8 <VL53L0X_perform_ref_calibration+0x34>
 8002da8:	462a      	mov	r2, r5
 8002daa:	2101      	movs	r1, #1
 8002dac:	4620      	mov	r0, r4
 8002dae:	f001 fb35 	bl	800441c <VL53L0X_WrByte>
 8002db2:	b908      	cbnz	r0, 8002db8 <VL53L0X_perform_ref_calibration+0x34>
 8002db4:	f884 5130 	strb.w	r5, [r4, #304]	; 0x130
 8002db8:	bdf8      	pop	{r3, r4, r5, r6, r7, pc}

08002dba <VL53L0X_perform_ref_spad_management>:
 8002dba:	e92d 4ff0 	stmdb	sp!, {r4, r5, r6, r7, r8, r9, sl, fp, lr}
 8002dbe:	2300      	movs	r3, #0
 8002dc0:	b091      	sub	sp, #68	; 0x44
 8002dc2:	e9cd 1208 	strd	r1, r2, [sp, #32]
 8002dc6:	f8c0 3124 	str.w	r3, [r0, #292]	; 0x124
 8002dca:	f8a0 3128 	strh.w	r3, [r0, #296]	; 0x128
 8002dce:	2201      	movs	r2, #1
 8002dd0:	21ff      	movs	r1, #255	; 0xff
 8002dd2:	4605      	mov	r5, r0
 8002dd4:	e9cd 330c 	strd	r3, r3, [sp, #48]	; 0x30
 8002dd8:	f88d 302c 	strb.w	r3, [sp, #44]	; 0x2c
 8002ddc:	f88d 302d 	strb.w	r3, [sp, #45]	; 0x2d
 8002de0:	f8b0 813c 	ldrh.w	r8, [r0, #316]	; 0x13c
 8002de4:	f001 fb1a 	bl	800441c <VL53L0X_WrByte>
 8002de8:	4604      	mov	r4, r0
 8002dea:	2800      	cmp	r0, #0
 8002dec:	f040 8103 	bne.w	8002ff6 <VL53L0X_perform_ref_spad_management+0x23c>
 8002df0:	4602      	mov	r2, r0
 8002df2:	214f      	movs	r1, #79	; 0x4f
 8002df4:	4628      	mov	r0, r5
 8002df6:	f001 fb11 	bl	800441c <VL53L0X_WrByte>
 8002dfa:	4604      	mov	r4, r0
 8002dfc:	2800      	cmp	r0, #0
 8002dfe:	f040 80fa 	bne.w	8002ff6 <VL53L0X_perform_ref_spad_management+0x23c>
 8002e02:	222c      	movs	r2, #44	; 0x2c
 8002e04:	214e      	movs	r1, #78	; 0x4e
 8002e06:	4628      	mov	r0, r5
 8002e08:	f001 fb08 	bl	800441c <VL53L0X_WrByte>
 8002e0c:	4604      	mov	r4, r0
 8002e0e:	2800      	cmp	r0, #0
 8002e10:	f040 80f1 	bne.w	8002ff6 <VL53L0X_perform_ref_spad_management+0x23c>
 8002e14:	4602      	mov	r2, r0
 8002e16:	21ff      	movs	r1, #255	; 0xff
 8002e18:	4628      	mov	r0, r5
 8002e1a:	f001 faff 	bl	800441c <VL53L0X_WrByte>
 8002e1e:	4604      	mov	r4, r0
 8002e20:	2800      	cmp	r0, #0
 8002e22:	f040 80e8 	bne.w	8002ff6 <VL53L0X_perform_ref_spad_management+0x23c>
 8002e26:	22b4      	movs	r2, #180	; 0xb4
 8002e28:	21b6      	movs	r1, #182	; 0xb6
 8002e2a:	4628      	mov	r0, r5
 8002e2c:	f001 faf6 	bl	800441c <VL53L0X_WrByte>
 8002e30:	4604      	mov	r4, r0
 8002e32:	2800      	cmp	r0, #0
 8002e34:	f040 80df 	bne.w	8002ff6 <VL53L0X_perform_ref_spad_management+0x23c>
 8002e38:	4602      	mov	r2, r0
 8002e3a:	2180      	movs	r1, #128	; 0x80
 8002e3c:	4628      	mov	r0, r5
 8002e3e:	f001 faed 	bl	800441c <VL53L0X_WrByte>
 8002e42:	4604      	mov	r4, r0
 8002e44:	2800      	cmp	r0, #0
 8002e46:	f040 80d6 	bne.w	8002ff6 <VL53L0X_perform_ref_spad_management+0x23c>
 8002e4a:	4603      	mov	r3, r0
 8002e4c:	f10d 022d 	add.w	r2, sp, #45	; 0x2d
 8002e50:	a90b      	add	r1, sp, #44	; 0x2c
 8002e52:	4628      	mov	r0, r5
 8002e54:	f7ff ff96 	bl	8002d84 <VL53L0X_perform_ref_calibration>
 8002e58:	4604      	mov	r4, r0
 8002e5a:	2800      	cmp	r0, #0
 8002e5c:	f040 80cb 	bne.w	8002ff6 <VL53L0X_perform_ref_spad_management+0x23c>
 8002e60:	af10      	add	r7, sp, #64	; 0x40
 8002e62:	2303      	movs	r3, #3
 8002e64:	f847 0d10 	str.w	r0, [r7, #-16]!
 8002e68:	21b4      	movs	r1, #180	; 0xb4
 8002e6a:	e9cd 0302 	strd	r0, r3, [sp, #8]
 8002e6e:	f505 7b95 	add.w	fp, r5, #298	; 0x12a
 8002e72:	2306      	movs	r3, #6
 8002e74:	f505 7992 	add.w	r9, r5, #292	; 0x124
 8002e78:	e9cd 3100 	strd	r3, r1, [sp]
 8002e7c:	9704      	str	r7, [sp, #16]
 8002e7e:	4601      	mov	r1, r0
 8002e80:	464b      	mov	r3, r9
 8002e82:	465a      	mov	r2, fp
 8002e84:	4628      	mov	r0, r5
 8002e86:	f7ff fdb4 	bl	80029f2 <enable_ref_spads>
 8002e8a:	4604      	mov	r4, r0
 8002e8c:	2800      	cmp	r0, #0
 8002e8e:	f040 80b2 	bne.w	8002ff6 <VL53L0X_perform_ref_spad_management+0x23c>
 8002e92:	f10d 012e 	add.w	r1, sp, #46	; 0x2e
 8002e96:	4628      	mov	r0, r5
 8002e98:	9e0c      	ldr	r6, [sp, #48]	; 0x30
 8002e9a:	f7ff fdf4 	bl	8002a86 <perform_ref_signal_measurement>
 8002e9e:	4604      	mov	r4, r0
 8002ea0:	2800      	cmp	r0, #0
 8002ea2:	f040 80a8 	bne.w	8002ff6 <VL53L0X_perform_ref_spad_management+0x23c>
 8002ea6:	f8bd 302e 	ldrh.w	r3, [sp, #46]	; 0x2e
 8002eaa:	4543      	cmp	r3, r8
 8002eac:	d94d      	bls.n	8002f4a <VL53L0X_perform_ref_spad_management+0x190>
 8002eae:	f8c5 0124 	str.w	r0, [r5, #292]	; 0x124
 8002eb2:	f8a5 0128 	strh.w	r0, [r5, #296]	; 0x128
 8002eb6:	f106 00b4 	add.w	r0, r6, #180	; 0xb4
 8002eba:	f7ff fd77 	bl	80029ac <is_aperture>
 8002ebe:	b180      	cbz	r0, 8002ee2 <VL53L0X_perform_ref_spad_management+0x128>
 8002ec0:	2306      	movs	r3, #6
 8002ec2:	22b4      	movs	r2, #180	; 0xb4
 8002ec4:	9704      	str	r7, [sp, #16]
 8002ec6:	2703      	movs	r7, #3
 8002ec8:	e9cd 3200 	strd	r3, r2, [sp]
 8002ecc:	e9cd 6702 	strd	r6, r7, [sp, #8]
 8002ed0:	464b      	mov	r3, r9
 8002ed2:	465a      	mov	r2, fp
 8002ed4:	2101      	movs	r1, #1
 8002ed6:	4628      	mov	r0, r5
 8002ed8:	f7ff fd8b 	bl	80029f2 <enable_ref_spads>
 8002edc:	b128      	cbz	r0, 8002eea <VL53L0X_perform_ref_spad_management+0x130>
 8002ede:	4604      	mov	r4, r0
 8002ee0:	e089      	b.n	8002ff6 <VL53L0X_perform_ref_spad_management+0x23c>
 8002ee2:	2e2b      	cmp	r6, #43	; 0x2b
 8002ee4:	d8ec      	bhi.n	8002ec0 <VL53L0X_perform_ref_spad_management+0x106>
 8002ee6:	3601      	adds	r6, #1
 8002ee8:	e7e5      	b.n	8002eb6 <VL53L0X_perform_ref_spad_management+0xfc>
 8002eea:	f10d 012e 	add.w	r1, sp, #46	; 0x2e
 8002eee:	4628      	mov	r0, r5
 8002ef0:	9e0c      	ldr	r6, [sp, #48]	; 0x30
 8002ef2:	f7ff fdc8 	bl	8002a86 <perform_ref_signal_measurement>
 8002ef6:	2800      	cmp	r0, #0
 8002ef8:	d1f1      	bne.n	8002ede <VL53L0X_perform_ref_spad_management+0x124>
 8002efa:	f8bd 302e 	ldrh.w	r3, [sp, #46]	; 0x2e
 8002efe:	4543      	cmp	r3, r8
 8002f00:	d97d      	bls.n	8002ffe <VL53L0X_perform_ref_spad_management+0x244>
 8002f02:	2001      	movs	r0, #1
 8002f04:	f04f 0a01 	mov.w	sl, #1
 8002f08:	e022      	b.n	8002f50 <VL53L0X_perform_ref_spad_management+0x196>
 8002f0a:	f8d5 0124 	ldr.w	r0, [r5, #292]	; 0x124
 8002f0e:	f8b5 2128 	ldrh.w	r2, [r5, #296]	; 0x128
 8002f12:	900e      	str	r0, [sp, #56]	; 0x38
 8002f14:	f8ad 203c 	strh.w	r2, [sp, #60]	; 0x3c
 8002f18:	9f06      	ldr	r7, [sp, #24]
 8002f1a:	9307      	str	r3, [sp, #28]
 8002f1c:	e02a      	b.n	8002f74 <VL53L0X_perform_ref_spad_management+0x1ba>
 8002f1e:	9f06      	ldr	r7, [sp, #24]
 8002f20:	fa5f f08a 	uxtb.w	r0, sl
 8002f24:	9b08      	ldr	r3, [sp, #32]
 8002f26:	601f      	str	r7, [r3, #0]
 8002f28:	9b09      	ldr	r3, [sp, #36]	; 0x24
 8002f2a:	7018      	strb	r0, [r3, #0]
 8002f2c:	2301      	movs	r3, #1
 8002f2e:	f885 3115 	strb.w	r3, [r5, #277]	; 0x115
 8002f32:	9b08      	ldr	r3, [sp, #32]
 8002f34:	681b      	ldr	r3, [r3, #0]
 8002f36:	f885 3113 	strb.w	r3, [r5, #275]	; 0x113
 8002f3a:	9b09      	ldr	r3, [sp, #36]	; 0x24
 8002f3c:	781b      	ldrb	r3, [r3, #0]
 8002f3e:	f885 3114 	strb.w	r3, [r5, #276]	; 0x114
 8002f42:	e058      	b.n	8002ff6 <VL53L0X_perform_ref_spad_management+0x23c>
 8002f44:	f06f 0431 	mvn.w	r4, #49	; 0x31
 8002f48:	e055      	b.n	8002ff6 <VL53L0X_perform_ref_spad_management+0x23c>
 8002f4a:	2000      	movs	r0, #0
 8002f4c:	4607      	mov	r7, r0
 8002f4e:	4682      	mov	sl, r0
 8002f50:	f8bd 302e 	ldrh.w	r3, [sp, #46]	; 0x2e
 8002f54:	4543      	cmp	r3, r8
 8002f56:	d2e5      	bcs.n	8002f24 <VL53L0X_perform_ref_spad_management+0x16a>
 8002f58:	eba3 0308 	sub.w	r3, r3, r8
 8002f5c:	2b00      	cmp	r3, #0
 8002f5e:	f8d9 0000 	ldr.w	r0, [r9]
 8002f62:	f8b9 2004 	ldrh.w	r2, [r9, #4]
 8002f66:	900e      	str	r0, [sp, #56]	; 0x38
 8002f68:	bfb8      	it	lt
 8002f6a:	425b      	neglt	r3, r3
 8002f6c:	f8ad 203c 	strh.w	r2, [sp, #60]	; 0x3c
 8002f70:	9307      	str	r3, [sp, #28]
 8002f72:	2703      	movs	r7, #3
 8002f74:	ab0d      	add	r3, sp, #52	; 0x34
 8002f76:	4632      	mov	r2, r6
 8002f78:	2106      	movs	r1, #6
 8002f7a:	4658      	mov	r0, fp
 8002f7c:	f7ff fcf2 	bl	8002964 <get_next_good_spad>
 8002f80:	9e0d      	ldr	r6, [sp, #52]	; 0x34
 8002f82:	1c73      	adds	r3, r6, #1
 8002f84:	d0de      	beq.n	8002f44 <VL53L0X_perform_ref_spad_management+0x18a>
 8002f86:	f106 00b4 	add.w	r0, r6, #180	; 0xb4
 8002f8a:	f7ff fd0f 	bl	80029ac <is_aperture>
 8002f8e:	4550      	cmp	r0, sl
 8002f90:	d1c6      	bne.n	8002f20 <VL53L0X_perform_ref_spad_management+0x166>
 8002f92:	1c7b      	adds	r3, r7, #1
 8002f94:	4632      	mov	r2, r6
 8002f96:	2106      	movs	r1, #6
 8002f98:	4648      	mov	r0, r9
 8002f9a:	9306      	str	r3, [sp, #24]
 8002f9c:	f7ff fd10 	bl	80029c0 <enable_spad_bit>
 8002fa0:	2800      	cmp	r0, #0
 8002fa2:	d19c      	bne.n	8002ede <VL53L0X_perform_ref_spad_management+0x124>
 8002fa4:	4649      	mov	r1, r9
 8002fa6:	4628      	mov	r0, r5
 8002fa8:	3601      	adds	r6, #1
 8002faa:	f7ff fd18 	bl	80029de <set_ref_spad_map>
 8002fae:	2800      	cmp	r0, #0
 8002fb0:	d195      	bne.n	8002ede <VL53L0X_perform_ref_spad_management+0x124>
 8002fb2:	f10d 012e 	add.w	r1, sp, #46	; 0x2e
 8002fb6:	4628      	mov	r0, r5
 8002fb8:	f7ff fd65 	bl	8002a86 <perform_ref_signal_measurement>
 8002fbc:	2800      	cmp	r0, #0
 8002fbe:	d18e      	bne.n	8002ede <VL53L0X_perform_ref_spad_management+0x124>
 8002fc0:	f8bd 202e 	ldrh.w	r2, [sp, #46]	; 0x2e
 8002fc4:	eba2 0308 	sub.w	r3, r2, r8
 8002fc8:	2b00      	cmp	r3, #0
 8002fca:	bfb8      	it	lt
 8002fcc:	425b      	neglt	r3, r3
 8002fce:	4542      	cmp	r2, r8
 8002fd0:	d99b      	bls.n	8002f0a <VL53L0X_perform_ref_spad_management+0x150>
 8002fd2:	9a07      	ldr	r2, [sp, #28]
 8002fd4:	4293      	cmp	r3, r2
 8002fd6:	d9a2      	bls.n	8002f1e <VL53L0X_perform_ref_spad_management+0x164>
 8002fd8:	a90e      	add	r1, sp, #56	; 0x38
 8002fda:	4628      	mov	r0, r5
 8002fdc:	f7ff fcff 	bl	80029de <set_ref_spad_map>
 8002fe0:	f8bd 203c 	ldrh.w	r2, [sp, #60]	; 0x3c
 8002fe4:	f8a5 2128 	strh.w	r2, [r5, #296]	; 0x128
 8002fe8:	4603      	mov	r3, r0
 8002fea:	980e      	ldr	r0, [sp, #56]	; 0x38
 8002fec:	f8c5 0124 	str.w	r0, [r5, #292]	; 0x124
 8002ff0:	2b00      	cmp	r3, #0
 8002ff2:	d095      	beq.n	8002f20 <VL53L0X_perform_ref_spad_management+0x166>
 8002ff4:	461c      	mov	r4, r3
 8002ff6:	4620      	mov	r0, r4
 8002ff8:	b011      	add	sp, #68	; 0x44
 8002ffa:	e8bd 8ff0 	ldmia.w	sp!, {r4, r5, r6, r7, r8, r9, sl, fp, pc}
 8002ffe:	4607      	mov	r7, r0
 8003000:	e780      	b.n	8002f04 <VL53L0X_perform_ref_spad_management+0x14a>

08003002 <VL53L0X_measurement_poll_for_completion>:
 8003002:	b573      	push	{r0, r1, r4, r5, r6, lr}
 8003004:	ad02      	add	r5, sp, #8
 8003006:	2300      	movs	r3, #0
 8003008:	f805 3d01 	strb.w	r3, [r5, #-1]!
 800300c:	4606      	mov	r6, r0
 800300e:	f44f 64fa 	mov.w	r4, #2000	; 0x7d0
 8003012:	4629      	mov	r1, r5
 8003014:	4630      	mov	r0, r6
 8003016:	f7ff fc6c 	bl	80028f2 <VL53L0X_GetMeasurementDataReady>
 800301a:	b958      	cbnz	r0, 8003034 <VL53L0X_measurement_poll_for_completion+0x32>
 800301c:	f89d 3007 	ldrb.w	r3, [sp, #7]
 8003020:	2b01      	cmp	r3, #1
 8003022:	d007      	beq.n	8003034 <VL53L0X_measurement_poll_for_completion+0x32>
 8003024:	3c01      	subs	r4, #1
 8003026:	d003      	beq.n	8003030 <VL53L0X_measurement_poll_for_completion+0x2e>
 8003028:	4630      	mov	r0, r6
 800302a:	f001 fa65 	bl	80044f8 <VL53L0X_PollingDelay>
 800302e:	e7f0      	b.n	8003012 <VL53L0X_measurement_poll_for_completion+0x10>
 8003030:	f06f 0006 	mvn.w	r0, #6
 8003034:	b002      	add	sp, #8
 8003036:	bd70      	pop	{r4, r5, r6, pc}

08003038 <VL53L0X_isqrt>:
 8003038:	f04f 4380 	mov.w	r3, #1073741824	; 0x40000000
 800303c:	4283      	cmp	r3, r0
 800303e:	d803      	bhi.n	8003048 <VL53L0X_isqrt+0x10>
 8003040:	2200      	movs	r2, #0
 8003042:	b91b      	cbnz	r3, 800304c <VL53L0X_isqrt+0x14>
 8003044:	4610      	mov	r0, r2
 8003046:	4770      	bx	lr
 8003048:	089b      	lsrs	r3, r3, #2
 800304a:	e7f7      	b.n	800303c <VL53L0X_isqrt+0x4>
 800304c:	18d1      	adds	r1, r2, r3
 800304e:	4281      	cmp	r1, r0
 8003050:	ea4f 0252 	mov.w	r2, r2, lsr #1
 8003054:	bf9c      	itt	ls
 8003056:	18d2      	addls	r2, r2, r3
 8003058:	1a40      	subls	r0, r0, r1
 800305a:	089b      	lsrs	r3, r3, #2
 800305c:	e7f1      	b.n	8003042 <VL53L0X_isqrt+0xa>

0800305e <VL53L0X_device_read_strobe>:
 800305e:	b573      	push	{r0, r1, r4, r5, r6, lr}
 8003060:	2200      	movs	r2, #0
 8003062:	2183      	movs	r1, #131	; 0x83
 8003064:	4606      	mov	r6, r0
 8003066:	f001 f9d9 	bl	800441c <VL53L0X_WrByte>
 800306a:	4604      	mov	r4, r0
 800306c:	b980      	cbnz	r0, 8003090 <VL53L0X_device_read_strobe+0x32>
 800306e:	f44f 65fa 	mov.w	r5, #2000	; 0x7d0
 8003072:	f10d 0207 	add.w	r2, sp, #7
 8003076:	2183      	movs	r1, #131	; 0x83
 8003078:	4630      	mov	r0, r6
 800307a:	f001 fa10 	bl	800449e <VL53L0X_RdByte>
 800307e:	f89d 3007 	ldrb.w	r3, [sp, #7]
 8003082:	4604      	mov	r4, r0
 8003084:	b923      	cbnz	r3, 8003090 <VL53L0X_device_read_strobe+0x32>
 8003086:	b918      	cbnz	r0, 8003090 <VL53L0X_device_read_strobe+0x32>
 8003088:	3d01      	subs	r5, #1
 800308a:	d1f2      	bne.n	8003072 <VL53L0X_device_read_strobe+0x14>
 800308c:	f06f 0406 	mvn.w	r4, #6
 8003090:	2201      	movs	r2, #1
 8003092:	2183      	movs	r1, #131	; 0x83
 8003094:	4630      	mov	r0, r6
 8003096:	f001 f9c1 	bl	800441c <VL53L0X_WrByte>
 800309a:	4320      	orrs	r0, r4
 800309c:	b240      	sxtb	r0, r0
 800309e:	b002      	add	sp, #8
 80030a0:	bd70      	pop	{r4, r5, r6, pc}

080030a2 <VL53L0X_get_info_from_device>:
 80030a2:	e92d 4ff0 	stmdb	sp!, {r4, r5, r6, r7, r8, r9, sl, fp, lr}
 80030a6:	f890 60f0 	ldrb.w	r6, [r0, #240]	; 0xf0
 80030aa:	b091      	sub	sp, #68	; 0x44
 80030ac:	f04f 0900 	mov.w	r9, #0
 80030b0:	2e07      	cmp	r6, #7
 80030b2:	4604      	mov	r4, r0
 80030b4:	4688      	mov	r8, r1
 80030b6:	e9cd 9907 	strd	r9, r9, [sp, #28]
 80030ba:	f000 8295 	beq.w	80035e8 <VL53L0X_get_info_from_device+0x546>
 80030be:	2201      	movs	r2, #1
 80030c0:	2180      	movs	r1, #128	; 0x80
 80030c2:	f001 f9ab 	bl	800441c <VL53L0X_WrByte>
 80030c6:	2201      	movs	r2, #1
 80030c8:	4607      	mov	r7, r0
 80030ca:	21ff      	movs	r1, #255	; 0xff
 80030cc:	4620      	mov	r0, r4
 80030ce:	f001 f9a5 	bl	800441c <VL53L0X_WrByte>
 80030d2:	464a      	mov	r2, r9
 80030d4:	4307      	orrs	r7, r0
 80030d6:	4649      	mov	r1, r9
 80030d8:	4620      	mov	r0, r4
 80030da:	f001 f99f 	bl	800441c <VL53L0X_WrByte>
 80030de:	b27f      	sxtb	r7, r7
 80030e0:	4307      	orrs	r7, r0
 80030e2:	2206      	movs	r2, #6
 80030e4:	21ff      	movs	r1, #255	; 0xff
 80030e6:	4620      	mov	r0, r4
 80030e8:	f001 f998 	bl	800441c <VL53L0X_WrByte>
 80030ec:	b27f      	sxtb	r7, r7
 80030ee:	4307      	orrs	r7, r0
 80030f0:	f10d 0215 	add.w	r2, sp, #21
 80030f4:	2183      	movs	r1, #131	; 0x83
 80030f6:	4620      	mov	r0, r4
 80030f8:	f001 f9d1 	bl	800449e <VL53L0X_RdByte>
 80030fc:	f89d 2015 	ldrb.w	r2, [sp, #21]
 8003100:	b27f      	sxtb	r7, r7
 8003102:	4307      	orrs	r7, r0
 8003104:	f042 0204 	orr.w	r2, r2, #4
 8003108:	2183      	movs	r1, #131	; 0x83
 800310a:	4620      	mov	r0, r4
 800310c:	f001 f986 	bl	800441c <VL53L0X_WrByte>
 8003110:	b27f      	sxtb	r7, r7
 8003112:	4307      	orrs	r7, r0
 8003114:	2207      	movs	r2, #7
 8003116:	21ff      	movs	r1, #255	; 0xff
 8003118:	4620      	mov	r0, r4
 800311a:	f001 f97f 	bl	800441c <VL53L0X_WrByte>
 800311e:	b27f      	sxtb	r7, r7
 8003120:	2201      	movs	r2, #1
 8003122:	2181      	movs	r1, #129	; 0x81
 8003124:	4307      	orrs	r7, r0
 8003126:	4620      	mov	r0, r4
 8003128:	f001 f978 	bl	800441c <VL53L0X_WrByte>
 800312c:	b27f      	sxtb	r7, r7
 800312e:	4307      	orrs	r7, r0
 8003130:	4620      	mov	r0, r4
 8003132:	f001 f9e1 	bl	80044f8 <VL53L0X_PollingDelay>
 8003136:	b27f      	sxtb	r7, r7
 8003138:	4307      	orrs	r7, r0
 800313a:	2201      	movs	r2, #1
 800313c:	2180      	movs	r1, #128	; 0x80
 800313e:	4620      	mov	r0, r4
 8003140:	f001 f96c 	bl	800441c <VL53L0X_WrByte>
 8003144:	b27f      	sxtb	r7, r7
 8003146:	4338      	orrs	r0, r7
 8003148:	f018 0a01 	ands.w	sl, r8, #1
 800314c:	b245      	sxtb	r5, r0
 800314e:	f000 8243 	beq.w	80035d8 <VL53L0X_get_info_from_device+0x536>
 8003152:	07f3      	lsls	r3, r6, #31
 8003154:	f100 8243 	bmi.w	80035de <VL53L0X_get_info_from_device+0x53c>
 8003158:	226b      	movs	r2, #107	; 0x6b
 800315a:	2194      	movs	r1, #148	; 0x94
 800315c:	4620      	mov	r0, r4
 800315e:	f001 f95d 	bl	800441c <VL53L0X_WrByte>
 8003162:	4607      	mov	r7, r0
 8003164:	4620      	mov	r0, r4
 8003166:	f7ff ff7a 	bl	800305e <VL53L0X_device_read_strobe>
 800316a:	4338      	orrs	r0, r7
 800316c:	4305      	orrs	r5, r0
 800316e:	aa06      	add	r2, sp, #24
 8003170:	2190      	movs	r1, #144	; 0x90
 8003172:	4620      	mov	r0, r4
 8003174:	f001 f9b1 	bl	80044da <VL53L0X_RdDWord>
 8003178:	b26d      	sxtb	r5, r5
 800317a:	4305      	orrs	r5, r0
 800317c:	9806      	ldr	r0, [sp, #24]
 800317e:	2224      	movs	r2, #36	; 0x24
 8003180:	2194      	movs	r1, #148	; 0x94
 8003182:	f3c0 2b06 	ubfx	fp, r0, #8, #7
 8003186:	f3c0 39c0 	ubfx	r9, r0, #15, #1
 800318a:	4620      	mov	r0, r4
 800318c:	f001 f946 	bl	800441c <VL53L0X_WrByte>
 8003190:	b26d      	sxtb	r5, r5
 8003192:	4305      	orrs	r5, r0
 8003194:	4620      	mov	r0, r4
 8003196:	f7ff ff62 	bl	800305e <VL53L0X_device_read_strobe>
 800319a:	b26d      	sxtb	r5, r5
 800319c:	4305      	orrs	r5, r0
 800319e:	aa06      	add	r2, sp, #24
 80031a0:	2190      	movs	r1, #144	; 0x90
 80031a2:	4620      	mov	r0, r4
 80031a4:	f001 f999 	bl	80044da <VL53L0X_RdDWord>
 80031a8:	9b06      	ldr	r3, [sp, #24]
 80031aa:	f88d 3027 	strb.w	r3, [sp, #39]	; 0x27
 80031ae:	0e1a      	lsrs	r2, r3, #24
 80031b0:	f88d 2024 	strb.w	r2, [sp, #36]	; 0x24
 80031b4:	0c1a      	lsrs	r2, r3, #16
 80031b6:	f88d 2025 	strb.w	r2, [sp, #37]	; 0x25
 80031ba:	b26d      	sxtb	r5, r5
 80031bc:	0a1a      	lsrs	r2, r3, #8
 80031be:	2194      	movs	r1, #148	; 0x94
 80031c0:	4305      	orrs	r5, r0
 80031c2:	f88d 2026 	strb.w	r2, [sp, #38]	; 0x26
 80031c6:	4620      	mov	r0, r4
 80031c8:	2225      	movs	r2, #37	; 0x25
 80031ca:	f001 f927 	bl	800441c <VL53L0X_WrByte>
 80031ce:	b26d      	sxtb	r5, r5
 80031d0:	4305      	orrs	r5, r0
 80031d2:	4620      	mov	r0, r4
 80031d4:	f7ff ff43 	bl	800305e <VL53L0X_device_read_strobe>
 80031d8:	b26d      	sxtb	r5, r5
 80031da:	4305      	orrs	r5, r0
 80031dc:	aa06      	add	r2, sp, #24
 80031de:	2190      	movs	r1, #144	; 0x90
 80031e0:	4620      	mov	r0, r4
 80031e2:	f001 f97a 	bl	80044da <VL53L0X_RdDWord>
 80031e6:	9b06      	ldr	r3, [sp, #24]
 80031e8:	b26d      	sxtb	r5, r5
 80031ea:	0e1a      	lsrs	r2, r3, #24
 80031ec:	4305      	orrs	r5, r0
 80031ee:	0c1b      	lsrs	r3, r3, #16
 80031f0:	b26d      	sxtb	r5, r5
 80031f2:	f88d 2028 	strb.w	r2, [sp, #40]	; 0x28
 80031f6:	f88d 3029 	strb.w	r3, [sp, #41]	; 0x29
 80031fa:	f018 0302 	ands.w	r3, r8, #2
 80031fe:	9302      	str	r3, [sp, #8]
 8003200:	f000 80db 	beq.w	80033ba <VL53L0X_get_info_from_device+0x318>
 8003204:	f016 0702 	ands.w	r7, r6, #2
 8003208:	f040 80d7 	bne.w	80033ba <VL53L0X_get_info_from_device+0x318>
 800320c:	2202      	movs	r2, #2
 800320e:	2194      	movs	r1, #148	; 0x94
 8003210:	4620      	mov	r0, r4
 8003212:	f001 f903 	bl	800441c <VL53L0X_WrByte>
 8003216:	9001      	str	r0, [sp, #4]
 8003218:	4620      	mov	r0, r4
 800321a:	f7ff ff20 	bl	800305e <VL53L0X_device_read_strobe>
 800321e:	9b01      	ldr	r3, [sp, #4]
 8003220:	4318      	orrs	r0, r3
 8003222:	4305      	orrs	r5, r0
 8003224:	f10d 0216 	add.w	r2, sp, #22
 8003228:	2190      	movs	r1, #144	; 0x90
 800322a:	4620      	mov	r0, r4
 800322c:	f001 f937 	bl	800449e <VL53L0X_RdByte>
 8003230:	b26d      	sxtb	r5, r5
 8003232:	227b      	movs	r2, #123	; 0x7b
 8003234:	2194      	movs	r1, #148	; 0x94
 8003236:	4305      	orrs	r5, r0
 8003238:	4620      	mov	r0, r4
 800323a:	f001 f8ef 	bl	800441c <VL53L0X_WrByte>
 800323e:	b26d      	sxtb	r5, r5
 8003240:	4305      	orrs	r5, r0
 8003242:	4620      	mov	r0, r4
 8003244:	f7ff ff0b 	bl	800305e <VL53L0X_device_read_strobe>
 8003248:	b26d      	sxtb	r5, r5
 800324a:	4305      	orrs	r5, r0
 800324c:	f10d 0217 	add.w	r2, sp, #23
 8003250:	2190      	movs	r1, #144	; 0x90
 8003252:	4620      	mov	r0, r4
 8003254:	f001 f923 	bl	800449e <VL53L0X_RdByte>
 8003258:	b26d      	sxtb	r5, r5
 800325a:	2277      	movs	r2, #119	; 0x77
 800325c:	2194      	movs	r1, #148	; 0x94
 800325e:	4305      	orrs	r5, r0
 8003260:	4620      	mov	r0, r4
 8003262:	f001 f8db 	bl	800441c <VL53L0X_WrByte>
 8003266:	b26d      	sxtb	r5, r5
 8003268:	4305      	orrs	r5, r0
 800326a:	4620      	mov	r0, r4
 800326c:	f7ff fef7 	bl	800305e <VL53L0X_device_read_strobe>
 8003270:	b26d      	sxtb	r5, r5
 8003272:	4305      	orrs	r5, r0
 8003274:	aa06      	add	r2, sp, #24
 8003276:	2190      	movs	r1, #144	; 0x90
 8003278:	4620      	mov	r0, r4
 800327a:	f001 f92e 	bl	80044da <VL53L0X_RdDWord>
 800327e:	9b06      	ldr	r3, [sp, #24]
 8003280:	0e5a      	lsrs	r2, r3, #25
 8003282:	f88d 202c 	strb.w	r2, [sp, #44]	; 0x2c
 8003286:	f3c3 4286 	ubfx	r2, r3, #18, #7
 800328a:	f88d 202d 	strb.w	r2, [sp, #45]	; 0x2d
 800328e:	f3c3 22c6 	ubfx	r2, r3, #11, #7
 8003292:	f88d 202e 	strb.w	r2, [sp, #46]	; 0x2e
 8003296:	b26d      	sxtb	r5, r5
 8003298:	f3c3 1206 	ubfx	r2, r3, #4, #7
 800329c:	00db      	lsls	r3, r3, #3
 800329e:	f003 0378 	and.w	r3, r3, #120	; 0x78
 80032a2:	2194      	movs	r1, #148	; 0x94
 80032a4:	4305      	orrs	r5, r0
 80032a6:	f88d 202f 	strb.w	r2, [sp, #47]	; 0x2f
 80032aa:	4620      	mov	r0, r4
 80032ac:	2278      	movs	r2, #120	; 0x78
 80032ae:	f88d 3015 	strb.w	r3, [sp, #21]
 80032b2:	f001 f8b3 	bl	800441c <VL53L0X_WrByte>
 80032b6:	b26d      	sxtb	r5, r5
 80032b8:	4305      	orrs	r5, r0
 80032ba:	4620      	mov	r0, r4
 80032bc:	f7ff fecf 	bl	800305e <VL53L0X_device_read_strobe>
 80032c0:	b26d      	sxtb	r5, r5
 80032c2:	4305      	orrs	r5, r0
 80032c4:	aa06      	add	r2, sp, #24
 80032c6:	2190      	movs	r1, #144	; 0x90
 80032c8:	4620      	mov	r0, r4
 80032ca:	f001 f906 	bl	80044da <VL53L0X_RdDWord>
 80032ce:	9b06      	ldr	r3, [sp, #24]
 80032d0:	f89d 2015 	ldrb.w	r2, [sp, #21]
 80032d4:	eb02 7253 	add.w	r2, r2, r3, lsr #29
 80032d8:	f88d 2030 	strb.w	r2, [sp, #48]	; 0x30
 80032dc:	f3c3 5286 	ubfx	r2, r3, #22, #7
 80032e0:	f88d 2031 	strb.w	r2, [sp, #49]	; 0x31
 80032e4:	f3c3 32c6 	ubfx	r2, r3, #15, #7
 80032e8:	f88d 2032 	strb.w	r2, [sp, #50]	; 0x32
 80032ec:	f3c3 2206 	ubfx	r2, r3, #8, #7
 80032f0:	f88d 2033 	strb.w	r2, [sp, #51]	; 0x33
 80032f4:	b26d      	sxtb	r5, r5
 80032f6:	f3c3 0246 	ubfx	r2, r3, #1, #7
 80032fa:	019b      	lsls	r3, r3, #6
 80032fc:	f003 0340 	and.w	r3, r3, #64	; 0x40
 8003300:	2194      	movs	r1, #148	; 0x94
 8003302:	4305      	orrs	r5, r0
 8003304:	f88d 2034 	strb.w	r2, [sp, #52]	; 0x34
 8003308:	4620      	mov	r0, r4
 800330a:	2279      	movs	r2, #121	; 0x79
 800330c:	f88d 3015 	strb.w	r3, [sp, #21]
 8003310:	f001 f884 	bl	800441c <VL53L0X_WrByte>
 8003314:	b26d      	sxtb	r5, r5
 8003316:	4305      	orrs	r5, r0
 8003318:	4620      	mov	r0, r4
 800331a:	f7ff fea0 	bl	800305e <VL53L0X_device_read_strobe>
 800331e:	b26d      	sxtb	r5, r5
 8003320:	4305      	orrs	r5, r0
 8003322:	aa06      	add	r2, sp, #24
 8003324:	2190      	movs	r1, #144	; 0x90
 8003326:	4620      	mov	r0, r4
 8003328:	f001 f8d7 	bl	80044da <VL53L0X_RdDWord>
 800332c:	9b06      	ldr	r3, [sp, #24]
 800332e:	f89d 2015 	ldrb.w	r2, [sp, #21]
 8003332:	eb02 6293 	add.w	r2, r2, r3, lsr #26
 8003336:	f88d 2035 	strb.w	r2, [sp, #53]	; 0x35
 800333a:	f3c3 42c6 	ubfx	r2, r3, #19, #7
 800333e:	f88d 2036 	strb.w	r2, [sp, #54]	; 0x36
 8003342:	f3c3 3206 	ubfx	r2, r3, #12, #7
 8003346:	f88d 2037 	strb.w	r2, [sp, #55]	; 0x37
 800334a:	b26d      	sxtb	r5, r5
 800334c:	f3c3 1246 	ubfx	r2, r3, #5, #7
 8003350:	009b      	lsls	r3, r3, #2
 8003352:	f003 037c 	and.w	r3, r3, #124	; 0x7c
 8003356:	2194      	movs	r1, #148	; 0x94
 8003358:	4305      	orrs	r5, r0
 800335a:	f88d 2038 	strb.w	r2, [sp, #56]	; 0x38
 800335e:	4620      	mov	r0, r4
 8003360:	227a      	movs	r2, #122	; 0x7a
 8003362:	f88d 3015 	strb.w	r3, [sp, #21]
 8003366:	f001 f859 	bl	800441c <VL53L0X_WrByte>
 800336a:	b26d      	sxtb	r5, r5
 800336c:	4305      	orrs	r5, r0
 800336e:	4620      	mov	r0, r4
 8003370:	f7ff fe75 	bl	800305e <VL53L0X_device_read_strobe>
 8003374:	b26d      	sxtb	r5, r5
 8003376:	4305      	orrs	r5, r0
 8003378:	aa06      	add	r2, sp, #24
 800337a:	2190      	movs	r1, #144	; 0x90
 800337c:	4620      	mov	r0, r4
 800337e:	f001 f8ac 	bl	80044da <VL53L0X_RdDWord>
 8003382:	9b06      	ldr	r3, [sp, #24]
 8003384:	f89d 2015 	ldrb.w	r2, [sp, #21]
 8003388:	f88d 703e 	strb.w	r7, [sp, #62]	; 0x3e
 800338c:	eb02 7293 	add.w	r2, r2, r3, lsr #30
 8003390:	f88d 2039 	strb.w	r2, [sp, #57]	; 0x39
 8003394:	f3c3 52c6 	ubfx	r2, r3, #23, #7
 8003398:	b26d      	sxtb	r5, r5
 800339a:	f88d 203a 	strb.w	r2, [sp, #58]	; 0x3a
 800339e:	f3c3 4206 	ubfx	r2, r3, #16, #7
 80033a2:	4305      	orrs	r5, r0
 80033a4:	f88d 203b 	strb.w	r2, [sp, #59]	; 0x3b
 80033a8:	f3c3 2246 	ubfx	r2, r3, #9, #7
 80033ac:	f3c3 0386 	ubfx	r3, r3, #2, #7
 80033b0:	b26d      	sxtb	r5, r5
 80033b2:	f88d 203c 	strb.w	r2, [sp, #60]	; 0x3c
 80033b6:	f88d 303d 	strb.w	r3, [sp, #61]	; 0x3d
 80033ba:	f018 0304 	ands.w	r3, r8, #4
 80033be:	9301      	str	r3, [sp, #4]
 80033c0:	f000 810f 	beq.w	80035e2 <VL53L0X_get_info_from_device+0x540>
 80033c4:	0777      	lsls	r7, r6, #29
 80033c6:	f100 810c 	bmi.w	80035e2 <VL53L0X_get_info_from_device+0x540>
 80033ca:	227b      	movs	r2, #123	; 0x7b
 80033cc:	2194      	movs	r1, #148	; 0x94
 80033ce:	4620      	mov	r0, r4
 80033d0:	f001 f824 	bl	800441c <VL53L0X_WrByte>
 80033d4:	4607      	mov	r7, r0
 80033d6:	4620      	mov	r0, r4
 80033d8:	f7ff fe41 	bl	800305e <VL53L0X_device_read_strobe>
 80033dc:	4338      	orrs	r0, r7
 80033de:	4305      	orrs	r5, r0
 80033e0:	aa07      	add	r2, sp, #28
 80033e2:	2190      	movs	r1, #144	; 0x90
 80033e4:	4620      	mov	r0, r4
 80033e6:	f001 f878 	bl	80044da <VL53L0X_RdDWord>
 80033ea:	b26d      	sxtb	r5, r5
 80033ec:	227c      	movs	r2, #124	; 0x7c
 80033ee:	2194      	movs	r1, #148	; 0x94
 80033f0:	4305      	orrs	r5, r0
 80033f2:	4620      	mov	r0, r4
 80033f4:	f001 f812 	bl	800441c <VL53L0X_WrByte>
 80033f8:	b26d      	sxtb	r5, r5
 80033fa:	4305      	orrs	r5, r0
 80033fc:	4620      	mov	r0, r4
 80033fe:	f7ff fe2e 	bl	800305e <VL53L0X_device_read_strobe>
 8003402:	b26d      	sxtb	r5, r5
 8003404:	4305      	orrs	r5, r0
 8003406:	aa08      	add	r2, sp, #32
 8003408:	2190      	movs	r1, #144	; 0x90
 800340a:	4620      	mov	r0, r4
 800340c:	f001 f865 	bl	80044da <VL53L0X_RdDWord>
 8003410:	b26d      	sxtb	r5, r5
 8003412:	2273      	movs	r2, #115	; 0x73
 8003414:	2194      	movs	r1, #148	; 0x94
 8003416:	4305      	orrs	r5, r0
 8003418:	4620      	mov	r0, r4
 800341a:	f000 ffff 	bl	800441c <VL53L0X_WrByte>
 800341e:	b26d      	sxtb	r5, r5
 8003420:	4305      	orrs	r5, r0
 8003422:	4620      	mov	r0, r4
 8003424:	f7ff fe1b 	bl	800305e <VL53L0X_device_read_strobe>
 8003428:	b26d      	sxtb	r5, r5
 800342a:	4305      	orrs	r5, r0
 800342c:	aa06      	add	r2, sp, #24
 800342e:	2190      	movs	r1, #144	; 0x90
 8003430:	4620      	mov	r0, r4
 8003432:	f001 f852 	bl	80044da <VL53L0X_RdDWord>
 8003436:	b26d      	sxtb	r5, r5
 8003438:	2274      	movs	r2, #116	; 0x74
 800343a:	2194      	movs	r1, #148	; 0x94
 800343c:	4305      	orrs	r5, r0
 800343e:	4620      	mov	r0, r4
 8003440:	9f06      	ldr	r7, [sp, #24]
 8003442:	f000 ffeb 	bl	800441c <VL53L0X_WrByte>
 8003446:	b26d      	sxtb	r5, r5
 8003448:	4305      	orrs	r5, r0
 800344a:	4620      	mov	r0, r4
 800344c:	f7ff fe07 	bl	800305e <VL53L0X_device_read_strobe>
 8003450:	b26d      	sxtb	r5, r5
 8003452:	4305      	orrs	r5, r0
 8003454:	aa06      	add	r2, sp, #24
 8003456:	2190      	movs	r1, #144	; 0x90
 8003458:	4620      	mov	r0, r4
 800345a:	f001 f83e 	bl	80044da <VL53L0X_RdDWord>
 800345e:	023f      	lsls	r7, r7, #8
 8003460:	f89d 301b 	ldrb.w	r3, [sp, #27]
 8003464:	b26d      	sxtb	r5, r5
 8003466:	2275      	movs	r2, #117	; 0x75
 8003468:	2194      	movs	r1, #148	; 0x94
 800346a:	4305      	orrs	r5, r0
 800346c:	b2bf      	uxth	r7, r7
 800346e:	4620      	mov	r0, r4
 8003470:	431f      	orrs	r7, r3
 8003472:	f000 ffd3 	bl	800441c <VL53L0X_WrByte>
 8003476:	b26d      	sxtb	r5, r5
 8003478:	4305      	orrs	r5, r0
 800347a:	4620      	mov	r0, r4
 800347c:	f7ff fdef 	bl	800305e <VL53L0X_device_read_strobe>
 8003480:	b26d      	sxtb	r5, r5
 8003482:	4305      	orrs	r5, r0
 8003484:	aa06      	add	r2, sp, #24
 8003486:	2190      	movs	r1, #144	; 0x90
 8003488:	4620      	mov	r0, r4
 800348a:	f001 f826 	bl	80044da <VL53L0X_RdDWord>
 800348e:	9b06      	ldr	r3, [sp, #24]
 8003490:	b26d      	sxtb	r5, r5
 8003492:	021b      	lsls	r3, r3, #8
 8003494:	b29b      	uxth	r3, r3
 8003496:	2276      	movs	r2, #118	; 0x76
 8003498:	2194      	movs	r1, #148	; 0x94
 800349a:	4305      	orrs	r5, r0
 800349c:	4620      	mov	r0, r4
 800349e:	9303      	str	r3, [sp, #12]
 80034a0:	f000 ffbc 	bl	800441c <VL53L0X_WrByte>
 80034a4:	b26d      	sxtb	r5, r5
 80034a6:	4305      	orrs	r5, r0
 80034a8:	4620      	mov	r0, r4
 80034aa:	f7ff fdd8 	bl	800305e <VL53L0X_device_read_strobe>
 80034ae:	b26d      	sxtb	r5, r5
 80034b0:	4305      	orrs	r5, r0
 80034b2:	aa06      	add	r2, sp, #24
 80034b4:	2190      	movs	r1, #144	; 0x90
 80034b6:	4620      	mov	r0, r4
 80034b8:	f001 f80f 	bl	80044da <VL53L0X_RdDWord>
 80034bc:	b26d      	sxtb	r5, r5
 80034be:	f89d 201b 	ldrb.w	r2, [sp, #27]
 80034c2:	9b03      	ldr	r3, [sp, #12]
 80034c4:	4305      	orrs	r5, r0
 80034c6:	b26d      	sxtb	r5, r5
 80034c8:	4313      	orrs	r3, r2
 80034ca:	2200      	movs	r2, #0
 80034cc:	2181      	movs	r1, #129	; 0x81
 80034ce:	4620      	mov	r0, r4
 80034d0:	9303      	str	r3, [sp, #12]
 80034d2:	f000 ffa3 	bl	800441c <VL53L0X_WrByte>
 80034d6:	2206      	movs	r2, #6
 80034d8:	4305      	orrs	r5, r0
 80034da:	21ff      	movs	r1, #255	; 0xff
 80034dc:	4620      	mov	r0, r4
 80034de:	f000 ff9d 	bl	800441c <VL53L0X_WrByte>
 80034e2:	b26d      	sxtb	r5, r5
 80034e4:	4305      	orrs	r5, r0
 80034e6:	f10d 0215 	add.w	r2, sp, #21
 80034ea:	2183      	movs	r1, #131	; 0x83
 80034ec:	4620      	mov	r0, r4
 80034ee:	f000 ffd6 	bl	800449e <VL53L0X_RdByte>
 80034f2:	f89d 2015 	ldrb.w	r2, [sp, #21]
 80034f6:	b26d      	sxtb	r5, r5
 80034f8:	4305      	orrs	r5, r0
 80034fa:	f002 02fb 	and.w	r2, r2, #251	; 0xfb
 80034fe:	2183      	movs	r1, #131	; 0x83
 8003500:	4620      	mov	r0, r4
 8003502:	f000 ff8b 	bl	800441c <VL53L0X_WrByte>
 8003506:	b26d      	sxtb	r5, r5
 8003508:	4305      	orrs	r5, r0
 800350a:	2201      	movs	r2, #1
 800350c:	21ff      	movs	r1, #255	; 0xff
 800350e:	4620      	mov	r0, r4
 8003510:	f000 ff84 	bl	800441c <VL53L0X_WrByte>
 8003514:	b26d      	sxtb	r5, r5
 8003516:	4305      	orrs	r5, r0
 8003518:	2201      	movs	r2, #1
 800351a:	2100      	movs	r1, #0
 800351c:	4620      	mov	r0, r4
 800351e:	f000 ff7d 	bl	800441c <VL53L0X_WrByte>
 8003522:	b26d      	sxtb	r5, r5
 8003524:	4305      	orrs	r5, r0
 8003526:	2200      	movs	r2, #0
 8003528:	21ff      	movs	r1, #255	; 0xff
 800352a:	4620      	mov	r0, r4
 800352c:	f000 ff76 	bl	800441c <VL53L0X_WrByte>
 8003530:	b26d      	sxtb	r5, r5
 8003532:	4305      	orrs	r5, r0
 8003534:	2200      	movs	r2, #0
 8003536:	2180      	movs	r1, #128	; 0x80
 8003538:	4620      	mov	r0, r4
 800353a:	f000 ff6f 	bl	800441c <VL53L0X_WrByte>
 800353e:	b26d      	sxtb	r5, r5
 8003540:	4305      	orrs	r5, r0
 8003542:	b26d      	sxtb	r5, r5
 8003544:	9b03      	ldr	r3, [sp, #12]
 8003546:	2d00      	cmp	r5, #0
 8003548:	d142      	bne.n	80035d0 <VL53L0X_get_info_from_device+0x52e>
 800354a:	f1ba 0f00 	cmp.w	sl, #0
 800354e:	d011      	beq.n	8003574 <VL53L0X_get_info_from_device+0x4d2>
 8003550:	07f0      	lsls	r0, r6, #31
 8003552:	d40f      	bmi.n	8003574 <VL53L0X_get_info_from_device+0x4d2>
 8003554:	f884 b113 	strb.w	fp, [r4, #275]	; 0x113
 8003558:	f884 9114 	strb.w	r9, [r4, #276]	; 0x114
 800355c:	f504 7195 	add.w	r1, r4, #298	; 0x12a
 8003560:	462a      	mov	r2, r5
 8003562:	f10d 0c24 	add.w	ip, sp, #36	; 0x24
 8003566:	f812 000c 	ldrb.w	r0, [r2, ip]
 800356a:	f801 0b01 	strb.w	r0, [r1], #1
 800356e:	3201      	adds	r2, #1
 8003570:	2a06      	cmp	r2, #6
 8003572:	d1f8      	bne.n	8003566 <VL53L0X_get_info_from_device+0x4c4>
 8003574:	9a02      	ldr	r2, [sp, #8]
 8003576:	b182      	cbz	r2, 800359a <VL53L0X_get_info_from_device+0x4f8>
 8003578:	07b1      	lsls	r1, r6, #30
 800357a:	d40e      	bmi.n	800359a <VL53L0X_get_info_from_device+0x4f8>
 800357c:	f89d 2016 	ldrb.w	r2, [sp, #22]
 8003580:	f884 20f1 	strb.w	r2, [r4, #241]	; 0xf1
 8003584:	f89d 2017 	ldrb.w	r2, [sp, #23]
 8003588:	f884 20f2 	strb.w	r2, [r4, #242]	; 0xf2
 800358c:	a90b      	add	r1, sp, #44	; 0x2c
 800358e:	f104 00f3 	add.w	r0, r4, #243	; 0xf3
 8003592:	9302      	str	r3, [sp, #8]
 8003594:	f004 f917 	bl	80077c6 <strcpy>
 8003598:	9b02      	ldr	r3, [sp, #8]
 800359a:	9a01      	ldr	r2, [sp, #4]
 800359c:	b1a2      	cbz	r2, 80035c8 <VL53L0X_get_info_from_device+0x526>
 800359e:	0772      	lsls	r2, r6, #29
 80035a0:	d412      	bmi.n	80035c8 <VL53L0X_get_info_from_device+0x526>
 80035a2:	9a07      	ldr	r2, [sp, #28]
 80035a4:	f8c4 2118 	str.w	r2, [r4, #280]	; 0x118
 80035a8:	027f      	lsls	r7, r7, #9
 80035aa:	9a08      	ldr	r2, [sp, #32]
 80035ac:	f8c4 211c 	str.w	r2, [r4, #284]	; 0x11c
 80035b0:	f8c4 7120 	str.w	r7, [r4, #288]	; 0x120
 80035b4:	b13b      	cbz	r3, 80035c6 <VL53L0X_get_info_from_device+0x524>
 80035b6:	f5a3 52c8 	sub.w	r2, r3, #6400	; 0x1900
 80035ba:	f44f 737a 	mov.w	r3, #1000	; 0x3e8
 80035be:	4353      	muls	r3, r2
 80035c0:	091b      	lsrs	r3, r3, #4
 80035c2:	425b      	negs	r3, r3
 80035c4:	b21b      	sxth	r3, r3
 80035c6:	60e3      	str	r3, [r4, #12]
 80035c8:	ea46 0608 	orr.w	r6, r6, r8
 80035cc:	f884 60f0 	strb.w	r6, [r4, #240]	; 0xf0
 80035d0:	4628      	mov	r0, r5
 80035d2:	b011      	add	sp, #68	; 0x44
 80035d4:	e8bd 8ff0 	ldmia.w	sp!, {r4, r5, r6, r7, r8, r9, sl, fp, pc}
 80035d8:	46d1      	mov	r9, sl
 80035da:	46d3      	mov	fp, sl
 80035dc:	e60d      	b.n	80031fa <VL53L0X_get_info_from_device+0x158>
 80035de:	46cb      	mov	fp, r9
 80035e0:	e60b      	b.n	80031fa <VL53L0X_get_info_from_device+0x158>
 80035e2:	2700      	movs	r7, #0
 80035e4:	463b      	mov	r3, r7
 80035e6:	e770      	b.n	80034ca <VL53L0X_get_info_from_device+0x428>
 80035e8:	464d      	mov	r5, r9
 80035ea:	e7f1      	b.n	80035d0 <VL53L0X_get_info_from_device+0x52e>

080035ec <VL53L0X_encode_timeout>:
 80035ec:	b150      	cbz	r0, 8003604 <VL53L0X_encode_timeout+0x18>
 80035ee:	3801      	subs	r0, #1
 80035f0:	2300      	movs	r3, #0
 80035f2:	f030 01ff 	bics.w	r1, r0, #255	; 0xff
 80035f6:	b29a      	uxth	r2, r3
 80035f8:	f103 0301 	add.w	r3, r3, #1
 80035fc:	d103      	bne.n	8003606 <VL53L0X_encode_timeout+0x1a>
 80035fe:	eb00 2002 	add.w	r0, r0, r2, lsl #8
 8003602:	b280      	uxth	r0, r0
 8003604:	4770      	bx	lr
 8003606:	0840      	lsrs	r0, r0, #1
 8003608:	e7f3      	b.n	80035f2 <VL53L0X_encode_timeout+0x6>

0800360a <VL53L0X_decode_timeout>:
 800360a:	b2c3      	uxtb	r3, r0
 800360c:	0a00      	lsrs	r0, r0, #8
 800360e:	fa03 f000 	lsl.w	r0, r3, r0
 8003612:	3001      	adds	r0, #1
 8003614:	4770      	bx	lr
	...

08003618 <VL53L0X_calc_timeout_mclks>:
 8003618:	4808      	ldr	r0, [pc, #32]	; (800363c <VL53L0X_calc_timeout_mclks+0x24>)
 800361a:	f44f 737a 	mov.w	r3, #1000	; 0x3e8
 800361e:	4342      	muls	r2, r0
 8003620:	f502 72fa 	add.w	r2, r2, #500	; 0x1f4
 8003624:	f44f 60fa 	mov.w	r0, #2000	; 0x7d0
 8003628:	fbb2 f0f0 	udiv	r0, r2, r0
 800362c:	fbb2 f2f3 	udiv	r2, r2, r3
 8003630:	fb03 0001 	mla	r0, r3, r1, r0
 8003634:	fbb0 f0f2 	udiv	r0, r0, r2
 8003638:	4770      	bx	lr
 800363a:	bf00      	nop
 800363c:	003a2f00 	.word	0x003a2f00

08003640 <set_sequence_step_timeout.part.1>:
 8003640:	b5f0      	push	{r4, r5, r6, r7, lr}
 8003642:	2903      	cmp	r1, #3
 8003644:	b085      	sub	sp, #20
 8003646:	4605      	mov	r5, r0
 8003648:	4617      	mov	r7, r2
 800364a:	d11f      	bne.n	800368c <set_sequence_step_timeout.part.1+0x4c>
 800364c:	f10d 0205 	add.w	r2, sp, #5
 8003650:	2100      	movs	r1, #0
 8003652:	f7fe fba1 	bl	8001d98 <VL53L0X_GetVcselPulsePeriod>
 8003656:	f89d 2005 	ldrb.w	r2, [sp, #5]
 800365a:	4639      	mov	r1, r7
 800365c:	4604      	mov	r4, r0
 800365e:	4628      	mov	r0, r5
 8003660:	f7ff ffda 	bl	8003618 <VL53L0X_calc_timeout_mclks>
 8003664:	b280      	uxth	r0, r0
 8003666:	f7ff ffc1 	bl	80035ec <VL53L0X_encode_timeout>
 800366a:	4602      	mov	r2, r0
 800366c:	f8ad 0006 	strh.w	r0, [sp, #6]
 8003670:	f8a5 00d8 	strh.w	r0, [r5, #216]	; 0xd8
 8003674:	b93c      	cbnz	r4, 8003686 <set_sequence_step_timeout.part.1+0x46>
 8003676:	2151      	movs	r1, #81	; 0x51
 8003678:	4628      	mov	r0, r5
 800367a:	f000 fede 	bl	800443a <VL53L0X_WrWord>
 800367e:	4604      	mov	r4, r0
 8003680:	b908      	cbnz	r0, 8003686 <set_sequence_step_timeout.part.1+0x46>
 8003682:	f8c5 70e4 	str.w	r7, [r5, #228]	; 0xe4
 8003686:	4620      	mov	r0, r4
 8003688:	b005      	add	sp, #20
 800368a:	bdf0      	pop	{r4, r5, r6, r7, pc}
 800368c:	2904      	cmp	r1, #4
 800368e:	d139      	bne.n	8003704 <set_sequence_step_timeout.part.1+0xc4>
 8003690:	a902      	add	r1, sp, #8
 8003692:	f7fe fbd4 	bl	8001e3e <VL53L0X_GetSequenceStepEnables>
 8003696:	f89d 600b 	ldrb.w	r6, [sp, #11]
 800369a:	b1b6      	cbz	r6, 80036ca <set_sequence_step_timeout.part.1+0x8a>
 800369c:	f10d 0205 	add.w	r2, sp, #5
 80036a0:	2100      	movs	r1, #0
 80036a2:	4628      	mov	r0, r5
 80036a4:	f7fe fb78 	bl	8001d98 <VL53L0X_GetVcselPulsePeriod>
 80036a8:	4604      	mov	r4, r0
 80036aa:	2800      	cmp	r0, #0
 80036ac:	d1eb      	bne.n	8003686 <set_sequence_step_timeout.part.1+0x46>
 80036ae:	f10d 0206 	add.w	r2, sp, #6
 80036b2:	2151      	movs	r1, #81	; 0x51
 80036b4:	4628      	mov	r0, r5
 80036b6:	f000 ff01 	bl	80044bc <VL53L0X_RdWord>
 80036ba:	4604      	mov	r4, r0
 80036bc:	f8bd 0006 	ldrh.w	r0, [sp, #6]
 80036c0:	f7ff ffa3 	bl	800360a <VL53L0X_decode_timeout>
 80036c4:	b286      	uxth	r6, r0
 80036c6:	2c00      	cmp	r4, #0
 80036c8:	d1dd      	bne.n	8003686 <set_sequence_step_timeout.part.1+0x46>
 80036ca:	f10d 0205 	add.w	r2, sp, #5
 80036ce:	2101      	movs	r1, #1
 80036d0:	4628      	mov	r0, r5
 80036d2:	f7fe fb61 	bl	8001d98 <VL53L0X_GetVcselPulsePeriod>
 80036d6:	4604      	mov	r4, r0
 80036d8:	2800      	cmp	r0, #0
 80036da:	d1d4      	bne.n	8003686 <set_sequence_step_timeout.part.1+0x46>
 80036dc:	f89d 2005 	ldrb.w	r2, [sp, #5]
 80036e0:	4639      	mov	r1, r7
 80036e2:	4628      	mov	r0, r5
 80036e4:	f7ff ff98 	bl	8003618 <VL53L0X_calc_timeout_mclks>
 80036e8:	4430      	add	r0, r6
 80036ea:	f7ff ff7f 	bl	80035ec <VL53L0X_encode_timeout>
 80036ee:	2171      	movs	r1, #113	; 0x71
 80036f0:	4602      	mov	r2, r0
 80036f2:	4628      	mov	r0, r5
 80036f4:	f000 fea1 	bl	800443a <VL53L0X_WrWord>
 80036f8:	4604      	mov	r4, r0
 80036fa:	2800      	cmp	r0, #0
 80036fc:	d1c3      	bne.n	8003686 <set_sequence_step_timeout.part.1+0x46>
 80036fe:	f8c5 70dc 	str.w	r7, [r5, #220]	; 0xdc
 8003702:	e7c0      	b.n	8003686 <set_sequence_step_timeout.part.1+0x46>
 8003704:	f06f 0403 	mvn.w	r4, #3
 8003708:	e7bd      	b.n	8003686 <set_sequence_step_timeout.part.1+0x46>
	...

0800370c <VL53L0X_calc_timeout_us>:
 800370c:	4b06      	ldr	r3, [pc, #24]	; (8003728 <VL53L0X_calc_timeout_us+0x1c>)
 800370e:	435a      	muls	r2, r3
 8003710:	f44f 707a 	mov.w	r0, #1000	; 0x3e8
 8003714:	f502 72fa 	add.w	r2, r2, #500	; 0x1f4
 8003718:	fbb2 f2f0 	udiv	r2, r2, r0
 800371c:	434a      	muls	r2, r1
 800371e:	f502 72fa 	add.w	r2, r2, #500	; 0x1f4
 8003722:	fbb2 f0f0 	udiv	r0, r2, r0
 8003726:	4770      	bx	lr
 8003728:	003a2f00 	.word	0x003a2f00

0800372c <get_sequence_step_timeout>:
 800372c:	e92d 41ff 	stmdb	sp!, {r0, r1, r2, r3, r4, r5, r6, r7, r8, lr}
 8003730:	2902      	cmp	r1, #2
 8003732:	f04f 0400 	mov.w	r4, #0
 8003736:	4606      	mov	r6, r0
 8003738:	4690      	mov	r8, r2
 800373a:	f88d 4003 	strb.w	r4, [sp, #3]
 800373e:	f8ad 4004 	strh.w	r4, [sp, #4]
 8003742:	d81d      	bhi.n	8003780 <get_sequence_step_timeout+0x54>
 8003744:	f10d 0202 	add.w	r2, sp, #2
 8003748:	4621      	mov	r1, r4
 800374a:	f7fe fb25 	bl	8001d98 <VL53L0X_GetVcselPulsePeriod>
 800374e:	4605      	mov	r5, r0
 8003750:	b930      	cbnz	r0, 8003760 <get_sequence_step_timeout+0x34>
 8003752:	f10d 0203 	add.w	r2, sp, #3
 8003756:	2146      	movs	r1, #70	; 0x46
 8003758:	4630      	mov	r0, r6
 800375a:	f000 fea0 	bl	800449e <VL53L0X_RdByte>
 800375e:	4605      	mov	r5, r0
 8003760:	f89d 0003 	ldrb.w	r0, [sp, #3]
 8003764:	f7ff ff51 	bl	800360a <VL53L0X_decode_timeout>
 8003768:	f89d 2002 	ldrb.w	r2, [sp, #2]
 800376c:	b281      	uxth	r1, r0
 800376e:	4630      	mov	r0, r6
 8003770:	f7ff ffcc 	bl	800370c <VL53L0X_calc_timeout_us>
 8003774:	f8c8 0000 	str.w	r0, [r8]
 8003778:	4628      	mov	r0, r5
 800377a:	b004      	add	sp, #16
 800377c:	e8bd 81f0 	ldmia.w	sp!, {r4, r5, r6, r7, r8, pc}
 8003780:	2903      	cmp	r1, #3
 8003782:	d118      	bne.n	80037b6 <get_sequence_step_timeout+0x8a>
 8003784:	f10d 0202 	add.w	r2, sp, #2
 8003788:	4621      	mov	r1, r4
 800378a:	f7fe fb05 	bl	8001d98 <VL53L0X_GetVcselPulsePeriod>
 800378e:	4605      	mov	r5, r0
 8003790:	2800      	cmp	r0, #0
 8003792:	d14a      	bne.n	800382a <get_sequence_step_timeout+0xfe>
 8003794:	4601      	mov	r1, r0
 8003796:	f10d 0202 	add.w	r2, sp, #2
 800379a:	4630      	mov	r0, r6
 800379c:	f7fe fafc 	bl	8001d98 <VL53L0X_GetVcselPulsePeriod>
 80037a0:	4605      	mov	r5, r0
 80037a2:	b928      	cbnz	r0, 80037b0 <get_sequence_step_timeout+0x84>
 80037a4:	aa01      	add	r2, sp, #4
 80037a6:	2151      	movs	r1, #81	; 0x51
 80037a8:	4630      	mov	r0, r6
 80037aa:	f000 fe87 	bl	80044bc <VL53L0X_RdWord>
 80037ae:	4605      	mov	r5, r0
 80037b0:	f8bd 0004 	ldrh.w	r0, [sp, #4]
 80037b4:	e7d6      	b.n	8003764 <get_sequence_step_timeout+0x38>
 80037b6:	2904      	cmp	r1, #4
 80037b8:	d139      	bne.n	800382e <get_sequence_step_timeout+0x102>
 80037ba:	a902      	add	r1, sp, #8
 80037bc:	f7fe fb3f 	bl	8001e3e <VL53L0X_GetSequenceStepEnables>
 80037c0:	f89d 100b 	ldrb.w	r1, [sp, #11]
 80037c4:	b1c9      	cbz	r1, 80037fa <get_sequence_step_timeout+0xce>
 80037c6:	f10d 0202 	add.w	r2, sp, #2
 80037ca:	4621      	mov	r1, r4
 80037cc:	4630      	mov	r0, r6
 80037ce:	f7fe fae3 	bl	8001d98 <VL53L0X_GetVcselPulsePeriod>
 80037d2:	4605      	mov	r5, r0
 80037d4:	4607      	mov	r7, r0
 80037d6:	bb30      	cbnz	r0, 8003826 <get_sequence_step_timeout+0xfa>
 80037d8:	aa01      	add	r2, sp, #4
 80037da:	2151      	movs	r1, #81	; 0x51
 80037dc:	4630      	mov	r0, r6
 80037de:	f000 fe6d 	bl	80044bc <VL53L0X_RdWord>
 80037e2:	4605      	mov	r5, r0
 80037e4:	f8bd 0004 	ldrh.w	r0, [sp, #4]
 80037e8:	f7ff ff0f 	bl	800360a <VL53L0X_decode_timeout>
 80037ec:	b284      	uxth	r4, r0
 80037ee:	b12d      	cbz	r5, 80037fc <get_sequence_step_timeout+0xd0>
 80037f0:	1b3c      	subs	r4, r7, r4
 80037f2:	f89d 2002 	ldrb.w	r2, [sp, #2]
 80037f6:	b2a1      	uxth	r1, r4
 80037f8:	e7b9      	b.n	800376e <get_sequence_step_timeout+0x42>
 80037fa:	460c      	mov	r4, r1
 80037fc:	f10d 0202 	add.w	r2, sp, #2
 8003800:	2101      	movs	r1, #1
 8003802:	4630      	mov	r0, r6
 8003804:	f7fe fac8 	bl	8001d98 <VL53L0X_GetVcselPulsePeriod>
 8003808:	4605      	mov	r5, r0
 800380a:	b960      	cbnz	r0, 8003826 <get_sequence_step_timeout+0xfa>
 800380c:	f10d 0206 	add.w	r2, sp, #6
 8003810:	2171      	movs	r1, #113	; 0x71
 8003812:	4630      	mov	r0, r6
 8003814:	f000 fe52 	bl	80044bc <VL53L0X_RdWord>
 8003818:	4605      	mov	r5, r0
 800381a:	f8bd 0006 	ldrh.w	r0, [sp, #6]
 800381e:	f7ff fef4 	bl	800360a <VL53L0X_decode_timeout>
 8003822:	b287      	uxth	r7, r0
 8003824:	e7e4      	b.n	80037f0 <get_sequence_step_timeout+0xc4>
 8003826:	2700      	movs	r7, #0
 8003828:	e7e2      	b.n	80037f0 <get_sequence_step_timeout+0xc4>
 800382a:	4620      	mov	r0, r4
 800382c:	e7a2      	b.n	8003774 <get_sequence_step_timeout+0x48>
 800382e:	4620      	mov	r0, r4
 8003830:	4625      	mov	r5, r4
 8003832:	e79f      	b.n	8003774 <get_sequence_step_timeout+0x48>

08003834 <set_sequence_step_timeout>:
 8003834:	2902      	cmp	r1, #2
 8003836:	b537      	push	{r0, r1, r2, r4, r5, lr}
 8003838:	4604      	mov	r4, r0
 800383a:	4615      	mov	r5, r2
 800383c:	d81b      	bhi.n	8003876 <set_sequence_step_timeout+0x42>
 800383e:	f10d 0207 	add.w	r2, sp, #7
 8003842:	2100      	movs	r1, #0
 8003844:	f7fe faa8 	bl	8001d98 <VL53L0X_GetVcselPulsePeriod>
 8003848:	b998      	cbnz	r0, 8003872 <set_sequence_step_timeout+0x3e>
 800384a:	f89d 2007 	ldrb.w	r2, [sp, #7]
 800384e:	4629      	mov	r1, r5
 8003850:	4620      	mov	r0, r4
 8003852:	f7ff fee1 	bl	8003618 <VL53L0X_calc_timeout_mclks>
 8003856:	b283      	uxth	r3, r0
 8003858:	f5b3 7f80 	cmp.w	r3, #256	; 0x100
 800385c:	bf9a      	itte	ls
 800385e:	f100 32ff 	addls.w	r2, r0, #4294967295
 8003862:	b2d2      	uxtbls	r2, r2
 8003864:	22ff      	movhi	r2, #255	; 0xff
 8003866:	f8a4 20d8 	strh.w	r2, [r4, #216]	; 0xd8
 800386a:	2146      	movs	r1, #70	; 0x46
 800386c:	4620      	mov	r0, r4
 800386e:	f000 fdd5 	bl	800441c <VL53L0X_WrByte>
 8003872:	b003      	add	sp, #12
 8003874:	bd30      	pop	{r4, r5, pc}
 8003876:	f7ff fee3 	bl	8003640 <set_sequence_step_timeout.part.1>
 800387a:	e7fa      	b.n	8003872 <set_sequence_step_timeout+0x3e>

0800387c <VL53L0X_set_vcsel_pulse_period>:
 800387c:	e92d 41ff 	stmdb	sp!, {r0, r1, r2, r3, r4, r5, r6, r7, r8, lr}
 8003880:	2300      	movs	r3, #0
 8003882:	f012 0701 	ands.w	r7, r2, #1
 8003886:	4605      	mov	r5, r0
 8003888:	4688      	mov	r8, r1
 800388a:	4616      	mov	r6, r2
 800388c:	f88d 3003 	strb.w	r3, [sp, #3]
 8003890:	d104      	bne.n	800389c <VL53L0X_set_vcsel_pulse_period+0x20>
 8003892:	b931      	cbnz	r1, 80038a2 <VL53L0X_set_vcsel_pulse_period+0x26>
 8003894:	f1a2 030c 	sub.w	r3, r2, #12
 8003898:	2b06      	cmp	r3, #6
 800389a:	d93e      	bls.n	800391a <VL53L0X_set_vcsel_pulse_period+0x9e>
 800389c:	f06f 0003 	mvn.w	r0, #3
 80038a0:	e038      	b.n	8003914 <VL53L0X_set_vcsel_pulse_period+0x98>
 80038a2:	2901      	cmp	r1, #1
 80038a4:	f040 80d1 	bne.w	8003a4a <VL53L0X_set_vcsel_pulse_period+0x1ce>
 80038a8:	f1a2 0308 	sub.w	r3, r2, #8
 80038ac:	2b06      	cmp	r3, #6
 80038ae:	d8f5      	bhi.n	800389c <VL53L0X_set_vcsel_pulse_period+0x20>
 80038b0:	2a08      	cmp	r2, #8
 80038b2:	d17d      	bne.n	80039b0 <VL53L0X_set_vcsel_pulse_period+0x134>
 80038b4:	2210      	movs	r2, #16
 80038b6:	2148      	movs	r1, #72	; 0x48
 80038b8:	f000 fdb0 	bl	800441c <VL53L0X_WrByte>
 80038bc:	4632      	mov	r2, r6
 80038be:	2147      	movs	r1, #71	; 0x47
 80038c0:	4628      	mov	r0, r5
 80038c2:	f000 fdab 	bl	800441c <VL53L0X_WrByte>
 80038c6:	2202      	movs	r2, #2
 80038c8:	4604      	mov	r4, r0
 80038ca:	2132      	movs	r1, #50	; 0x32
 80038cc:	4628      	mov	r0, r5
 80038ce:	f000 fda5 	bl	800441c <VL53L0X_WrByte>
 80038d2:	220c      	movs	r2, #12
 80038d4:	4304      	orrs	r4, r0
 80038d6:	2130      	movs	r1, #48	; 0x30
 80038d8:	4628      	mov	r0, r5
 80038da:	f000 fd9f 	bl	800441c <VL53L0X_WrByte>
 80038de:	b264      	sxtb	r4, r4
 80038e0:	4304      	orrs	r4, r0
 80038e2:	4642      	mov	r2, r8
 80038e4:	21ff      	movs	r1, #255	; 0xff
 80038e6:	4628      	mov	r0, r5
 80038e8:	f000 fd98 	bl	800441c <VL53L0X_WrByte>
 80038ec:	b264      	sxtb	r4, r4
 80038ee:	4304      	orrs	r4, r0
 80038f0:	b264      	sxtb	r4, r4
 80038f2:	2230      	movs	r2, #48	; 0x30
 80038f4:	2130      	movs	r1, #48	; 0x30
 80038f6:	4628      	mov	r0, r5
 80038f8:	f000 fd90 	bl	800441c <VL53L0X_WrByte>
 80038fc:	463a      	mov	r2, r7
 80038fe:	4304      	orrs	r4, r0
 8003900:	21ff      	movs	r1, #255	; 0xff
 8003902:	4628      	mov	r0, r5
 8003904:	f000 fd8a 	bl	800441c <VL53L0X_WrByte>
 8003908:	b264      	sxtb	r4, r4
 800390a:	4320      	orrs	r0, r4
 800390c:	b240      	sxtb	r0, r0
 800390e:	2800      	cmp	r0, #0
 8003910:	f000 80ba 	beq.w	8003a88 <VL53L0X_set_vcsel_pulse_period+0x20c>
 8003914:	b004      	add	sp, #16
 8003916:	e8bd 81f0 	ldmia.w	sp!, {r4, r5, r6, r7, r8, pc}
 800391a:	2a0c      	cmp	r2, #12
 800391c:	d13c      	bne.n	8003998 <VL53L0X_set_vcsel_pulse_period+0x11c>
 800391e:	2218      	movs	r2, #24
 8003920:	2157      	movs	r1, #87	; 0x57
 8003922:	f000 fd7b 	bl	800441c <VL53L0X_WrByte>
 8003926:	2208      	movs	r2, #8
 8003928:	2156      	movs	r1, #86	; 0x56
 800392a:	4628      	mov	r0, r5
 800392c:	f000 fd76 	bl	800441c <VL53L0X_WrByte>
 8003930:	2800      	cmp	r0, #0
 8003932:	d1ef      	bne.n	8003914 <VL53L0X_set_vcsel_pulse_period+0x98>
 8003934:	0874      	lsrs	r4, r6, #1
 8003936:	3c01      	subs	r4, #1
 8003938:	b2e4      	uxtb	r4, r4
 800393a:	aa02      	add	r2, sp, #8
 800393c:	2103      	movs	r1, #3
 800393e:	4628      	mov	r0, r5
 8003940:	f7ff fef4 	bl	800372c <get_sequence_step_timeout>
 8003944:	b9b0      	cbnz	r0, 8003974 <VL53L0X_set_vcsel_pulse_period+0xf8>
 8003946:	aa03      	add	r2, sp, #12
 8003948:	2102      	movs	r1, #2
 800394a:	4628      	mov	r0, r5
 800394c:	f7ff feee 	bl	800372c <get_sequence_step_timeout>
 8003950:	b980      	cbnz	r0, 8003974 <VL53L0X_set_vcsel_pulse_period+0xf8>
 8003952:	4622      	mov	r2, r4
 8003954:	2150      	movs	r1, #80	; 0x50
 8003956:	4628      	mov	r0, r5
 8003958:	f000 fd60 	bl	800441c <VL53L0X_WrByte>
 800395c:	b950      	cbnz	r0, 8003974 <VL53L0X_set_vcsel_pulse_period+0xf8>
 800395e:	9a02      	ldr	r2, [sp, #8]
 8003960:	2103      	movs	r1, #3
 8003962:	4628      	mov	r0, r5
 8003964:	f7ff fe6c 	bl	8003640 <set_sequence_step_timeout.part.1>
 8003968:	b920      	cbnz	r0, 8003974 <VL53L0X_set_vcsel_pulse_period+0xf8>
 800396a:	9a03      	ldr	r2, [sp, #12]
 800396c:	2102      	movs	r1, #2
 800396e:	4628      	mov	r0, r5
 8003970:	f7ff ff60 	bl	8003834 <set_sequence_step_timeout>
 8003974:	f885 60e8 	strb.w	r6, [r5, #232]	; 0xe8
 8003978:	2800      	cmp	r0, #0
 800397a:	d1cb      	bne.n	8003914 <VL53L0X_set_vcsel_pulse_period+0x98>
 800397c:	6969      	ldr	r1, [r5, #20]
 800397e:	4628      	mov	r0, r5
 8003980:	f7fe fa06 	bl	8001d90 <VL53L0X_SetMeasurementTimingBudgetMicroSeconds>
 8003984:	2800      	cmp	r0, #0
 8003986:	d1c5      	bne.n	8003914 <VL53L0X_set_vcsel_pulse_period+0x98>
 8003988:	4602      	mov	r2, r0
 800398a:	2301      	movs	r3, #1
 800398c:	f10d 0103 	add.w	r1, sp, #3
 8003990:	4628      	mov	r0, r5
 8003992:	f7ff f9b5 	bl	8002d00 <VL53L0X_perform_phase_calibration>
 8003996:	e7bd      	b.n	8003914 <VL53L0X_set_vcsel_pulse_period+0x98>
 8003998:	2a0e      	cmp	r2, #14
 800399a:	d101      	bne.n	80039a0 <VL53L0X_set_vcsel_pulse_period+0x124>
 800399c:	2230      	movs	r2, #48	; 0x30
 800399e:	e7bf      	b.n	8003920 <VL53L0X_set_vcsel_pulse_period+0xa4>
 80039a0:	2a10      	cmp	r2, #16
 80039a2:	d101      	bne.n	80039a8 <VL53L0X_set_vcsel_pulse_period+0x12c>
 80039a4:	2240      	movs	r2, #64	; 0x40
 80039a6:	e7bb      	b.n	8003920 <VL53L0X_set_vcsel_pulse_period+0xa4>
 80039a8:	2a12      	cmp	r2, #18
 80039aa:	d14e      	bne.n	8003a4a <VL53L0X_set_vcsel_pulse_period+0x1ce>
 80039ac:	2250      	movs	r2, #80	; 0x50
 80039ae:	e7b7      	b.n	8003920 <VL53L0X_set_vcsel_pulse_period+0xa4>
 80039b0:	2a0a      	cmp	r2, #10
 80039b2:	d120      	bne.n	80039f6 <VL53L0X_set_vcsel_pulse_period+0x17a>
 80039b4:	2228      	movs	r2, #40	; 0x28
 80039b6:	2148      	movs	r1, #72	; 0x48
 80039b8:	f000 fd30 	bl	800441c <VL53L0X_WrByte>
 80039bc:	2208      	movs	r2, #8
 80039be:	2147      	movs	r1, #71	; 0x47
 80039c0:	4628      	mov	r0, r5
 80039c2:	f000 fd2b 	bl	800441c <VL53L0X_WrByte>
 80039c6:	2203      	movs	r2, #3
 80039c8:	4604      	mov	r4, r0
 80039ca:	2132      	movs	r1, #50	; 0x32
 80039cc:	4628      	mov	r0, r5
 80039ce:	f000 fd25 	bl	800441c <VL53L0X_WrByte>
 80039d2:	4304      	orrs	r4, r0
 80039d4:	b264      	sxtb	r4, r4
 80039d6:	2209      	movs	r2, #9
 80039d8:	2130      	movs	r1, #48	; 0x30
 80039da:	4628      	mov	r0, r5
 80039dc:	f000 fd1e 	bl	800441c <VL53L0X_WrByte>
 80039e0:	4642      	mov	r2, r8
 80039e2:	4304      	orrs	r4, r0
 80039e4:	21ff      	movs	r1, #255	; 0xff
 80039e6:	4628      	mov	r0, r5
 80039e8:	f000 fd18 	bl	800441c <VL53L0X_WrByte>
 80039ec:	b264      	sxtb	r4, r4
 80039ee:	4304      	orrs	r4, r0
 80039f0:	b264      	sxtb	r4, r4
 80039f2:	2220      	movs	r2, #32
 80039f4:	e77e      	b.n	80038f4 <VL53L0X_set_vcsel_pulse_period+0x78>
 80039f6:	2a0c      	cmp	r2, #12
 80039f8:	d112      	bne.n	8003a20 <VL53L0X_set_vcsel_pulse_period+0x1a4>
 80039fa:	2238      	movs	r2, #56	; 0x38
 80039fc:	2148      	movs	r1, #72	; 0x48
 80039fe:	f000 fd0d 	bl	800441c <VL53L0X_WrByte>
 8003a02:	2208      	movs	r2, #8
 8003a04:	2147      	movs	r1, #71	; 0x47
 8003a06:	4628      	mov	r0, r5
 8003a08:	f000 fd08 	bl	800441c <VL53L0X_WrByte>
 8003a0c:	2203      	movs	r2, #3
 8003a0e:	4604      	mov	r4, r0
 8003a10:	2132      	movs	r1, #50	; 0x32
 8003a12:	4628      	mov	r0, r5
 8003a14:	f000 fd02 	bl	800441c <VL53L0X_WrByte>
 8003a18:	4304      	orrs	r4, r0
 8003a1a:	b264      	sxtb	r4, r4
 8003a1c:	2208      	movs	r2, #8
 8003a1e:	e7db      	b.n	80039d8 <VL53L0X_set_vcsel_pulse_period+0x15c>
 8003a20:	2a0e      	cmp	r2, #14
 8003a22:	d112      	bne.n	8003a4a <VL53L0X_set_vcsel_pulse_period+0x1ce>
 8003a24:	2248      	movs	r2, #72	; 0x48
 8003a26:	4611      	mov	r1, r2
 8003a28:	f000 fcf8 	bl	800441c <VL53L0X_WrByte>
 8003a2c:	2208      	movs	r2, #8
 8003a2e:	2147      	movs	r1, #71	; 0x47
 8003a30:	4628      	mov	r0, r5
 8003a32:	f000 fcf3 	bl	800441c <VL53L0X_WrByte>
 8003a36:	2203      	movs	r2, #3
 8003a38:	4604      	mov	r4, r0
 8003a3a:	2132      	movs	r1, #50	; 0x32
 8003a3c:	4628      	mov	r0, r5
 8003a3e:	f000 fced 	bl	800441c <VL53L0X_WrByte>
 8003a42:	4304      	orrs	r4, r0
 8003a44:	b264      	sxtb	r4, r4
 8003a46:	2207      	movs	r2, #7
 8003a48:	e7c6      	b.n	80039d8 <VL53L0X_set_vcsel_pulse_period+0x15c>
 8003a4a:	0874      	lsrs	r4, r6, #1
 8003a4c:	3c01      	subs	r4, #1
 8003a4e:	b2e4      	uxtb	r4, r4
 8003a50:	f1b8 0f00 	cmp.w	r8, #0
 8003a54:	f43f af71 	beq.w	800393a <VL53L0X_set_vcsel_pulse_period+0xbe>
 8003a58:	f1b8 0f01 	cmp.w	r8, #1
 8003a5c:	f47f af1e 	bne.w	800389c <VL53L0X_set_vcsel_pulse_period+0x20>
 8003a60:	aa01      	add	r2, sp, #4
 8003a62:	2104      	movs	r1, #4
 8003a64:	4628      	mov	r0, r5
 8003a66:	f7ff fe61 	bl	800372c <get_sequence_step_timeout>
 8003a6a:	b950      	cbnz	r0, 8003a82 <VL53L0X_set_vcsel_pulse_period+0x206>
 8003a6c:	4622      	mov	r2, r4
 8003a6e:	2170      	movs	r1, #112	; 0x70
 8003a70:	4628      	mov	r0, r5
 8003a72:	f000 fcd3 	bl	800441c <VL53L0X_WrByte>
 8003a76:	b920      	cbnz	r0, 8003a82 <VL53L0X_set_vcsel_pulse_period+0x206>
 8003a78:	9a01      	ldr	r2, [sp, #4]
 8003a7a:	2104      	movs	r1, #4
 8003a7c:	4628      	mov	r0, r5
 8003a7e:	f7ff fddf 	bl	8003640 <set_sequence_step_timeout.part.1>
 8003a82:	f885 60e0 	strb.w	r6, [r5, #224]	; 0xe0
 8003a86:	e777      	b.n	8003978 <VL53L0X_set_vcsel_pulse_period+0xfc>
 8003a88:	0874      	lsrs	r4, r6, #1
 8003a8a:	3c01      	subs	r4, #1
 8003a8c:	b2e4      	uxtb	r4, r4
 8003a8e:	e7e7      	b.n	8003a60 <VL53L0X_set_vcsel_pulse_period+0x1e4>

08003a90 <VL53L0X_get_vcsel_pulse_period>:
 8003a90:	b513      	push	{r0, r1, r4, lr}
 8003a92:	4614      	mov	r4, r2
 8003a94:	b121      	cbz	r1, 8003aa0 <VL53L0X_get_vcsel_pulse_period+0x10>
 8003a96:	2901      	cmp	r1, #1
 8003a98:	d00f      	beq.n	8003aba <VL53L0X_get_vcsel_pulse_period+0x2a>
 8003a9a:	f06f 0003 	mvn.w	r0, #3
 8003a9e:	e00a      	b.n	8003ab6 <VL53L0X_get_vcsel_pulse_period+0x26>
 8003aa0:	f10d 0207 	add.w	r2, sp, #7
 8003aa4:	2150      	movs	r1, #80	; 0x50
 8003aa6:	f000 fcfa 	bl	800449e <VL53L0X_RdByte>
 8003aaa:	b920      	cbnz	r0, 8003ab6 <VL53L0X_get_vcsel_pulse_period+0x26>
 8003aac:	f89d 3007 	ldrb.w	r3, [sp, #7]
 8003ab0:	3301      	adds	r3, #1
 8003ab2:	005b      	lsls	r3, r3, #1
 8003ab4:	7023      	strb	r3, [r4, #0]
 8003ab6:	b002      	add	sp, #8
 8003ab8:	bd10      	pop	{r4, pc}
 8003aba:	f10d 0207 	add.w	r2, sp, #7
 8003abe:	2170      	movs	r1, #112	; 0x70
 8003ac0:	e7f1      	b.n	8003aa6 <VL53L0X_get_vcsel_pulse_period+0x16>

08003ac2 <VL53L0X_set_measurement_timing_budget_micro_seconds>:
 8003ac2:	b5f0      	push	{r4, r5, r6, r7, lr}
 8003ac4:	2300      	movs	r3, #0
 8003ac6:	b085      	sub	sp, #20
 8003ac8:	f44f 62fa 	mov.w	r2, #2000	; 0x7d0
 8003acc:	e9cd 2300 	strd	r2, r3, [sp]
 8003ad0:	f644 631f 	movw	r3, #19999	; 0x4e1f
 8003ad4:	4299      	cmp	r1, r3
 8003ad6:	4606      	mov	r6, r0
 8003ad8:	460f      	mov	r7, r1
 8003ada:	d804      	bhi.n	8003ae6 <VL53L0X_set_measurement_timing_budget_micro_seconds+0x24>
 8003adc:	f06f 0503 	mvn.w	r5, #3
 8003ae0:	4628      	mov	r0, r5
 8003ae2:	b005      	add	sp, #20
 8003ae4:	bdf0      	pop	{r4, r5, r6, r7, pc}
 8003ae6:	a902      	add	r1, sp, #8
 8003ae8:	f7fe f9a9 	bl	8001e3e <VL53L0X_GetSequenceStepEnables>
 8003aec:	4605      	mov	r5, r0
 8003aee:	2800      	cmp	r0, #0
 8003af0:	d1f6      	bne.n	8003ae0 <VL53L0X_set_measurement_timing_budget_micro_seconds+0x1e>
 8003af2:	f89d 3008 	ldrb.w	r3, [sp, #8]
 8003af6:	f6a7 3436 	subw	r4, r7, #2870	; 0xb36
 8003afa:	b92b      	cbnz	r3, 8003b08 <VL53L0X_set_measurement_timing_budget_micro_seconds+0x46>
 8003afc:	f89d 3009 	ldrb.w	r3, [sp, #9]
 8003b00:	b913      	cbnz	r3, 8003b08 <VL53L0X_set_measurement_timing_budget_micro_seconds+0x46>
 8003b02:	f89d 300a 	ldrb.w	r3, [sp, #10]
 8003b06:	b1cb      	cbz	r3, 8003b3c <VL53L0X_set_measurement_timing_budget_micro_seconds+0x7a>
 8003b08:	466a      	mov	r2, sp
 8003b0a:	2102      	movs	r1, #2
 8003b0c:	4630      	mov	r0, r6
 8003b0e:	f7ff fe0d 	bl	800372c <get_sequence_step_timeout>
 8003b12:	2800      	cmp	r0, #0
 8003b14:	d136      	bne.n	8003b84 <VL53L0X_set_measurement_timing_budget_micro_seconds+0xc2>
 8003b16:	f89d 3008 	ldrb.w	r3, [sp, #8]
 8003b1a:	b12b      	cbz	r3, 8003b28 <VL53L0X_set_measurement_timing_budget_micro_seconds+0x66>
 8003b1c:	9b00      	ldr	r3, [sp, #0]
 8003b1e:	f203 234e 	addw	r3, r3, #590	; 0x24e
 8003b22:	429c      	cmp	r4, r3
 8003b24:	d9da      	bls.n	8003adc <VL53L0X_set_measurement_timing_budget_micro_seconds+0x1a>
 8003b26:	1ae4      	subs	r4, r4, r3
 8003b28:	f89d 300a 	ldrb.w	r3, [sp, #10]
 8003b2c:	b313      	cbz	r3, 8003b74 <VL53L0X_set_measurement_timing_budget_micro_seconds+0xb2>
 8003b2e:	9b00      	ldr	r3, [sp, #0]
 8003b30:	f203 23b2 	addw	r3, r3, #690	; 0x2b2
 8003b34:	005b      	lsls	r3, r3, #1
 8003b36:	429c      	cmp	r4, r3
 8003b38:	d9d0      	bls.n	8003adc <VL53L0X_set_measurement_timing_budget_micro_seconds+0x1a>
 8003b3a:	1ae4      	subs	r4, r4, r3
 8003b3c:	f89d 300b 	ldrb.w	r3, [sp, #11]
 8003b40:	b15b      	cbz	r3, 8003b5a <VL53L0X_set_measurement_timing_budget_micro_seconds+0x98>
 8003b42:	aa01      	add	r2, sp, #4
 8003b44:	2103      	movs	r1, #3
 8003b46:	4630      	mov	r0, r6
 8003b48:	f7ff fdf0 	bl	800372c <get_sequence_step_timeout>
 8003b4c:	9b01      	ldr	r3, [sp, #4]
 8003b4e:	f503 7325 	add.w	r3, r3, #660	; 0x294
 8003b52:	42a3      	cmp	r3, r4
 8003b54:	d2c2      	bcs.n	8003adc <VL53L0X_set_measurement_timing_budget_micro_seconds+0x1a>
 8003b56:	b9a8      	cbnz	r0, 8003b84 <VL53L0X_set_measurement_timing_budget_micro_seconds+0xc2>
 8003b58:	1ae4      	subs	r4, r4, r3
 8003b5a:	f89d 300c 	ldrb.w	r3, [sp, #12]
 8003b5e:	2b00      	cmp	r3, #0
 8003b60:	d0be      	beq.n	8003ae0 <VL53L0X_set_measurement_timing_budget_micro_seconds+0x1e>
 8003b62:	f2a4 2226 	subw	r2, r4, #550	; 0x226
 8003b66:	2104      	movs	r1, #4
 8003b68:	4630      	mov	r0, r6
 8003b6a:	f7ff fd69 	bl	8003640 <set_sequence_step_timeout.part.1>
 8003b6e:	6177      	str	r7, [r6, #20]
 8003b70:	4605      	mov	r5, r0
 8003b72:	e7b5      	b.n	8003ae0 <VL53L0X_set_measurement_timing_budget_micro_seconds+0x1e>
 8003b74:	f89d 3009 	ldrb.w	r3, [sp, #9]
 8003b78:	2b00      	cmp	r3, #0
 8003b7a:	d0df      	beq.n	8003b3c <VL53L0X_set_measurement_timing_budget_micro_seconds+0x7a>
 8003b7c:	9b00      	ldr	r3, [sp, #0]
 8003b7e:	f503 7325 	add.w	r3, r3, #660	; 0x294
 8003b82:	e7d8      	b.n	8003b36 <VL53L0X_set_measurement_timing_budget_micro_seconds+0x74>
 8003b84:	4605      	mov	r5, r0
 8003b86:	e7ab      	b.n	8003ae0 <VL53L0X_set_measurement_timing_budget_micro_seconds+0x1e>

08003b88 <VL53L0X_get_measurement_timing_budget_micro_seconds>:
 8003b88:	b570      	push	{r4, r5, r6, lr}
 8003b8a:	f44f 62fa 	mov.w	r2, #2000	; 0x7d0
 8003b8e:	b086      	sub	sp, #24
 8003b90:	2300      	movs	r3, #0
 8003b92:	e9cd 2302 	strd	r2, r3, [sp, #8]
 8003b96:	f640 3336 	movw	r3, #2870	; 0xb36
 8003b9a:	600b      	str	r3, [r1, #0]
 8003b9c:	460c      	mov	r4, r1
 8003b9e:	a904      	add	r1, sp, #16
 8003ba0:	4606      	mov	r6, r0
 8003ba2:	f7fe f94c 	bl	8001e3e <VL53L0X_GetSequenceStepEnables>
 8003ba6:	4605      	mov	r5, r0
 8003ba8:	2800      	cmp	r0, #0
 8003baa:	d136      	bne.n	8003c1a <VL53L0X_get_measurement_timing_budget_micro_seconds+0x92>
 8003bac:	f89d 3010 	ldrb.w	r3, [sp, #16]
 8003bb0:	b92b      	cbnz	r3, 8003bbe <VL53L0X_get_measurement_timing_budget_micro_seconds+0x36>
 8003bb2:	f89d 3011 	ldrb.w	r3, [sp, #17]
 8003bb6:	b913      	cbnz	r3, 8003bbe <VL53L0X_get_measurement_timing_budget_micro_seconds+0x36>
 8003bb8:	f89d 3012 	ldrb.w	r3, [sp, #18]
 8003bbc:	b1cb      	cbz	r3, 8003bf2 <VL53L0X_get_measurement_timing_budget_micro_seconds+0x6a>
 8003bbe:	aa02      	add	r2, sp, #8
 8003bc0:	2102      	movs	r1, #2
 8003bc2:	4630      	mov	r0, r6
 8003bc4:	f7ff fdb2 	bl	800372c <get_sequence_step_timeout>
 8003bc8:	2800      	cmp	r0, #0
 8003bca:	d140      	bne.n	8003c4e <VL53L0X_get_measurement_timing_budget_micro_seconds+0xc6>
 8003bcc:	f89d 3010 	ldrb.w	r3, [sp, #16]
 8003bd0:	b12b      	cbz	r3, 8003bde <VL53L0X_get_measurement_timing_budget_micro_seconds+0x56>
 8003bd2:	9b02      	ldr	r3, [sp, #8]
 8003bd4:	f203 224e 	addw	r2, r3, #590	; 0x24e
 8003bd8:	6823      	ldr	r3, [r4, #0]
 8003bda:	4413      	add	r3, r2
 8003bdc:	6023      	str	r3, [r4, #0]
 8003bde:	f89d 3012 	ldrb.w	r3, [sp, #18]
 8003be2:	b1eb      	cbz	r3, 8003c20 <VL53L0X_get_measurement_timing_budget_micro_seconds+0x98>
 8003be4:	9b02      	ldr	r3, [sp, #8]
 8003be6:	f203 22b2 	addw	r2, r3, #690	; 0x2b2
 8003bea:	6823      	ldr	r3, [r4, #0]
 8003bec:	eb03 0342 	add.w	r3, r3, r2, lsl #1
 8003bf0:	6023      	str	r3, [r4, #0]
 8003bf2:	f89d 3013 	ldrb.w	r3, [sp, #19]
 8003bf6:	b9eb      	cbnz	r3, 8003c34 <VL53L0X_get_measurement_timing_budget_micro_seconds+0xac>
 8003bf8:	f89d 3014 	ldrb.w	r3, [sp, #20]
 8003bfc:	b15b      	cbz	r3, 8003c16 <VL53L0X_get_measurement_timing_budget_micro_seconds+0x8e>
 8003bfe:	aa01      	add	r2, sp, #4
 8003c00:	2104      	movs	r1, #4
 8003c02:	4630      	mov	r0, r6
 8003c04:	f7ff fd92 	bl	800372c <get_sequence_step_timeout>
 8003c08:	9b01      	ldr	r3, [sp, #4]
 8003c0a:	f203 2226 	addw	r2, r3, #550	; 0x226
 8003c0e:	6823      	ldr	r3, [r4, #0]
 8003c10:	4413      	add	r3, r2
 8003c12:	6023      	str	r3, [r4, #0]
 8003c14:	b9d8      	cbnz	r0, 8003c4e <VL53L0X_get_measurement_timing_budget_micro_seconds+0xc6>
 8003c16:	6823      	ldr	r3, [r4, #0]
 8003c18:	6173      	str	r3, [r6, #20]
 8003c1a:	4628      	mov	r0, r5
 8003c1c:	b006      	add	sp, #24
 8003c1e:	bd70      	pop	{r4, r5, r6, pc}
 8003c20:	f89d 3011 	ldrb.w	r3, [sp, #17]
 8003c24:	2b00      	cmp	r3, #0
 8003c26:	d0e4      	beq.n	8003bf2 <VL53L0X_get_measurement_timing_budget_micro_seconds+0x6a>
 8003c28:	9b02      	ldr	r3, [sp, #8]
 8003c2a:	f503 7225 	add.w	r2, r3, #660	; 0x294
 8003c2e:	6823      	ldr	r3, [r4, #0]
 8003c30:	4413      	add	r3, r2
 8003c32:	e7dd      	b.n	8003bf0 <VL53L0X_get_measurement_timing_budget_micro_seconds+0x68>
 8003c34:	aa03      	add	r2, sp, #12
 8003c36:	2103      	movs	r1, #3
 8003c38:	4630      	mov	r0, r6
 8003c3a:	f7ff fd77 	bl	800372c <get_sequence_step_timeout>
 8003c3e:	9b03      	ldr	r3, [sp, #12]
 8003c40:	f503 7225 	add.w	r2, r3, #660	; 0x294
 8003c44:	6823      	ldr	r3, [r4, #0]
 8003c46:	4413      	add	r3, r2
 8003c48:	6023      	str	r3, [r4, #0]
 8003c4a:	2800      	cmp	r0, #0
 8003c4c:	d0d4      	beq.n	8003bf8 <VL53L0X_get_measurement_timing_budget_micro_seconds+0x70>
 8003c4e:	4605      	mov	r5, r0
 8003c50:	e7e3      	b.n	8003c1a <VL53L0X_get_measurement_timing_budget_micro_seconds+0x92>

08003c52 <VL53L0X_load_tuning_settings>:
 8003c52:	e92d 41f3 	stmdb	sp!, {r0, r1, r4, r5, r6, r7, r8, lr}
 8003c56:	2200      	movs	r2, #0
 8003c58:	4605      	mov	r5, r0
 8003c5a:	460e      	mov	r6, r1
 8003c5c:	4610      	mov	r0, r2
 8003c5e:	af01      	add	r7, sp, #4
 8003c60:	5cb3      	ldrb	r3, [r6, r2]
 8003c62:	18b4      	adds	r4, r6, r2
 8003c64:	b103      	cbz	r3, 8003c68 <VL53L0X_load_tuning_settings+0x16>
 8003c66:	b110      	cbz	r0, 8003c6e <VL53L0X_load_tuning_settings+0x1c>
 8003c68:	b002      	add	sp, #8
 8003c6a:	e8bd 81f0 	ldmia.w	sp!, {r4, r5, r6, r7, r8, pc}
 8003c6e:	f102 0801 	add.w	r8, r2, #1
 8003c72:	2bff      	cmp	r3, #255	; 0xff
 8003c74:	f816 1008 	ldrb.w	r1, [r6, r8]
 8003c78:	d12a      	bne.n	8003cd0 <VL53L0X_load_tuning_settings+0x7e>
 8003c7a:	f102 0802 	add.w	r8, r2, #2
 8003c7e:	f816 3008 	ldrb.w	r3, [r6, r8]
 8003c82:	2903      	cmp	r1, #3
 8003c84:	d838      	bhi.n	8003cf8 <VL53L0X_load_tuning_settings+0xa6>
 8003c86:	e8df f001 	tbb	[pc, r1]
 8003c8a:	0b02      	.short	0x0b02
 8003c8c:	1b13      	.short	0x1b13
 8003c8e:	f102 0804 	add.w	r8, r2, #4
 8003c92:	78e2      	ldrb	r2, [r4, #3]
 8003c94:	eb02 2303 	add.w	r3, r2, r3, lsl #8
 8003c98:	f8a5 3134 	strh.w	r3, [r5, #308]	; 0x134
 8003c9c:	4642      	mov	r2, r8
 8003c9e:	e7df      	b.n	8003c60 <VL53L0X_load_tuning_settings+0xe>
 8003ca0:	f102 0804 	add.w	r8, r2, #4
 8003ca4:	78e2      	ldrb	r2, [r4, #3]
 8003ca6:	eb02 2303 	add.w	r3, r2, r3, lsl #8
 8003caa:	f8a5 3136 	strh.w	r3, [r5, #310]	; 0x136
 8003cae:	e7f5      	b.n	8003c9c <VL53L0X_load_tuning_settings+0x4a>
 8003cb0:	f102 0804 	add.w	r8, r2, #4
 8003cb4:	78e2      	ldrb	r2, [r4, #3]
 8003cb6:	eb02 2303 	add.w	r3, r2, r3, lsl #8
 8003cba:	f8a5 3138 	strh.w	r3, [r5, #312]	; 0x138
 8003cbe:	e7ed      	b.n	8003c9c <VL53L0X_load_tuning_settings+0x4a>
 8003cc0:	f102 0804 	add.w	r8, r2, #4
 8003cc4:	78e2      	ldrb	r2, [r4, #3]
 8003cc6:	eb02 2303 	add.w	r3, r2, r3, lsl #8
 8003cca:	f8a5 313c 	strh.w	r3, [r5, #316]	; 0x13c
 8003cce:	e7e5      	b.n	8003c9c <VL53L0X_load_tuning_settings+0x4a>
 8003cd0:	2b04      	cmp	r3, #4
 8003cd2:	d811      	bhi.n	8003cf8 <VL53L0X_load_tuning_settings+0xa6>
 8003cd4:	3202      	adds	r2, #2
 8003cd6:	4283      	cmp	r3, r0
 8003cd8:	dc06      	bgt.n	8003ce8 <VL53L0X_load_tuning_settings+0x96>
 8003cda:	eb03 0802 	add.w	r8, r3, r2
 8003cde:	4628      	mov	r0, r5
 8003ce0:	463a      	mov	r2, r7
 8003ce2:	f000 fb6d 	bl	80043c0 <VL53L0X_WriteMulti>
 8003ce6:	e7d9      	b.n	8003c9c <VL53L0X_load_tuning_settings+0x4a>
 8003ce8:	eb04 0c00 	add.w	ip, r4, r0
 8003cec:	f89c c002 	ldrb.w	ip, [ip, #2]
 8003cf0:	f807 c000 	strb.w	ip, [r7, r0]
 8003cf4:	3001      	adds	r0, #1
 8003cf6:	e7ee      	b.n	8003cd6 <VL53L0X_load_tuning_settings+0x84>
 8003cf8:	f06f 0003 	mvn.w	r0, #3
 8003cfc:	e7ce      	b.n	8003c9c <VL53L0X_load_tuning_settings+0x4a>

08003cfe <VL53L0X_get_total_xtalk_rate>:
 8003cfe:	b573      	push	{r0, r1, r4, r5, r6, lr}
 8003d00:	2300      	movs	r3, #0
 8003d02:	460e      	mov	r6, r1
 8003d04:	6013      	str	r3, [r2, #0]
 8003d06:	f10d 0107 	add.w	r1, sp, #7
 8003d0a:	4605      	mov	r5, r0
 8003d0c:	4614      	mov	r4, r2
 8003d0e:	f7fe f8cc 	bl	8001eaa <VL53L0X_GetXTalkCompensationEnable>
 8003d12:	b940      	cbnz	r0, 8003d26 <VL53L0X_get_total_xtalk_rate+0x28>
 8003d14:	f89d 3007 	ldrb.w	r3, [sp, #7]
 8003d18:	b12b      	cbz	r3, 8003d26 <VL53L0X_get_total_xtalk_rate+0x28>
 8003d1a:	8ab2      	ldrh	r2, [r6, #20]
 8003d1c:	6a2b      	ldr	r3, [r5, #32]
 8003d1e:	4353      	muls	r3, r2
 8003d20:	3380      	adds	r3, #128	; 0x80
 8003d22:	0a1b      	lsrs	r3, r3, #8
 8003d24:	6023      	str	r3, [r4, #0]
 8003d26:	b002      	add	sp, #8
 8003d28:	bd70      	pop	{r4, r5, r6, pc}

08003d2a <VL53L0X_get_total_signal_rate>:
 8003d2a:	b513      	push	{r0, r1, r4, lr}
 8003d2c:	68cb      	ldr	r3, [r1, #12]
 8003d2e:	6013      	str	r3, [r2, #0]
 8003d30:	4614      	mov	r4, r2
 8003d32:	aa01      	add	r2, sp, #4
 8003d34:	f7ff ffe3 	bl	8003cfe <VL53L0X_get_total_xtalk_rate>
 8003d38:	b918      	cbnz	r0, 8003d42 <VL53L0X_get_total_signal_rate+0x18>
 8003d3a:	6823      	ldr	r3, [r4, #0]
 8003d3c:	9a01      	ldr	r2, [sp, #4]
 8003d3e:	4413      	add	r3, r2
 8003d40:	6023      	str	r3, [r4, #0]
 8003d42:	b002      	add	sp, #8
 8003d44:	bd10      	pop	{r4, pc}
	...

08003d48 <VL53L0X_calc_dmax>:
 8003d48:	b5f8      	push	{r3, r4, r5, r6, r7, lr}
 8003d4a:	f8b0 5154 	ldrh.w	r5, [r0, #340]	; 0x154
 8003d4e:	f8d0 4158 	ldr.w	r4, [r0, #344]	; 0x158
 8003d52:	436c      	muls	r4, r5
 8003d54:	3480      	adds	r4, #128	; 0x80
 8003d56:	0a24      	lsrs	r4, r4, #8
 8003d58:	e9dd 6707 	ldrd	r6, r7, [sp, #28]
 8003d5c:	4365      	muls	r5, r4
 8003d5e:	b152      	cbz	r2, 8003d76 <VL53L0X_calc_dmax+0x2e>
 8003d60:	028c      	lsls	r4, r1, #10
 8003d62:	eb04 0452 	add.w	r4, r4, r2, lsr #1
 8003d66:	fbb4 f4f2 	udiv	r4, r4, r2
 8003d6a:	eb04 0444 	add.w	r4, r4, r4, lsl #1
 8003d6e:	4364      	muls	r4, r4
 8003d70:	f504 4400 	add.w	r4, r4, #32768	; 0x8000
 8003d74:	0c22      	lsrs	r2, r4, #16
 8003d76:	9c06      	ldr	r4, [sp, #24]
 8003d78:	435c      	muls	r4, r3
 8003d7a:	f506 4100 	add.w	r1, r6, #32768	; 0x8000
 8003d7e:	f504 4400 	add.w	r4, r4, #32768	; 0x8000
 8003d82:	0c24      	lsrs	r4, r4, #16
 8003d84:	0c09      	lsrs	r1, r1, #16
 8003d86:	fb04 f304 	mul.w	r3, r4, r4
 8003d8a:	3103      	adds	r1, #3
 8003d8c:	2406      	movs	r4, #6
 8003d8e:	fbb1 f1f4 	udiv	r1, r1, r4
 8003d92:	ebc1 01c1 	rsb	r1, r1, r1, lsl #3
 8003d96:	f5b1 3f80 	cmp.w	r1, #65536	; 0x10000
 8003d9a:	bf3f      	itttt	cc
 8003d9c:	3603      	addcc	r6, #3
 8003d9e:	fbb6 f6f4 	udivcc	r6, r6, r4
 8003da2:	ebc6 06c6 	rsbcc	r6, r6, r6, lsl #3
 8003da6:	f506 4100 	addcc.w	r1, r6, #32768	; 0x8000
 8003daa:	bf36      	itet	cc
 8003dac:	0c0c      	lsrcc	r4, r1, #16
 8003dae:	4918      	ldrcs	r1, [pc, #96]	; (8003e10 <VL53L0X_calc_dmax+0xc8>)
 8003db0:	fb04 f104 	mulcc.w	r1, r4, r4
 8003db4:	f105 0020 	add.w	r0, r5, #32
 8003db8:	eb03 0457 	add.w	r4, r3, r7, lsr #1
 8003dbc:	440c      	add	r4, r1
 8003dbe:	0980      	lsrs	r0, r0, #6
 8003dc0:	fbb4 f4f7 	udiv	r4, r4, r7
 8003dc4:	03a4      	lsls	r4, r4, #14
 8003dc6:	23fe      	movs	r3, #254	; 0xfe
 8003dc8:	347f      	adds	r4, #127	; 0x7f
 8003dca:	fbb4 f4f3 	udiv	r4, r4, r3
 8003dce:	4354      	muls	r4, r2
 8003dd0:	f7ff f932 	bl	8003038 <VL53L0X_isqrt>
 8003dd4:	f44f 767a 	mov.w	r6, #1000	; 0x3e8
 8003dd8:	f504 74fa 	add.w	r4, r4, #500	; 0x1f4
 8003ddc:	fbb4 f4f6 	udiv	r4, r4, r6
 8003de0:	0124      	lsls	r4, r4, #4
 8003de2:	f504 74fa 	add.w	r4, r4, #500	; 0x1f4
 8003de6:	4607      	mov	r7, r0
 8003de8:	fbb4 f6f6 	udiv	r6, r4, r6
 8003dec:	b136      	cbz	r6, 8003dfc <VL53L0X_calc_dmax+0xb4>
 8003dee:	f44f 63fa 	mov.w	r3, #2000	; 0x7d0
 8003df2:	fbb4 f4f3 	udiv	r4, r4, r3
 8003df6:	442c      	add	r4, r5
 8003df8:	fbb4 f6f6 	udiv	r6, r4, r6
 8003dfc:	4630      	mov	r0, r6
 8003dfe:	f7ff f91b 	bl	8003038 <VL53L0X_isqrt>
 8003e02:	9b09      	ldr	r3, [sp, #36]	; 0x24
 8003e04:	42b8      	cmp	r0, r7
 8003e06:	bf94      	ite	ls
 8003e08:	6018      	strls	r0, [r3, #0]
 8003e0a:	601f      	strhi	r7, [r3, #0]
 8003e0c:	2000      	movs	r0, #0
 8003e0e:	bdf8      	pop	{r3, r4, r5, r6, r7, pc}
 8003e10:	fff00000 	.word	0xfff00000

08003e14 <VL53L0X_calc_sigma_estimate>:
 8003e14:	e92d 4ff0 	stmdb	sp!, {r4, r5, r6, r7, r8, r9, sl, fp, lr}
 8003e18:	b08f      	sub	sp, #60	; 0x3c
 8003e1a:	e9cd 2308 	strd	r2, r3, [sp, #32]
 8003e1e:	6a03      	ldr	r3, [r0, #32]
 8003e20:	930c      	str	r3, [sp, #48]	; 0x30
 8003e22:	e9d1 3603 	ldrd	r3, r6, [r1, #12]
 8003e26:	4605      	mov	r5, r0
 8003e28:	4689      	mov	r9, r1
 8003e2a:	aa0d      	add	r2, sp, #52	; 0x34
 8003e2c:	930b      	str	r3, [sp, #44]	; 0x2c
 8003e2e:	f7ff ff7c 	bl	8003d2a <VL53L0X_get_total_signal_rate>
 8003e32:	aa0c      	add	r2, sp, #48	; 0x30
 8003e34:	4649      	mov	r1, r9
 8003e36:	4628      	mov	r0, r5
 8003e38:	f7ff ff61 	bl	8003cfe <VL53L0X_get_total_xtalk_rate>
 8003e3c:	4683      	mov	fp, r0
 8003e3e:	bb98      	cbnz	r0, 8003ea8 <VL53L0X_calc_sigma_estimate+0x94>
 8003e40:	f8d5 30dc 	ldr.w	r3, [r5, #220]	; 0xdc
 8003e44:	f895 40e0 	ldrb.w	r4, [r5, #224]	; 0xe0
 8003e48:	9306      	str	r3, [sp, #24]
 8003e4a:	4622      	mov	r2, r4
 8003e4c:	4619      	mov	r1, r3
 8003e4e:	4628      	mov	r0, r5
 8003e50:	f7ff fbe2 	bl	8003618 <VL53L0X_calc_timeout_mclks>
 8003e54:	f8d5 30e4 	ldr.w	r3, [r5, #228]	; 0xe4
 8003e58:	f895 20e8 	ldrb.w	r2, [r5, #232]	; 0xe8
 8003e5c:	9307      	str	r3, [sp, #28]
 8003e5e:	4619      	mov	r1, r3
 8003e60:	4607      	mov	r7, r0
 8003e62:	4628      	mov	r0, r5
 8003e64:	f7ff fbd8 	bl	8003618 <VL53L0X_calc_timeout_mclks>
 8003e68:	9b0d      	ldr	r3, [sp, #52]	; 0x34
 8003e6a:	9a0c      	ldr	r2, [sp, #48]	; 0x30
 8003e6c:	920a      	str	r2, [sp, #40]	; 0x28
 8003e6e:	f44f 787a 	mov.w	r8, #1000	; 0x3e8
 8003e72:	2c08      	cmp	r4, #8
 8003e74:	fb08 f403 	mul.w	r4, r8, r3
 8003e78:	f504 4400 	add.w	r4, r4, #32768	; 0x8000
 8003e7c:	f103 0380 	add.w	r3, r3, #128	; 0x80
 8003e80:	f023 02ff 	bic.w	r2, r3, #255	; 0xff
 8003e84:	bf0c      	ite	eq
 8003e86:	2102      	moveq	r1, #2
 8003e88:	2103      	movne	r1, #3
 8003e8a:	ea5f 4c14 	movs.w	ip, r4, lsr #16
 8003e8e:	9205      	str	r2, [sp, #20]
 8003e90:	920d      	str	r2, [sp, #52]	; 0x34
 8003e92:	f8df a194 	ldr.w	sl, [pc, #404]	; 8004028 <VL53L0X_calc_sigma_estimate+0x214>
 8003e96:	d10b      	bne.n	8003eb0 <VL53L0X_calc_sigma_estimate+0x9c>
 8003e98:	9b08      	ldr	r3, [sp, #32]
 8003e9a:	f8c3 a000 	str.w	sl, [r3]
 8003e9e:	9b09      	ldr	r3, [sp, #36]	; 0x24
 8003ea0:	f8c5 a140 	str.w	sl, [r5, #320]	; 0x140
 8003ea4:	f8c3 b000 	str.w	fp, [r3]
 8003ea8:	4658      	mov	r0, fp
 8003eaa:	b00f      	add	sp, #60	; 0x3c
 8003eac:	e8bd 8ff0 	ldmia.w	sp!, {r4, r5, r6, r7, r8, r9, sl, fp, pc}
 8003eb0:	4438      	add	r0, r7
 8003eb2:	02c0      	lsls	r0, r0, #11
 8003eb4:	4341      	muls	r1, r0
 8003eb6:	f240 6777 	movw	r7, #1655	; 0x677
 8003eba:	f8df b170 	ldr.w	fp, [pc, #368]	; 800402c <VL53L0X_calc_sigma_estimate+0x218>
 8003ebe:	f501 71fa 	add.w	r1, r1, #500	; 0x1f4
 8003ec2:	0a1b      	lsrs	r3, r3, #8
 8003ec4:	fbb1 f1f8 	udiv	r1, r1, r8
 8003ec8:	434f      	muls	r7, r1
 8003eca:	fb08 f606 	mul.w	r6, r8, r6
 8003ece:	f507 77fa 	add.w	r7, r7, #500	; 0x1f4
 8003ed2:	fbb7 f7f8 	udiv	r7, r7, r8
 8003ed6:	437b      	muls	r3, r7
 8003ed8:	ea06 060b 	and.w	r6, r6, fp
 8003edc:	3380      	adds	r3, #128	; 0x80
 8003ede:	fbb6 fcfc 	udiv	ip, r6, ip
 8003ee2:	4e4f      	ldr	r6, [pc, #316]	; (8004020 <VL53L0X_calc_sigma_estimate+0x20c>)
 8003ee4:	0a1b      	lsrs	r3, r3, #8
 8003ee6:	bf08      	it	eq
 8003ee8:	2301      	moveq	r3, #1
 8003eea:	200c      	movs	r0, #12
 8003eec:	45b4      	cmp	ip, r6
 8003eee:	bf28      	it	cs
 8003ef0:	46b4      	movcs	ip, r6
 8003ef2:	4358      	muls	r0, r3
 8003ef4:	f44f 7616 	mov.w	r6, #600	; 0x258
 8003ef8:	fb06 f60c 	mul.w	r6, r6, ip
 8003efc:	f7ff f89c 	bl	8003038 <VL53L0X_isqrt>
 8003f00:	9a0a      	ldr	r2, [sp, #40]	; 0x28
 8003f02:	f8b9 3008 	ldrh.w	r3, [r9, #8]
 8003f06:	0041      	lsls	r1, r0, #1
 8003f08:	fb08 f002 	mul.w	r0, r8, r2
 8003f0c:	f5b0 1f48 	cmp.w	r0, #3276800	; 0x320000
 8003f10:	ea04 0b0b 	and.w	fp, r4, fp
 8003f14:	f50b 7bfa 	add.w	fp, fp, #500	; 0x1f4
 8003f18:	bf28      	it	cs
 8003f1a:	f44f 1048 	movcs.w	r0, #3276800	; 0x320000
 8003f1e:	ebab 0040 	sub.w	r0, fp, r0, lsl #1
 8003f22:	fbb0 f0f8 	udiv	r0, r0, r8
 8003f26:	fbbb f8f8 	udiv	r8, fp, r8
 8003f2a:	0200      	lsls	r0, r0, #8
 8003f2c:	fbb0 f8f8 	udiv	r8, r0, r8
 8003f30:	f899 0018 	ldrb.w	r0, [r9, #24]
 8003f34:	2800      	cmp	r0, #0
 8003f36:	d16f      	bne.n	8004018 <VL53L0X_calc_sigma_estimate+0x204>
 8003f38:	4c3a      	ldr	r4, [pc, #232]	; (8004024 <VL53L0X_calc_sigma_estimate+0x210>)
 8003f3a:	ea4f 2808 	mov.w	r8, r8, lsl #8
 8003f3e:	f5c8 3880 	rsb	r8, r8, #65536	; 0x10000
 8003f42:	435c      	muls	r4, r3
 8003f44:	f241 235c 	movw	r3, #4700	; 0x125c
 8003f48:	fbb4 f4f3 	udiv	r4, r4, r3
 8003f4c:	fb04 f408 	mul.w	r4, r4, r8
 8003f50:	f504 4400 	add.w	r4, r4, #32768	; 0x8000
 8003f54:	0c24      	lsrs	r4, r4, #16
 8003f56:	f504 3480 	add.w	r4, r4, #65536	; 0x10000
 8003f5a:	0864      	lsrs	r4, r4, #1
 8003f5c:	4364      	muls	r4, r4
 8003f5e:	0ba4      	lsrs	r4, r4, #14
 8003f60:	f44f 7848 	mov.w	r8, #800	; 0x320
 8003f64:	fb08 f004 	mul.w	r0, r8, r4
 8003f68:	f506 4300 	add.w	r3, r6, #32768	; 0x8000
 8003f6c:	f500 4000 	add.w	r0, r0, #32768	; 0x8000
 8003f70:	0c1b      	lsrs	r3, r3, #16
 8003f72:	435b      	muls	r3, r3
 8003f74:	0c00      	lsrs	r0, r0, #16
 8003f76:	fb00 3000 	mla	r0, r0, r0, r3
 8003f7a:	910a      	str	r1, [sp, #40]	; 0x28
 8003f7c:	f7ff f85c 	bl	8003038 <VL53L0X_isqrt>
 8003f80:	ea4f 4900 	mov.w	r9, r0, lsl #16
 8003f84:	990a      	ldr	r1, [sp, #40]	; 0x28
 8003f86:	2064      	movs	r0, #100	; 0x64
 8003f88:	f640 33b5 	movw	r3, #2997	; 0xbb5
 8003f8c:	f109 0932 	add.w	r9, r9, #50	; 0x32
 8003f90:	fbb9 f9f0 	udiv	r9, r9, r0
 8003f94:	fbb9 f9f1 	udiv	r9, r9, r1
 8003f98:	f241 3188 	movw	r1, #5000	; 0x1388
 8003f9c:	fb03 1909 	mla	r9, r3, r9, r1
 8003fa0:	e9dd 3206 	ldrd	r3, r2, [sp, #24]
 8003fa4:	4413      	add	r3, r2
 8003fa6:	f503 73fa 	add.w	r3, r3, #500	; 0x1f4
 8003faa:	f44f 7b7a 	mov.w	fp, #1000	; 0x3e8
 8003fae:	f242 7110 	movw	r1, #10000	; 0x2710
 8003fb2:	fbb3 f0fb 	udiv	r0, r3, fp
 8003fb6:	fbb9 f9f1 	udiv	r9, r9, r1
 8003fba:	f44f 61fa 	mov.w	r1, #2000	; 0x7d0
 8003fbe:	f5b9 4f70 	cmp.w	r9, #61440	; 0xf000
 8003fc2:	fbb3 f1f1 	udiv	r1, r3, r1
 8003fc6:	f501 11c8 	add.w	r1, r1, #1638400	; 0x190000
 8003fca:	fbb1 f0f0 	udiv	r0, r1, r0
 8003fce:	bf28      	it	cs
 8003fd0:	f44f 4970 	movcs.w	r9, #61440	; 0xf000
 8003fd4:	f7ff f830 	bl	8003038 <VL53L0X_isqrt>
 8003fd8:	0200      	lsls	r0, r0, #8
 8003fda:	f500 70fa 	add.w	r0, r0, #500	; 0x1f4
 8003fde:	fbb0 f0fb 	udiv	r0, r0, fp
 8003fe2:	4340      	muls	r0, r0
 8003fe4:	fb09 0009 	mla	r0, r9, r9, r0
 8003fe8:	f7ff f826 	bl	8003038 <VL53L0X_isqrt>
 8003fec:	fb0b f200 	mul.w	r2, fp, r0
 8003ff0:	4552      	cmp	r2, sl
 8003ff2:	9b08      	ldr	r3, [sp, #32]
 8003ff4:	9905      	ldr	r1, [sp, #20]
 8003ff6:	bf28      	it	cs
 8003ff8:	4652      	movcs	r2, sl
 8003ffa:	601a      	str	r2, [r3, #0]
 8003ffc:	9b09      	ldr	r3, [sp, #36]	; 0x24
 8003ffe:	f8c5 2140 	str.w	r2, [r5, #320]	; 0x140
 8004002:	e9cd 7302 	strd	r7, r3, [sp, #8]
 8004006:	e9cd 8600 	strd	r8, r6, [sp]
 800400a:	4623      	mov	r3, r4
 800400c:	9a0b      	ldr	r2, [sp, #44]	; 0x2c
 800400e:	4628      	mov	r0, r5
 8004010:	f7ff fe9a 	bl	8003d48 <VL53L0X_calc_dmax>
 8004014:	4683      	mov	fp, r0
 8004016:	e747      	b.n	8003ea8 <VL53L0X_calc_sigma_estimate+0x94>
 8004018:	f44f 3480 	mov.w	r4, #65536	; 0x10000
 800401c:	e7a0      	b.n	8003f60 <VL53L0X_calc_sigma_estimate+0x14c>
 800401e:	bf00      	nop
 8004020:	00666666 	.word	0x00666666
 8004024:	0006999a 	.word	0x0006999a
 8004028:	028f87ae 	.word	0x028f87ae
 800402c:	ffff0000 	.word	0xffff0000

08004030 <VL53L0X_get_pal_range_status>:
 8004030:	e92d 4ff0 	stmdb	sp!, {r4, r5, r6, r7, r8, r9, sl, fp, lr}
 8004034:	b08b      	sub	sp, #44	; 0x2c
 8004036:	ea4f 0ad1 	mov.w	sl, r1, lsr #3
 800403a:	9201      	str	r2, [sp, #4]
 800403c:	f00a 080f 	and.w	r8, sl, #15
 8004040:	f24f 02a1 	movw	r2, #61601	; 0xf0a1
 8004044:	f04f 0900 	mov.w	r9, #0
 8004048:	fa22 f208 	lsr.w	r2, r2, r8
 800404c:	469b      	mov	fp, r3
 800404e:	4649      	mov	r1, r9
 8004050:	f002 0301 	and.w	r3, r2, #1
 8004054:	f10d 020e 	add.w	r2, sp, #14
 8004058:	4604      	mov	r4, r0
 800405a:	9f15      	ldr	r7, [sp, #84]	; 0x54
 800405c:	f88d 900e 	strb.w	r9, [sp, #14]
 8004060:	f88d 900f 	strb.w	r9, [sp, #15]
 8004064:	f88d 9010 	strb.w	r9, [sp, #16]
 8004068:	f88d 9011 	strb.w	r9, [sp, #17]
 800406c:	f8ad 9012 	strh.w	r9, [sp, #18]
 8004070:	f8cd 9024 	str.w	r9, [sp, #36]	; 0x24
 8004074:	9300      	str	r3, [sp, #0]
 8004076:	f7fd ff72 	bl	8001f5e <VL53L0X_GetLimitCheckEnable>
 800407a:	f89d 500e 	ldrb.w	r5, [sp, #14]
 800407e:	4606      	mov	r6, r0
 8004080:	b1d5      	cbz	r5, 80040b8 <VL53L0X_get_pal_range_status+0x88>
 8004082:	2800      	cmp	r0, #0
 8004084:	f040 809f 	bne.w	80041c6 <VL53L0X_get_pal_range_status+0x196>
 8004088:	ab09      	add	r3, sp, #36	; 0x24
 800408a:	aa05      	add	r2, sp, #20
 800408c:	9914      	ldr	r1, [sp, #80]	; 0x50
 800408e:	4620      	mov	r0, r4
 8004090:	f7ff fec0 	bl	8003e14 <VL53L0X_calc_sigma_estimate>
 8004094:	2800      	cmp	r0, #0
 8004096:	f040 8098 	bne.w	80041ca <VL53L0X_get_pal_range_status+0x19a>
 800409a:	9a14      	ldr	r2, [sp, #80]	; 0x50
 800409c:	9b09      	ldr	r3, [sp, #36]	; 0x24
 800409e:	8153      	strh	r3, [r2, #10]
 80040a0:	4601      	mov	r1, r0
 80040a2:	aa06      	add	r2, sp, #24
 80040a4:	4620      	mov	r0, r4
 80040a6:	f7fd ff95 	bl	8001fd4 <VL53L0X_GetLimitCheckValue>
 80040aa:	9d06      	ldr	r5, [sp, #24]
 80040ac:	b125      	cbz	r5, 80040b8 <VL53L0X_get_pal_range_status+0x88>
 80040ae:	9b05      	ldr	r3, [sp, #20]
 80040b0:	429d      	cmp	r5, r3
 80040b2:	bf2c      	ite	cs
 80040b4:	2500      	movcs	r5, #0
 80040b6:	2501      	movcc	r5, #1
 80040b8:	b920      	cbnz	r0, 80040c4 <VL53L0X_get_pal_range_status+0x94>
 80040ba:	aa04      	add	r2, sp, #16
 80040bc:	2102      	movs	r1, #2
 80040be:	4620      	mov	r0, r4
 80040c0:	f7fd ff4d 	bl	8001f5e <VL53L0X_GetLimitCheckEnable>
 80040c4:	f89d 9010 	ldrb.w	r9, [sp, #16]
 80040c8:	f1b9 0f00 	cmp.w	r9, #0
 80040cc:	d027      	beq.n	800411e <VL53L0X_get_pal_range_status+0xee>
 80040ce:	2800      	cmp	r0, #0
 80040d0:	d17f      	bne.n	80041d2 <VL53L0X_get_pal_range_status+0x1a2>
 80040d2:	aa07      	add	r2, sp, #28
 80040d4:	2102      	movs	r1, #2
 80040d6:	4620      	mov	r0, r4
 80040d8:	f7fd ff7c 	bl	8001fd4 <VL53L0X_GetLimitCheckValue>
 80040dc:	b988      	cbnz	r0, 8004102 <VL53L0X_get_pal_range_status+0xd2>
 80040de:	2201      	movs	r2, #1
 80040e0:	21ff      	movs	r1, #255	; 0xff
 80040e2:	4620      	mov	r0, r4
 80040e4:	f000 f99a 	bl	800441c <VL53L0X_WrByte>
 80040e8:	b958      	cbnz	r0, 8004102 <VL53L0X_get_pal_range_status+0xd2>
 80040ea:	f10d 0212 	add.w	r2, sp, #18
 80040ee:	21b6      	movs	r1, #182	; 0xb6
 80040f0:	4620      	mov	r0, r4
 80040f2:	f000 f9e3 	bl	80044bc <VL53L0X_RdWord>
 80040f6:	b920      	cbnz	r0, 8004102 <VL53L0X_get_pal_range_status+0xd2>
 80040f8:	4602      	mov	r2, r0
 80040fa:	21ff      	movs	r1, #255	; 0xff
 80040fc:	4620      	mov	r0, r4
 80040fe:	f000 f98d 	bl	800441c <VL53L0X_WrByte>
 8004102:	f8bd 3012 	ldrh.w	r3, [sp, #18]
 8004106:	025a      	lsls	r2, r3, #9
 8004108:	9b07      	ldr	r3, [sp, #28]
 800410a:	f8c4 2148 	str.w	r2, [r4, #328]	; 0x148
 800410e:	2b00      	cmp	r3, #0
 8004110:	d05d      	beq.n	80041ce <VL53L0X_get_pal_range_status+0x19e>
 8004112:	4293      	cmp	r3, r2
 8004114:	bf2c      	ite	cs
 8004116:	f04f 0900 	movcs.w	r9, #0
 800411a:	f04f 0901 	movcc.w	r9, #1
 800411e:	b928      	cbnz	r0, 800412c <VL53L0X_get_pal_range_status+0xfc>
 8004120:	f10d 0211 	add.w	r2, sp, #17
 8004124:	2103      	movs	r1, #3
 8004126:	4620      	mov	r0, r4
 8004128:	f7fd ff19 	bl	8001f5e <VL53L0X_GetLimitCheckEnable>
 800412c:	f89d 6011 	ldrb.w	r6, [sp, #17]
 8004130:	b19e      	cbz	r6, 800415a <VL53L0X_get_pal_range_status+0x12a>
 8004132:	2800      	cmp	r0, #0
 8004134:	d177      	bne.n	8004226 <VL53L0X_get_pal_range_status+0x1f6>
 8004136:	f1bb 0f00 	cmp.w	fp, #0
 800413a:	d003      	beq.n	8004144 <VL53L0X_get_pal_range_status+0x114>
 800413c:	9b01      	ldr	r3, [sp, #4]
 800413e:	021e      	lsls	r6, r3, #8
 8004140:	fbb6 fbfb 	udiv	fp, r6, fp
 8004144:	aa08      	add	r2, sp, #32
 8004146:	2103      	movs	r1, #3
 8004148:	4620      	mov	r0, r4
 800414a:	f7fd ff43 	bl	8001fd4 <VL53L0X_GetLimitCheckValue>
 800414e:	9e08      	ldr	r6, [sp, #32]
 8004150:	b11e      	cbz	r6, 800415a <VL53L0X_get_pal_range_status+0x12a>
 8004152:	455e      	cmp	r6, fp
 8004154:	bf94      	ite	ls
 8004156:	2600      	movls	r6, #0
 8004158:	2601      	movhi	r6, #1
 800415a:	b920      	cbnz	r0, 8004166 <VL53L0X_get_pal_range_status+0x136>
 800415c:	9b00      	ldr	r3, [sp, #0]
 800415e:	2b00      	cmp	r3, #0
 8004160:	d03a      	beq.n	80041d8 <VL53L0X_get_pal_range_status+0x1a8>
 8004162:	22ff      	movs	r2, #255	; 0xff
 8004164:	703a      	strb	r2, [r7, #0]
 8004166:	783a      	ldrb	r2, [r7, #0]
 8004168:	b90a      	cbnz	r2, 800416e <VL53L0X_get_pal_range_status+0x13e>
 800416a:	9b14      	ldr	r3, [sp, #80]	; 0x50
 800416c:	815a      	strh	r2, [r3, #10]
 800416e:	f10d 020f 	add.w	r2, sp, #15
 8004172:	2101      	movs	r1, #1
 8004174:	4620      	mov	r0, r4
 8004176:	f7fd fef2 	bl	8001f5e <VL53L0X_GetLimitCheckEnable>
 800417a:	bb08      	cbnz	r0, 80041c0 <VL53L0X_get_pal_range_status+0x190>
 800417c:	f89d 200e 	ldrb.w	r2, [sp, #14]
 8004180:	f89d 3011 	ldrb.w	r3, [sp, #17]
 8004184:	2a00      	cmp	r2, #0
 8004186:	bf08      	it	eq
 8004188:	2501      	moveq	r5, #1
 800418a:	f1b8 0f04 	cmp.w	r8, #4
 800418e:	bf18      	it	ne
 8004190:	f89d 200f 	ldrbne.w	r2, [sp, #15]
 8004194:	f884 502e 	strb.w	r5, [r4, #46]	; 0x2e
 8004198:	bf1a      	itte	ne
 800419a:	fab2 f282 	clzne	r2, r2
 800419e:	0952      	lsrne	r2, r2, #5
 80041a0:	2201      	moveq	r2, #1
 80041a2:	f884 202f 	strb.w	r2, [r4, #47]	; 0x2f
 80041a6:	f89d 2010 	ldrb.w	r2, [sp, #16]
 80041aa:	2a00      	cmp	r2, #0
 80041ac:	bf08      	it	eq
 80041ae:	f04f 0901 	moveq.w	r9, #1
 80041b2:	2b00      	cmp	r3, #0
 80041b4:	bf08      	it	eq
 80041b6:	2601      	moveq	r6, #1
 80041b8:	f884 9030 	strb.w	r9, [r4, #48]	; 0x30
 80041bc:	f884 6031 	strb.w	r6, [r4, #49]	; 0x31
 80041c0:	b00b      	add	sp, #44	; 0x2c
 80041c2:	e8bd 8ff0 	ldmia.w	sp!, {r4, r5, r6, r7, r8, r9, sl, fp, pc}
 80041c6:	464d      	mov	r5, r9
 80041c8:	e77c      	b.n	80040c4 <VL53L0X_get_pal_range_status+0x94>
 80041ca:	4635      	mov	r5, r6
 80041cc:	e77a      	b.n	80040c4 <VL53L0X_get_pal_range_status+0x94>
 80041ce:	4699      	mov	r9, r3
 80041d0:	e7a5      	b.n	800411e <VL53L0X_get_pal_range_status+0xee>
 80041d2:	f04f 0900 	mov.w	r9, #0
 80041d6:	e7a9      	b.n	800412c <VL53L0X_get_pal_range_status+0xfc>
 80041d8:	f108 32ff 	add.w	r2, r8, #4294967295
 80041dc:	2a02      	cmp	r2, #2
 80041de:	d801      	bhi.n	80041e4 <VL53L0X_get_pal_range_status+0x1b4>
 80041e0:	2205      	movs	r2, #5
 80041e2:	e7bf      	b.n	8004164 <VL53L0X_get_pal_range_status+0x134>
 80041e4:	f1b8 0f06 	cmp.w	r8, #6
 80041e8:	d002      	beq.n	80041f0 <VL53L0X_get_pal_range_status+0x1c0>
 80041ea:	f1b8 0f09 	cmp.w	r8, #9
 80041ee:	d101      	bne.n	80041f4 <VL53L0X_get_pal_range_status+0x1c4>
 80041f0:	2204      	movs	r2, #4
 80041f2:	e7b7      	b.n	8004164 <VL53L0X_get_pal_range_status+0x134>
 80041f4:	f00a 0a0d 	and.w	sl, sl, #13
 80041f8:	f1ba 0f08 	cmp.w	sl, #8
 80041fc:	d002      	beq.n	8004204 <VL53L0X_get_pal_range_status+0x1d4>
 80041fe:	f1b9 0f01 	cmp.w	r9, #1
 8004202:	d101      	bne.n	8004208 <VL53L0X_get_pal_range_status+0x1d8>
 8004204:	2203      	movs	r2, #3
 8004206:	e7ad      	b.n	8004164 <VL53L0X_get_pal_range_status+0x134>
 8004208:	f1b8 0f04 	cmp.w	r8, #4
 800420c:	d001      	beq.n	8004212 <VL53L0X_get_pal_range_status+0x1e2>
 800420e:	2e01      	cmp	r6, #1
 8004210:	d101      	bne.n	8004216 <VL53L0X_get_pal_range_status+0x1e6>
 8004212:	2202      	movs	r2, #2
 8004214:	e7a6      	b.n	8004164 <VL53L0X_get_pal_range_status+0x134>
 8004216:	2d01      	cmp	r5, #1
 8004218:	d101      	bne.n	800421e <VL53L0X_get_pal_range_status+0x1ee>
 800421a:	2201      	movs	r2, #1
 800421c:	e7a2      	b.n	8004164 <VL53L0X_get_pal_range_status+0x134>
 800421e:	2200      	movs	r2, #0
 8004220:	703a      	strb	r2, [r7, #0]
 8004222:	462e      	mov	r6, r5
 8004224:	e79f      	b.n	8004166 <VL53L0X_get_pal_range_status+0x136>
 8004226:	2600      	movs	r6, #0
 8004228:	e79d      	b.n	8004166 <VL53L0X_get_pal_range_status+0x136>
	...

0800422c <VL53L0X_write_byte>:
 800422c:	b513      	push	{r0, r1, r4, lr}
 800422e:	4c05      	ldr	r4, [pc, #20]	; (8004244 <VL53L0X_write_byte+0x18>)
 8004230:	7063      	strb	r3, [r4, #1]
 8004232:	230a      	movs	r3, #10
 8004234:	7022      	strb	r2, [r4, #0]
 8004236:	9300      	str	r3, [sp, #0]
 8004238:	4622      	mov	r2, r4
 800423a:	2302      	movs	r3, #2
 800423c:	f001 f942 	bl	80054c4 <HAL_I2C_Master_Transmit>
 8004240:	b002      	add	sp, #8
 8004242:	bd10      	pop	{r4, pc}
 8004244:	20000c08 	.word	0x20000c08

08004248 <VL53L0X_read_byte>:
 8004248:	b5f0      	push	{r4, r5, r6, r7, lr}
 800424a:	b085      	sub	sp, #20
 800424c:	460c      	mov	r4, r1
 800424e:	a904      	add	r1, sp, #16
 8004250:	250a      	movs	r5, #10
 8004252:	f801 2d01 	strb.w	r2, [r1, #-1]!
 8004256:	461f      	mov	r7, r3
 8004258:	460a      	mov	r2, r1
 800425a:	9500      	str	r5, [sp, #0]
 800425c:	2301      	movs	r3, #1
 800425e:	4621      	mov	r1, r4
 8004260:	4606      	mov	r6, r0
 8004262:	f001 f92f 	bl	80054c4 <HAL_I2C_Master_Transmit>
 8004266:	b948      	cbnz	r0, 800427c <VL53L0X_read_byte+0x34>
 8004268:	2301      	movs	r3, #1
 800426a:	9500      	str	r5, [sp, #0]
 800426c:	463a      	mov	r2, r7
 800426e:	ea44 0103 	orr.w	r1, r4, r3
 8004272:	4630      	mov	r0, r6
 8004274:	f001 f9fa 	bl	800566c <HAL_I2C_Master_Receive>
 8004278:	b005      	add	sp, #20
 800427a:	bdf0      	pop	{r4, r5, r6, r7, pc}
 800427c:	2001      	movs	r0, #1
 800427e:	e7fb      	b.n	8004278 <VL53L0X_read_byte+0x30>

08004280 <VL53L0X_read_dword>:
 8004280:	e92d 41ff 	stmdb	sp!, {r0, r1, r2, r3, r4, r5, r6, r7, r8, lr}
 8004284:	460e      	mov	r6, r1
 8004286:	a904      	add	r1, sp, #16
 8004288:	270a      	movs	r7, #10
 800428a:	f801 2d01 	strb.w	r2, [r1, #-1]!
 800428e:	461d      	mov	r5, r3
 8004290:	460a      	mov	r2, r1
 8004292:	9700      	str	r7, [sp, #0]
 8004294:	2301      	movs	r3, #1
 8004296:	4631      	mov	r1, r6
 8004298:	4680      	mov	r8, r0
 800429a:	f001 f913 	bl	80054c4 <HAL_I2C_Master_Transmit>
 800429e:	b118      	cbz	r0, 80042a8 <VL53L0X_read_dword+0x28>
 80042a0:	2001      	movs	r0, #1
 80042a2:	b004      	add	sp, #16
 80042a4:	e8bd 81f0 	ldmia.w	sp!, {r4, r5, r6, r7, r8, pc}
 80042a8:	4c0b      	ldr	r4, [pc, #44]	; (80042d8 <VL53L0X_read_dword+0x58>)
 80042aa:	9700      	str	r7, [sp, #0]
 80042ac:	2304      	movs	r3, #4
 80042ae:	4622      	mov	r2, r4
 80042b0:	f046 0101 	orr.w	r1, r6, #1
 80042b4:	4640      	mov	r0, r8
 80042b6:	f001 f9d9 	bl	800566c <HAL_I2C_Master_Receive>
 80042ba:	2800      	cmp	r0, #0
 80042bc:	d1f0      	bne.n	80042a0 <VL53L0X_read_dword+0x20>
 80042be:	7863      	ldrb	r3, [r4, #1]
 80042c0:	7822      	ldrb	r2, [r4, #0]
 80042c2:	041b      	lsls	r3, r3, #16
 80042c4:	eb03 6302 	add.w	r3, r3, r2, lsl #24
 80042c8:	78e2      	ldrb	r2, [r4, #3]
 80042ca:	4413      	add	r3, r2
 80042cc:	78a2      	ldrb	r2, [r4, #2]
 80042ce:	eb03 2302 	add.w	r3, r3, r2, lsl #8
 80042d2:	602b      	str	r3, [r5, #0]
 80042d4:	e7e5      	b.n	80042a2 <VL53L0X_read_dword+0x22>
 80042d6:	bf00      	nop
 80042d8:	20000c08 	.word	0x20000c08

080042dc <VL53L0X_write_word>:
 80042dc:	b513      	push	{r0, r1, r4, lr}
 80042de:	4c06      	ldr	r4, [pc, #24]	; (80042f8 <VL53L0X_write_word+0x1c>)
 80042e0:	7022      	strb	r2, [r4, #0]
 80042e2:	70a3      	strb	r3, [r4, #2]
 80042e4:	0a1a      	lsrs	r2, r3, #8
 80042e6:	230a      	movs	r3, #10
 80042e8:	7062      	strb	r2, [r4, #1]
 80042ea:	9300      	str	r3, [sp, #0]
 80042ec:	4622      	mov	r2, r4
 80042ee:	2303      	movs	r3, #3
 80042f0:	f001 f8e8 	bl	80054c4 <HAL_I2C_Master_Transmit>
 80042f4:	b002      	add	sp, #8
 80042f6:	bd10      	pop	{r4, pc}
 80042f8:	20000c08 	.word	0x20000c08

080042fc <VL53L0X_read_word>:
 80042fc:	e92d 41ff 	stmdb	sp!, {r0, r1, r2, r3, r4, r5, r6, r7, r8, lr}
 8004300:	460d      	mov	r5, r1
 8004302:	a904      	add	r1, sp, #16
 8004304:	260a      	movs	r6, #10
 8004306:	f801 2d01 	strb.w	r2, [r1, #-1]!
 800430a:	461f      	mov	r7, r3
 800430c:	460a      	mov	r2, r1
 800430e:	9600      	str	r6, [sp, #0]
 8004310:	2301      	movs	r3, #1
 8004312:	4629      	mov	r1, r5
 8004314:	4680      	mov	r8, r0
 8004316:	f001 f8d5 	bl	80054c4 <HAL_I2C_Master_Transmit>
 800431a:	b118      	cbz	r0, 8004324 <VL53L0X_read_word+0x28>
 800431c:	2001      	movs	r0, #1
 800431e:	b004      	add	sp, #16
 8004320:	e8bd 81f0 	ldmia.w	sp!, {r4, r5, r6, r7, r8, pc}
 8004324:	4c08      	ldr	r4, [pc, #32]	; (8004348 <VL53L0X_read_word+0x4c>)
 8004326:	9600      	str	r6, [sp, #0]
 8004328:	2302      	movs	r3, #2
 800432a:	4622      	mov	r2, r4
 800432c:	f045 0101 	orr.w	r1, r5, #1
 8004330:	4640      	mov	r0, r8
 8004332:	f001 f99b 	bl	800566c <HAL_I2C_Master_Receive>
 8004336:	2800      	cmp	r0, #0
 8004338:	d1f0      	bne.n	800431c <VL53L0X_read_word+0x20>
 800433a:	7822      	ldrb	r2, [r4, #0]
 800433c:	7863      	ldrb	r3, [r4, #1]
 800433e:	eb03 2302 	add.w	r3, r3, r2, lsl #8
 8004342:	803b      	strh	r3, [r7, #0]
 8004344:	e7eb      	b.n	800431e <VL53L0X_read_word+0x22>
 8004346:	bf00      	nop
 8004348:	20000c08 	.word	0x20000c08

0800434c <VL53L0X_read_multi>:
 800434c:	b5f0      	push	{r4, r5, r6, r7, lr}
 800434e:	b085      	sub	sp, #20
 8004350:	460c      	mov	r4, r1
 8004352:	a904      	add	r1, sp, #16
 8004354:	250a      	movs	r5, #10
 8004356:	f801 2d01 	strb.w	r2, [r1, #-1]!
 800435a:	461f      	mov	r7, r3
 800435c:	460a      	mov	r2, r1
 800435e:	9500      	str	r5, [sp, #0]
 8004360:	2301      	movs	r3, #1
 8004362:	4621      	mov	r1, r4
 8004364:	4606      	mov	r6, r0
 8004366:	f001 f8ad 	bl	80054c4 <HAL_I2C_Master_Transmit>
 800436a:	b968      	cbnz	r0, 8004388 <VL53L0X_read_multi+0x3c>
 800436c:	9500      	str	r5, [sp, #0]
 800436e:	f8bd 3028 	ldrh.w	r3, [sp, #40]	; 0x28
 8004372:	463a      	mov	r2, r7
 8004374:	f044 0101 	orr.w	r1, r4, #1
 8004378:	4630      	mov	r0, r6
 800437a:	f001 f977 	bl	800566c <HAL_I2C_Master_Receive>
 800437e:	3000      	adds	r0, #0
 8004380:	bf18      	it	ne
 8004382:	2001      	movne	r0, #1
 8004384:	b005      	add	sp, #20
 8004386:	bdf0      	pop	{r4, r5, r6, r7, pc}
 8004388:	2001      	movs	r0, #1
 800438a:	e7fb      	b.n	8004384 <VL53L0X_read_multi+0x38>

0800438c <VL53L0X_write_multi>:
 800438c:	b5f7      	push	{r0, r1, r2, r4, r5, r6, r7, lr}
 800438e:	4d0b      	ldr	r5, [pc, #44]	; (80043bc <VL53L0X_write_multi+0x30>)
 8004390:	9c08      	ldr	r4, [sp, #32]
 8004392:	4606      	mov	r6, r0
 8004394:	4628      	mov	r0, r5
 8004396:	460f      	mov	r7, r1
 8004398:	f800 2b01 	strb.w	r2, [r0], #1
 800439c:	4619      	mov	r1, r3
 800439e:	4622      	mov	r2, r4
 80043a0:	f002 fdbe 	bl	8006f20 <memcpy>
 80043a4:	1c63      	adds	r3, r4, #1
 80043a6:	220a      	movs	r2, #10
 80043a8:	9200      	str	r2, [sp, #0]
 80043aa:	b29b      	uxth	r3, r3
 80043ac:	462a      	mov	r2, r5
 80043ae:	4639      	mov	r1, r7
 80043b0:	4630      	mov	r0, r6
 80043b2:	f001 f887 	bl	80054c4 <HAL_I2C_Master_Transmit>
 80043b6:	b003      	add	sp, #12
 80043b8:	bdf0      	pop	{r4, r5, r6, r7, pc}
 80043ba:	bf00      	nop
 80043bc:	20000c08 	.word	0x20000c08

080043c0 <VL53L0X_WriteMulti>:
 80043c0:	b537      	push	{r0, r1, r2, r4, r5, lr}
 80043c2:	f890 5160 	ldrb.w	r5, [r0, #352]	; 0x160
 80043c6:	9300      	str	r3, [sp, #0]
 80043c8:	2b40      	cmp	r3, #64	; 0x40
 80043ca:	f8d0 015c 	ldr.w	r0, [r0, #348]	; 0x15c
 80043ce:	4613      	mov	r3, r2
 80043d0:	460a      	mov	r2, r1
 80043d2:	4629      	mov	r1, r5
 80043d4:	bf34      	ite	cc
 80043d6:	2400      	movcc	r4, #0
 80043d8:	f06f 0403 	mvncs.w	r4, #3
 80043dc:	f7ff ffd6 	bl	800438c <VL53L0X_write_multi>
 80043e0:	2800      	cmp	r0, #0
 80043e2:	bf0c      	ite	eq
 80043e4:	4620      	moveq	r0, r4
 80043e6:	f06f 0013 	mvnne.w	r0, #19
 80043ea:	b003      	add	sp, #12
 80043ec:	bd30      	pop	{r4, r5, pc}

080043ee <VL53L0X_ReadMulti>:
 80043ee:	b537      	push	{r0, r1, r2, r4, r5, lr}
 80043f0:	f890 5160 	ldrb.w	r5, [r0, #352]	; 0x160
 80043f4:	9300      	str	r3, [sp, #0]
 80043f6:	2b40      	cmp	r3, #64	; 0x40
 80043f8:	f8d0 015c 	ldr.w	r0, [r0, #348]	; 0x15c
 80043fc:	4613      	mov	r3, r2
 80043fe:	460a      	mov	r2, r1
 8004400:	4629      	mov	r1, r5
 8004402:	bf34      	ite	cc
 8004404:	2400      	movcc	r4, #0
 8004406:	f06f 0403 	mvncs.w	r4, #3
 800440a:	f7ff ff9f 	bl	800434c <VL53L0X_read_multi>
 800440e:	2800      	cmp	r0, #0
 8004410:	bf0c      	ite	eq
 8004412:	4620      	moveq	r0, r4
 8004414:	f06f 0013 	mvnne.w	r0, #19
 8004418:	b003      	add	sp, #12
 800441a:	bd30      	pop	{r4, r5, pc}

0800441c <VL53L0X_WrByte>:
 800441c:	b508      	push	{r3, lr}
 800441e:	4613      	mov	r3, r2
 8004420:	460a      	mov	r2, r1
 8004422:	f890 1160 	ldrb.w	r1, [r0, #352]	; 0x160
 8004426:	f8d0 015c 	ldr.w	r0, [r0, #348]	; 0x15c
 800442a:	f7ff feff 	bl	800422c <VL53L0X_write_byte>
 800442e:	2800      	cmp	r0, #0
 8004430:	bf14      	ite	ne
 8004432:	f06f 0013 	mvnne.w	r0, #19
 8004436:	2000      	moveq	r0, #0
 8004438:	bd08      	pop	{r3, pc}

0800443a <VL53L0X_WrWord>:
 800443a:	b508      	push	{r3, lr}
 800443c:	4613      	mov	r3, r2
 800443e:	460a      	mov	r2, r1
 8004440:	f890 1160 	ldrb.w	r1, [r0, #352]	; 0x160
 8004444:	f8d0 015c 	ldr.w	r0, [r0, #348]	; 0x15c
 8004448:	f7ff ff48 	bl	80042dc <VL53L0X_write_word>
 800444c:	2800      	cmp	r0, #0
 800444e:	bf14      	ite	ne
 8004450:	f06f 0013 	mvnne.w	r0, #19
 8004454:	2000      	moveq	r0, #0
 8004456:	bd08      	pop	{r3, pc}

08004458 <VL53L0X_UpdateByte>:
 8004458:	e92d 41f3 	stmdb	sp!, {r0, r1, r4, r5, r6, r7, r8, lr}
 800445c:	f890 7160 	ldrb.w	r7, [r0, #352]	; 0x160
 8004460:	4605      	mov	r5, r0
 8004462:	4688      	mov	r8, r1
 8004464:	4616      	mov	r6, r2
 8004466:	461c      	mov	r4, r3
 8004468:	460a      	mov	r2, r1
 800446a:	f10d 0307 	add.w	r3, sp, #7
 800446e:	4639      	mov	r1, r7
 8004470:	f8d0 015c 	ldr.w	r0, [r0, #348]	; 0x15c
 8004474:	f7ff fee8 	bl	8004248 <VL53L0X_read_byte>
 8004478:	b960      	cbnz	r0, 8004494 <VL53L0X_UpdateByte+0x3c>
 800447a:	f89d 3007 	ldrb.w	r3, [sp, #7]
 800447e:	f8d5 015c 	ldr.w	r0, [r5, #348]	; 0x15c
 8004482:	4033      	ands	r3, r6
 8004484:	4323      	orrs	r3, r4
 8004486:	4642      	mov	r2, r8
 8004488:	4639      	mov	r1, r7
 800448a:	f88d 3007 	strb.w	r3, [sp, #7]
 800448e:	f7ff fecd 	bl	800422c <VL53L0X_write_byte>
 8004492:	b108      	cbz	r0, 8004498 <VL53L0X_UpdateByte+0x40>
 8004494:	f06f 0013 	mvn.w	r0, #19
 8004498:	b002      	add	sp, #8
 800449a:	e8bd 81f0 	ldmia.w	sp!, {r4, r5, r6, r7, r8, pc}

0800449e <VL53L0X_RdByte>:
 800449e:	b508      	push	{r3, lr}
 80044a0:	4613      	mov	r3, r2
 80044a2:	460a      	mov	r2, r1
 80044a4:	f890 1160 	ldrb.w	r1, [r0, #352]	; 0x160
 80044a8:	f8d0 015c 	ldr.w	r0, [r0, #348]	; 0x15c
 80044ac:	f7ff fecc 	bl	8004248 <VL53L0X_read_byte>
 80044b0:	2800      	cmp	r0, #0
 80044b2:	bf14      	ite	ne
 80044b4:	f06f 0013 	mvnne.w	r0, #19
 80044b8:	2000      	moveq	r0, #0
 80044ba:	bd08      	pop	{r3, pc}

080044bc <VL53L0X_RdWord>:
 80044bc:	b508      	push	{r3, lr}
 80044be:	4613      	mov	r3, r2
 80044c0:	460a      	mov	r2, r1
 80044c2:	f890 1160 	ldrb.w	r1, [r0, #352]	; 0x160
 80044c6:	f8d0 015c 	ldr.w	r0, [r0, #348]	; 0x15c
 80044ca:	f7ff ff17 	bl	80042fc <VL53L0X_read_word>
 80044ce:	2800      	cmp	r0, #0
 80044d0:	bf14      	ite	ne
 80044d2:	f06f 0013 	mvnne.w	r0, #19
 80044d6:	2000      	moveq	r0, #0
 80044d8:	bd08      	pop	{r3, pc}

080044da <VL53L0X_RdDWord>:
 80044da:	b508      	push	{r3, lr}
 80044dc:	4613      	mov	r3, r2
 80044de:	460a      	mov	r2, r1
 80044e0:	f890 1160 	ldrb.w	r1, [r0, #352]	; 0x160
 80044e4:	f8d0 015c 	ldr.w	r0, [r0, #348]	; 0x15c
 80044e8:	f7ff feca 	bl	8004280 <VL53L0X_read_dword>
 80044ec:	2800      	cmp	r0, #0
 80044ee:	bf14      	ite	ne
 80044f0:	f06f 0013 	mvnne.w	r0, #19
 80044f4:	2000      	moveq	r0, #0
 80044f6:	bd08      	pop	{r3, pc}

080044f8 <VL53L0X_PollingDelay>:
 80044f8:	b508      	push	{r3, lr}
 80044fa:	2001      	movs	r0, #1
 80044fc:	f000 f802 	bl	8004504 <vl_api_delay>
 8004500:	2000      	movs	r0, #0
 8004502:	bd08      	pop	{r3, pc}

08004504 <vl_api_delay>:
 8004504:	f000 b922 	b.w	800474c <HAL_Delay>

08004508 <VL_init_sensor_setAddres>:
 8004508:	b570      	push	{r4, r5, r6, lr}
 800450a:	4605      	mov	r5, r0
 800450c:	2064      	movs	r0, #100	; 0x64
 800450e:	460e      	mov	r6, r1
 8004510:	f7ff fff8 	bl	8004504 <vl_api_delay>
 8004514:	4628      	mov	r0, r5
 8004516:	f7fd fde3 	bl	80020e0 <VL53L0X_DataInit>
 800451a:	4631      	mov	r1, r6
 800451c:	4604      	mov	r4, r0
 800451e:	4628      	mov	r0, r5
 8004520:	f7fd fc16 	bl	8001d50 <VL53L0X_SetDeviceAddress>
 8004524:	4320      	orrs	r0, r4
 8004526:	f010 00ff 	ands.w	r0, r0, #255	; 0xff
 800452a:	bf08      	it	eq
 800452c:	f885 6160 	strbeq.w	r6, [r5, #352]	; 0x160
 8004530:	bd70      	pop	{r4, r5, r6, pc}

08004532 <VL_set_interrupt>:
 8004532:	b507      	push	{r0, r1, r2, lr}
 8004534:	460b      	mov	r3, r1
 8004536:	9200      	str	r2, [sp, #0]
 8004538:	b141      	cbz	r1, 800454c <VL_set_interrupt+0x1a>
 800453a:	2200      	movs	r2, #0
 800453c:	2304      	movs	r3, #4
 800453e:	4611      	mov	r1, r2
 8004540:	f7fe f8d5 	bl	80026ee <VL53L0X_SetGpioConfig>
 8004544:	b2c0      	uxtb	r0, r0
 8004546:	b003      	add	sp, #12
 8004548:	f85d fb04 	ldr.w	pc, [sp], #4
 800454c:	460a      	mov	r2, r1
 800454e:	e7f7      	b.n	8004540 <VL_set_interrupt+0xe>

08004550 <VL_init_parameters>:
 8004550:	e92d 41f3 	stmdb	sp!, {r0, r1, r4, r5, r6, r7, r8, lr}
 8004554:	4604      	mov	r4, r0
 8004556:	460d      	mov	r5, r1
 8004558:	4616      	mov	r6, r2
 800455a:	f7fe f8e3 	bl	8002724 <VL53L0X_StaticInit>
 800455e:	b108      	cbz	r0, 8004564 <VL_init_parameters+0x14>
 8004560:	b2c0      	uxtb	r0, r0
 8004562:	e029      	b.n	80045b8 <VL_init_parameters+0x68>
 8004564:	f10d 0202 	add.w	r2, sp, #2
 8004568:	f10d 0101 	add.w	r1, sp, #1
 800456c:	4620      	mov	r0, r4
 800456e:	f7fd fe65 	bl	800223c <VL53L0X_PerformRefCalibration>
 8004572:	2800      	cmp	r0, #0
 8004574:	d1f4      	bne.n	8004560 <VL_init_parameters+0x10>
 8004576:	f10d 0203 	add.w	r2, sp, #3
 800457a:	a901      	add	r1, sp, #4
 800457c:	4620      	mov	r0, r4
 800457e:	f7fe f9d6 	bl	800292e <VL53L0X_PerformRefSpadManagement>
 8004582:	2800      	cmp	r0, #0
 8004584:	d1ec      	bne.n	8004560 <VL_init_parameters+0x10>
 8004586:	4631      	mov	r1, r6
 8004588:	4620      	mov	r0, r4
 800458a:	f7fd fbe5 	bl	8001d58 <VL53L0X_SetDeviceMode>
 800458e:	2800      	cmp	r0, #0
 8004590:	d1e6      	bne.n	8004560 <VL_init_parameters+0x10>
 8004592:	4601      	mov	r1, r0
 8004594:	2201      	movs	r2, #1
 8004596:	4620      	mov	r0, r4
 8004598:	f7fd fca2 	bl	8001ee0 <VL53L0X_SetLimitCheckEnable>
 800459c:	2800      	cmp	r0, #0
 800459e:	d1df      	bne.n	8004560 <VL_init_parameters+0x10>
 80045a0:	2201      	movs	r2, #1
 80045a2:	4611      	mov	r1, r2
 80045a4:	4620      	mov	r0, r4
 80045a6:	f7fd fc9b 	bl	8001ee0 <VL53L0X_SetLimitCheckEnable>
 80045aa:	2800      	cmp	r0, #0
 80045ac:	d1d8      	bne.n	8004560 <VL_init_parameters+0x10>
 80045ae:	2d01      	cmp	r5, #1
 80045b0:	d005      	beq.n	80045be <VL_init_parameters+0x6e>
 80045b2:	d336      	bcc.n	8004622 <VL_init_parameters+0xd2>
 80045b4:	2d02      	cmp	r5, #2
 80045b6:	d03d      	beq.n	8004634 <VL_init_parameters+0xe4>
 80045b8:	b002      	add	sp, #8
 80045ba:	e8bd 81f0 	ldmia.w	sp!, {r4, r5, r6, r7, r8, pc}
 80045be:	4f22      	ldr	r7, [pc, #136]	; (8004648 <VL_init_parameters+0xf8>)
 80045c0:	250a      	movs	r5, #10
 80045c2:	260e      	movs	r6, #14
 80045c4:	f44f 1890 	mov.w	r8, #1179648	; 0x120000
 80045c8:	f44f 4280 	mov.w	r2, #16384	; 0x4000
 80045cc:	2101      	movs	r1, #1
 80045ce:	4620      	mov	r0, r4
 80045d0:	f7fd fcd3 	bl	8001f7a <VL53L0X_SetLimitCheckValue>
 80045d4:	2800      	cmp	r0, #0
 80045d6:	d1c3      	bne.n	8004560 <VL_init_parameters+0x10>
 80045d8:	4601      	mov	r1, r0
 80045da:	4642      	mov	r2, r8
 80045dc:	4620      	mov	r0, r4
 80045de:	f7fd fccc 	bl	8001f7a <VL53L0X_SetLimitCheckValue>
 80045e2:	2800      	cmp	r0, #0
 80045e4:	d1bc      	bne.n	8004560 <VL_init_parameters+0x10>
 80045e6:	4639      	mov	r1, r7
 80045e8:	4620      	mov	r0, r4
 80045ea:	f7fd fbd1 	bl	8001d90 <VL53L0X_SetMeasurementTimingBudgetMicroSeconds>
 80045ee:	2800      	cmp	r0, #0
 80045f0:	d1b6      	bne.n	8004560 <VL_init_parameters+0x10>
 80045f2:	4601      	mov	r1, r0
 80045f4:	4632      	mov	r2, r6
 80045f6:	4620      	mov	r0, r4
 80045f8:	f7fd fbcc 	bl	8001d94 <VL53L0X_SetVcselPulsePeriod>
 80045fc:	2800      	cmp	r0, #0
 80045fe:	d1af      	bne.n	8004560 <VL_init_parameters+0x10>
 8004600:	462a      	mov	r2, r5
 8004602:	2101      	movs	r1, #1
 8004604:	4620      	mov	r0, r4
 8004606:	f7fd fbc5 	bl	8001d94 <VL53L0X_SetVcselPulsePeriod>
 800460a:	2800      	cmp	r0, #0
 800460c:	d1a8      	bne.n	8004560 <VL_init_parameters+0x10>
 800460e:	f10d 0202 	add.w	r2, sp, #2
 8004612:	f10d 0101 	add.w	r1, sp, #1
 8004616:	4620      	mov	r0, r4
 8004618:	f7fd fe10 	bl	800223c <VL53L0X_PerformRefCalibration>
 800461c:	2800      	cmp	r0, #0
 800461e:	d19f      	bne.n	8004560 <VL_init_parameters+0x10>
 8004620:	e7ca      	b.n	80045b8 <VL_init_parameters+0x68>
 8004622:	250a      	movs	r5, #10
 8004624:	260e      	movs	r6, #14
 8004626:	f644 6720 	movw	r7, #20000	; 0x4e20
 800462a:	f44f 1848 	mov.w	r8, #3276800	; 0x320000
 800462e:	f44f 3280 	mov.w	r2, #65536	; 0x10000
 8004632:	e7cb      	b.n	80045cc <VL_init_parameters+0x7c>
 8004634:	250e      	movs	r5, #14
 8004636:	2612      	movs	r6, #18
 8004638:	f248 07e8 	movw	r7, #33000	; 0x80e8
 800463c:	f44f 1870 	mov.w	r8, #3932160	; 0x3c0000
 8004640:	f641 1299 	movw	r2, #6553	; 0x1999
 8004644:	e7c2      	b.n	80045cc <VL_init_parameters+0x7c>
 8004646:	bf00      	nop
 8004648:	00030d40 	.word	0x00030d40

0800464c <VL_start_measurement_non_blocking>:
 800464c:	b508      	push	{r3, lr}
 800464e:	f7fd fef5 	bl	800243c <VL53L0X_StartMeasurement>
 8004652:	b2c0      	uxtb	r0, r0
 8004654:	bd08      	pop	{r3, pc}
	...

08004658 <Reset_Handler>:
 8004658:	f8df d034 	ldr.w	sp, [pc, #52]	; 8004690 <LoopFillZerobss+0x14>
 800465c:	2100      	movs	r1, #0
 800465e:	e003      	b.n	8004668 <LoopCopyDataInit>

08004660 <CopyDataInit>:
 8004660:	4b0c      	ldr	r3, [pc, #48]	; (8004694 <LoopFillZerobss+0x18>)
 8004662:	585b      	ldr	r3, [r3, r1]
 8004664:	5043      	str	r3, [r0, r1]
 8004666:	3104      	adds	r1, #4

08004668 <LoopCopyDataInit>:
 8004668:	480b      	ldr	r0, [pc, #44]	; (8004698 <LoopFillZerobss+0x1c>)
 800466a:	4b0c      	ldr	r3, [pc, #48]	; (800469c <LoopFillZerobss+0x20>)
 800466c:	1842      	adds	r2, r0, r1
 800466e:	429a      	cmp	r2, r3
 8004670:	d3f6      	bcc.n	8004660 <CopyDataInit>
 8004672:	4a0b      	ldr	r2, [pc, #44]	; (80046a0 <LoopFillZerobss+0x24>)
 8004674:	e002      	b.n	800467c <LoopFillZerobss>

08004676 <FillZerobss>:
 8004676:	2300      	movs	r3, #0
 8004678:	f842 3b04 	str.w	r3, [r2], #4

0800467c <LoopFillZerobss>:
 800467c:	4b09      	ldr	r3, [pc, #36]	; (80046a4 <LoopFillZerobss+0x28>)
 800467e:	429a      	cmp	r2, r3
 8004680:	d3f9      	bcc.n	8004676 <FillZerobss>
 8004682:	f7fd fb57 	bl	8001d34 <SystemInit>
 8004686:	f002 fbc3 	bl	8006e10 <__libc_init_array>
 800468a:	f7fc fbf1 	bl	8000e70 <main>
 800468e:	4770      	bx	lr
 8004690:	20020000 	.word	0x20020000
 8004694:	08007c90 	.word	0x08007c90
 8004698:	20000000 	.word	0x20000000
 800469c:	2000032c 	.word	0x2000032c
 80046a0:	2000032c 	.word	0x2000032c
 80046a4:	20000c50 	.word	0x20000c50

080046a8 <ADC_IRQHandler>:
 80046a8:	e7fe      	b.n	80046a8 <ADC_IRQHandler>
	...

080046ac <HAL_InitTick>:
 80046ac:	b538      	push	{r3, r4, r5, lr}
 80046ae:	4a0e      	ldr	r2, [pc, #56]	; (80046e8 <HAL_InitTick+0x3c>)
 80046b0:	4b0e      	ldr	r3, [pc, #56]	; (80046ec <HAL_InitTick+0x40>)
 80046b2:	4605      	mov	r5, r0
 80046b4:	7818      	ldrb	r0, [r3, #0]
 80046b6:	f44f 737a 	mov.w	r3, #1000	; 0x3e8
 80046ba:	fbb3 f3f0 	udiv	r3, r3, r0
 80046be:	6810      	ldr	r0, [r2, #0]
 80046c0:	fbb0 f0f3 	udiv	r0, r0, r3
 80046c4:	f000 fab8 	bl	8004c38 <HAL_SYSTICK_Config>
 80046c8:	4604      	mov	r4, r0
 80046ca:	b958      	cbnz	r0, 80046e4 <HAL_InitTick+0x38>
 80046cc:	2d0f      	cmp	r5, #15
 80046ce:	d809      	bhi.n	80046e4 <HAL_InitTick+0x38>
 80046d0:	4602      	mov	r2, r0
 80046d2:	4629      	mov	r1, r5
 80046d4:	f04f 30ff 	mov.w	r0, #4294967295
 80046d8:	f000 fa6c 	bl	8004bb4 <HAL_NVIC_SetPriority>
 80046dc:	4b04      	ldr	r3, [pc, #16]	; (80046f0 <HAL_InitTick+0x44>)
 80046de:	4620      	mov	r0, r4
 80046e0:	601d      	str	r5, [r3, #0]
 80046e2:	bd38      	pop	{r3, r4, r5, pc}
 80046e4:	2001      	movs	r0, #1
 80046e6:	e7fc      	b.n	80046e2 <HAL_InitTick+0x36>
 80046e8:	20000000 	.word	0x20000000
 80046ec:	200002c0 	.word	0x200002c0
 80046f0:	200002c4 	.word	0x200002c4

080046f4 <HAL_Init>:
 80046f4:	b508      	push	{r3, lr}
 80046f6:	4b0b      	ldr	r3, [pc, #44]	; (8004724 <HAL_Init+0x30>)
 80046f8:	681a      	ldr	r2, [r3, #0]
 80046fa:	f442 7200 	orr.w	r2, r2, #512	; 0x200
 80046fe:	601a      	str	r2, [r3, #0]
 8004700:	681a      	ldr	r2, [r3, #0]
 8004702:	f442 6280 	orr.w	r2, r2, #1024	; 0x400
 8004706:	601a      	str	r2, [r3, #0]
 8004708:	681a      	ldr	r2, [r3, #0]
 800470a:	f442 7280 	orr.w	r2, r2, #256	; 0x100
 800470e:	601a      	str	r2, [r3, #0]
 8004710:	2003      	movs	r0, #3
 8004712:	f000 fa3d 	bl	8004b90 <HAL_NVIC_SetPriorityGrouping>
 8004716:	2000      	movs	r0, #0
 8004718:	f7ff ffc8 	bl	80046ac <HAL_InitTick>
 800471c:	f7fd f84c 	bl	80017b8 <HAL_MspInit>
 8004720:	2000      	movs	r0, #0
 8004722:	bd08      	pop	{r3, pc}
 8004724:	40023c00 	.word	0x40023c00

08004728 <HAL_IncTick>:
 8004728:	4a03      	ldr	r2, [pc, #12]	; (8004738 <HAL_IncTick+0x10>)
 800472a:	4b04      	ldr	r3, [pc, #16]	; (800473c <HAL_IncTick+0x14>)
 800472c:	6811      	ldr	r1, [r2, #0]
 800472e:	781b      	ldrb	r3, [r3, #0]
 8004730:	440b      	add	r3, r1
 8004732:	6013      	str	r3, [r2, #0]
 8004734:	4770      	bx	lr
 8004736:	bf00      	nop
 8004738:	20000c48 	.word	0x20000c48
 800473c:	200002c0 	.word	0x200002c0

08004740 <HAL_GetTick>:
 8004740:	4b01      	ldr	r3, [pc, #4]	; (8004748 <HAL_GetTick+0x8>)
 8004742:	6818      	ldr	r0, [r3, #0]
 8004744:	4770      	bx	lr
 8004746:	bf00      	nop
 8004748:	20000c48 	.word	0x20000c48

0800474c <HAL_Delay>:
 800474c:	b538      	push	{r3, r4, r5, lr}
 800474e:	4604      	mov	r4, r0
 8004750:	f7ff fff6 	bl	8004740 <HAL_GetTick>
 8004754:	1c63      	adds	r3, r4, #1
 8004756:	bf1c      	itt	ne
 8004758:	4b05      	ldrne	r3, [pc, #20]	; (8004770 <HAL_Delay+0x24>)
 800475a:	781b      	ldrbne	r3, [r3, #0]
 800475c:	4605      	mov	r5, r0
 800475e:	bf18      	it	ne
 8004760:	18e4      	addne	r4, r4, r3
 8004762:	f7ff ffed 	bl	8004740 <HAL_GetTick>
 8004766:	1b40      	subs	r0, r0, r5
 8004768:	42a0      	cmp	r0, r4
 800476a:	d3fa      	bcc.n	8004762 <HAL_Delay+0x16>
 800476c:	bd38      	pop	{r3, r4, r5, pc}
 800476e:	bf00      	nop
 8004770:	200002c0 	.word	0x200002c0

08004774 <HAL_ADC_Init>:
 8004774:	b538      	push	{r3, r4, r5, lr}
 8004776:	4604      	mov	r4, r0
 8004778:	2800      	cmp	r0, #0
 800477a:	f000 809b 	beq.w	80048b4 <HAL_ADC_Init+0x140>
 800477e:	6c05      	ldr	r5, [r0, #64]	; 0x40
 8004780:	b925      	cbnz	r5, 800478c <HAL_ADC_Init+0x18>
 8004782:	f7fd f835 	bl	80017f0 <HAL_ADC_MspInit>
 8004786:	6465      	str	r5, [r4, #68]	; 0x44
 8004788:	f884 503c 	strb.w	r5, [r4, #60]	; 0x3c
 800478c:	6c23      	ldr	r3, [r4, #64]	; 0x40
 800478e:	06db      	lsls	r3, r3, #27
 8004790:	f100 808e 	bmi.w	80048b0 <HAL_ADC_Init+0x13c>
 8004794:	6c23      	ldr	r3, [r4, #64]	; 0x40
 8004796:	f423 5388 	bic.w	r3, r3, #4352	; 0x1100
 800479a:	f023 0302 	bic.w	r3, r3, #2
 800479e:	f043 0302 	orr.w	r3, r3, #2
 80047a2:	6423      	str	r3, [r4, #64]	; 0x40
 80047a4:	4b44      	ldr	r3, [pc, #272]	; (80048b8 <HAL_ADC_Init+0x144>)
 80047a6:	685a      	ldr	r2, [r3, #4]
 80047a8:	f422 3240 	bic.w	r2, r2, #196608	; 0x30000
 80047ac:	605a      	str	r2, [r3, #4]
 80047ae:	685a      	ldr	r2, [r3, #4]
 80047b0:	6861      	ldr	r1, [r4, #4]
 80047b2:	430a      	orrs	r2, r1
 80047b4:	605a      	str	r2, [r3, #4]
 80047b6:	6823      	ldr	r3, [r4, #0]
 80047b8:	6921      	ldr	r1, [r4, #16]
 80047ba:	685a      	ldr	r2, [r3, #4]
 80047bc:	f422 7280 	bic.w	r2, r2, #256	; 0x100
 80047c0:	605a      	str	r2, [r3, #4]
 80047c2:	685a      	ldr	r2, [r3, #4]
 80047c4:	ea42 2201 	orr.w	r2, r2, r1, lsl #8
 80047c8:	605a      	str	r2, [r3, #4]
 80047ca:	685a      	ldr	r2, [r3, #4]
 80047cc:	68a1      	ldr	r1, [r4, #8]
 80047ce:	f022 7240 	bic.w	r2, r2, #50331648	; 0x3000000
 80047d2:	605a      	str	r2, [r3, #4]
 80047d4:	685a      	ldr	r2, [r3, #4]
 80047d6:	430a      	orrs	r2, r1
 80047d8:	605a      	str	r2, [r3, #4]
 80047da:	689a      	ldr	r2, [r3, #8]
 80047dc:	68e1      	ldr	r1, [r4, #12]
 80047de:	f422 6200 	bic.w	r2, r2, #2048	; 0x800
 80047e2:	609a      	str	r2, [r3, #8]
 80047e4:	689a      	ldr	r2, [r3, #8]
 80047e6:	430a      	orrs	r2, r1
 80047e8:	609a      	str	r2, [r3, #8]
 80047ea:	4934      	ldr	r1, [pc, #208]	; (80048bc <HAL_ADC_Init+0x148>)
 80047ec:	6aa2      	ldr	r2, [r4, #40]	; 0x28
 80047ee:	428a      	cmp	r2, r1
 80047f0:	d052      	beq.n	8004898 <HAL_ADC_Init+0x124>
 80047f2:	6899      	ldr	r1, [r3, #8]
 80047f4:	f021 6170 	bic.w	r1, r1, #251658240	; 0xf000000
 80047f8:	6099      	str	r1, [r3, #8]
 80047fa:	6899      	ldr	r1, [r3, #8]
 80047fc:	430a      	orrs	r2, r1
 80047fe:	609a      	str	r2, [r3, #8]
 8004800:	689a      	ldr	r2, [r3, #8]
 8004802:	6ae1      	ldr	r1, [r4, #44]	; 0x2c
 8004804:	f022 5240 	bic.w	r2, r2, #805306368	; 0x30000000
 8004808:	609a      	str	r2, [r3, #8]
 800480a:	689a      	ldr	r2, [r3, #8]
 800480c:	430a      	orrs	r2, r1
 800480e:	609a      	str	r2, [r3, #8]
 8004810:	689a      	ldr	r2, [r3, #8]
 8004812:	7e21      	ldrb	r1, [r4, #24]
 8004814:	f022 0202 	bic.w	r2, r2, #2
 8004818:	609a      	str	r2, [r3, #8]
 800481a:	689a      	ldr	r2, [r3, #8]
 800481c:	ea42 0241 	orr.w	r2, r2, r1, lsl #1
 8004820:	609a      	str	r2, [r3, #8]
 8004822:	f894 2020 	ldrb.w	r2, [r4, #32]
 8004826:	2a00      	cmp	r2, #0
 8004828:	d03e      	beq.n	80048a8 <HAL_ADC_Init+0x134>
 800482a:	685a      	ldr	r2, [r3, #4]
 800482c:	6a61      	ldr	r1, [r4, #36]	; 0x24
 800482e:	f442 6200 	orr.w	r2, r2, #2048	; 0x800
 8004832:	605a      	str	r2, [r3, #4]
 8004834:	685a      	ldr	r2, [r3, #4]
 8004836:	f422 4260 	bic.w	r2, r2, #57344	; 0xe000
 800483a:	605a      	str	r2, [r3, #4]
 800483c:	685a      	ldr	r2, [r3, #4]
 800483e:	3901      	subs	r1, #1
 8004840:	ea42 3241 	orr.w	r2, r2, r1, lsl #13
 8004844:	605a      	str	r2, [r3, #4]
 8004846:	6ada      	ldr	r2, [r3, #44]	; 0x2c
 8004848:	69e1      	ldr	r1, [r4, #28]
 800484a:	f422 0270 	bic.w	r2, r2, #15728640	; 0xf00000
 800484e:	62da      	str	r2, [r3, #44]	; 0x2c
 8004850:	6ada      	ldr	r2, [r3, #44]	; 0x2c
 8004852:	3901      	subs	r1, #1
 8004854:	ea42 5201 	orr.w	r2, r2, r1, lsl #20
 8004858:	62da      	str	r2, [r3, #44]	; 0x2c
 800485a:	689a      	ldr	r2, [r3, #8]
 800485c:	f894 1030 	ldrb.w	r1, [r4, #48]	; 0x30
 8004860:	f422 7200 	bic.w	r2, r2, #512	; 0x200
 8004864:	609a      	str	r2, [r3, #8]
 8004866:	689a      	ldr	r2, [r3, #8]
 8004868:	ea42 2241 	orr.w	r2, r2, r1, lsl #9
 800486c:	609a      	str	r2, [r3, #8]
 800486e:	689a      	ldr	r2, [r3, #8]
 8004870:	6961      	ldr	r1, [r4, #20]
 8004872:	f422 6280 	bic.w	r2, r2, #1024	; 0x400
 8004876:	609a      	str	r2, [r3, #8]
 8004878:	689a      	ldr	r2, [r3, #8]
 800487a:	2000      	movs	r0, #0
 800487c:	ea42 2281 	orr.w	r2, r2, r1, lsl #10
 8004880:	609a      	str	r2, [r3, #8]
 8004882:	6460      	str	r0, [r4, #68]	; 0x44
 8004884:	6c23      	ldr	r3, [r4, #64]	; 0x40
 8004886:	f023 0303 	bic.w	r3, r3, #3
 800488a:	f043 0301 	orr.w	r3, r3, #1
 800488e:	6423      	str	r3, [r4, #64]	; 0x40
 8004890:	2300      	movs	r3, #0
 8004892:	f884 303c 	strb.w	r3, [r4, #60]	; 0x3c
 8004896:	bd38      	pop	{r3, r4, r5, pc}
 8004898:	689a      	ldr	r2, [r3, #8]
 800489a:	f022 6270 	bic.w	r2, r2, #251658240	; 0xf000000
 800489e:	609a      	str	r2, [r3, #8]
 80048a0:	689a      	ldr	r2, [r3, #8]
 80048a2:	f022 5240 	bic.w	r2, r2, #805306368	; 0x30000000
 80048a6:	e7b2      	b.n	800480e <HAL_ADC_Init+0x9a>
 80048a8:	685a      	ldr	r2, [r3, #4]
 80048aa:	f422 6200 	bic.w	r2, r2, #2048	; 0x800
 80048ae:	e7c9      	b.n	8004844 <HAL_ADC_Init+0xd0>
 80048b0:	2001      	movs	r0, #1
 80048b2:	e7ed      	b.n	8004890 <HAL_ADC_Init+0x11c>
 80048b4:	2001      	movs	r0, #1
 80048b6:	e7ee      	b.n	8004896 <HAL_ADC_Init+0x122>
 80048b8:	40012300 	.word	0x40012300
 80048bc:	0f000001 	.word	0x0f000001

080048c0 <HAL_ADC_Start_DMA>:
 80048c0:	b537      	push	{r0, r1, r2, r4, r5, lr}
 80048c2:	4613      	mov	r3, r2
 80048c4:	2200      	movs	r2, #0
 80048c6:	9201      	str	r2, [sp, #4]
 80048c8:	f890 203c 	ldrb.w	r2, [r0, #60]	; 0x3c
 80048cc:	2a01      	cmp	r2, #1
 80048ce:	4604      	mov	r4, r0
 80048d0:	d065      	beq.n	800499e <HAL_ADC_Start_DMA+0xde>
 80048d2:	6805      	ldr	r5, [r0, #0]
 80048d4:	2201      	movs	r2, #1
 80048d6:	f880 203c 	strb.w	r2, [r0, #60]	; 0x3c
 80048da:	68aa      	ldr	r2, [r5, #8]
 80048dc:	07d2      	lsls	r2, r2, #31
 80048de:	d505      	bpl.n	80048ec <HAL_ADC_Start_DMA+0x2c>
 80048e0:	68aa      	ldr	r2, [r5, #8]
 80048e2:	07d0      	lsls	r0, r2, #31
 80048e4:	d415      	bmi.n	8004912 <HAL_ADC_Start_DMA+0x52>
 80048e6:	2000      	movs	r0, #0
 80048e8:	b003      	add	sp, #12
 80048ea:	bd30      	pop	{r4, r5, pc}
 80048ec:	68aa      	ldr	r2, [r5, #8]
 80048ee:	f042 0201 	orr.w	r2, r2, #1
 80048f2:	60aa      	str	r2, [r5, #8]
 80048f4:	4a2b      	ldr	r2, [pc, #172]	; (80049a4 <HAL_ADC_Start_DMA+0xe4>)
 80048f6:	6810      	ldr	r0, [r2, #0]
 80048f8:	4a2b      	ldr	r2, [pc, #172]	; (80049a8 <HAL_ADC_Start_DMA+0xe8>)
 80048fa:	fbb0 f0f2 	udiv	r0, r0, r2
 80048fe:	eb00 0040 	add.w	r0, r0, r0, lsl #1
 8004902:	9001      	str	r0, [sp, #4]
 8004904:	9a01      	ldr	r2, [sp, #4]
 8004906:	2a00      	cmp	r2, #0
 8004908:	d0ea      	beq.n	80048e0 <HAL_ADC_Start_DMA+0x20>
 800490a:	9a01      	ldr	r2, [sp, #4]
 800490c:	3a01      	subs	r2, #1
 800490e:	9201      	str	r2, [sp, #4]
 8004910:	e7f8      	b.n	8004904 <HAL_ADC_Start_DMA+0x44>
 8004912:	6c20      	ldr	r0, [r4, #64]	; 0x40
 8004914:	f420 60e0 	bic.w	r0, r0, #1792	; 0x700
 8004918:	f020 0001 	bic.w	r0, r0, #1
 800491c:	f440 7080 	orr.w	r0, r0, #256	; 0x100
 8004920:	6420      	str	r0, [r4, #64]	; 0x40
 8004922:	686a      	ldr	r2, [r5, #4]
 8004924:	0552      	lsls	r2, r2, #21
 8004926:	bf41      	itttt	mi
 8004928:	6c20      	ldrmi	r0, [r4, #64]	; 0x40
 800492a:	f420 5040 	bicmi.w	r0, r0, #12288	; 0x3000
 800492e:	f440 5080 	orrmi.w	r0, r0, #4096	; 0x1000
 8004932:	6420      	strmi	r0, [r4, #64]	; 0x40
 8004934:	6c22      	ldr	r2, [r4, #64]	; 0x40
 8004936:	6ba0      	ldr	r0, [r4, #56]	; 0x38
 8004938:	f412 5280 	ands.w	r2, r2, #4096	; 0x1000
 800493c:	bf1c      	itt	ne
 800493e:	6c62      	ldrne	r2, [r4, #68]	; 0x44
 8004940:	f022 0206 	bicne.w	r2, r2, #6
 8004944:	6462      	str	r2, [r4, #68]	; 0x44
 8004946:	2200      	movs	r2, #0
 8004948:	f884 203c 	strb.w	r2, [r4, #60]	; 0x3c
 800494c:	4a17      	ldr	r2, [pc, #92]	; (80049ac <HAL_ADC_Start_DMA+0xec>)
 800494e:	63c2      	str	r2, [r0, #60]	; 0x3c
 8004950:	4a17      	ldr	r2, [pc, #92]	; (80049b0 <HAL_ADC_Start_DMA+0xf0>)
 8004952:	6402      	str	r2, [r0, #64]	; 0x40
 8004954:	4a17      	ldr	r2, [pc, #92]	; (80049b4 <HAL_ADC_Start_DMA+0xf4>)
 8004956:	64c2      	str	r2, [r0, #76]	; 0x4c
 8004958:	f06f 0222 	mvn.w	r2, #34	; 0x22
 800495c:	602a      	str	r2, [r5, #0]
 800495e:	686a      	ldr	r2, [r5, #4]
 8004960:	f042 6280 	orr.w	r2, r2, #67108864	; 0x4000000
 8004964:	606a      	str	r2, [r5, #4]
 8004966:	68aa      	ldr	r2, [r5, #8]
 8004968:	f442 7280 	orr.w	r2, r2, #256	; 0x100
 800496c:	60aa      	str	r2, [r5, #8]
 800496e:	460a      	mov	r2, r1
 8004970:	f105 014c 	add.w	r1, r5, #76	; 0x4c
 8004974:	f000 fa0a 	bl	8004d8c <HAL_DMA_Start_IT>
 8004978:	4b0f      	ldr	r3, [pc, #60]	; (80049b8 <HAL_ADC_Start_DMA+0xf8>)
 800497a:	685b      	ldr	r3, [r3, #4]
 800497c:	f013 0f1f 	tst.w	r3, #31
 8004980:	6823      	ldr	r3, [r4, #0]
 8004982:	d108      	bne.n	8004996 <HAL_ADC_Start_DMA+0xd6>
 8004984:	6898      	ldr	r0, [r3, #8]
 8004986:	f010 5040 	ands.w	r0, r0, #805306368	; 0x30000000
 800498a:	d1ac      	bne.n	80048e6 <HAL_ADC_Start_DMA+0x26>
 800498c:	689a      	ldr	r2, [r3, #8]
 800498e:	f042 4280 	orr.w	r2, r2, #1073741824	; 0x40000000
 8004992:	609a      	str	r2, [r3, #8]
 8004994:	e7a8      	b.n	80048e8 <HAL_ADC_Start_DMA+0x28>
 8004996:	4a09      	ldr	r2, [pc, #36]	; (80049bc <HAL_ADC_Start_DMA+0xfc>)
 8004998:	4293      	cmp	r3, r2
 800499a:	d1a4      	bne.n	80048e6 <HAL_ADC_Start_DMA+0x26>
 800499c:	e7f2      	b.n	8004984 <HAL_ADC_Start_DMA+0xc4>
 800499e:	2002      	movs	r0, #2
 80049a0:	e7a2      	b.n	80048e8 <HAL_ADC_Start_DMA+0x28>
 80049a2:	bf00      	nop
 80049a4:	20000000 	.word	0x20000000
 80049a8:	000f4240 	.word	0x000f4240
 80049ac:	080049e7 	.word	0x080049e7
 80049b0:	080049c5 	.word	0x080049c5
 80049b4:	080049d1 	.word	0x080049d1
 80049b8:	40012300 	.word	0x40012300
 80049bc:	40012000 	.word	0x40012000

080049c0 <HAL_ADC_ConvCpltCallback>:
 80049c0:	4770      	bx	lr

080049c2 <HAL_ADC_ConvHalfCpltCallback>:
 80049c2:	4770      	bx	lr

080049c4 <ADC_DMAHalfConvCplt>:
 80049c4:	b508      	push	{r3, lr}
 80049c6:	6b80      	ldr	r0, [r0, #56]	; 0x38
 80049c8:	f7ff fffb 	bl	80049c2 <HAL_ADC_ConvHalfCpltCallback>
 80049cc:	bd08      	pop	{r3, pc}

080049ce <HAL_ADC_ErrorCallback>:
 80049ce:	4770      	bx	lr

080049d0 <ADC_DMAError>:
 80049d0:	6b80      	ldr	r0, [r0, #56]	; 0x38
 80049d2:	b508      	push	{r3, lr}
 80049d4:	2340      	movs	r3, #64	; 0x40
 80049d6:	6403      	str	r3, [r0, #64]	; 0x40
 80049d8:	6c43      	ldr	r3, [r0, #68]	; 0x44
 80049da:	f043 0304 	orr.w	r3, r3, #4
 80049de:	6443      	str	r3, [r0, #68]	; 0x44
 80049e0:	f7ff fff5 	bl	80049ce <HAL_ADC_ErrorCallback>
 80049e4:	bd08      	pop	{r3, pc}

080049e6 <ADC_DMAConvCplt>:
 80049e6:	6b83      	ldr	r3, [r0, #56]	; 0x38
 80049e8:	6c1a      	ldr	r2, [r3, #64]	; 0x40
 80049ea:	f012 0f50 	tst.w	r2, #80	; 0x50
 80049ee:	b510      	push	{r4, lr}
 80049f0:	6c1a      	ldr	r2, [r3, #64]	; 0x40
 80049f2:	d123      	bne.n	8004a3c <ADC_DMAConvCplt+0x56>
 80049f4:	f442 7200 	orr.w	r2, r2, #512	; 0x200
 80049f8:	641a      	str	r2, [r3, #64]	; 0x40
 80049fa:	681a      	ldr	r2, [r3, #0]
 80049fc:	6891      	ldr	r1, [r2, #8]
 80049fe:	f011 5f40 	tst.w	r1, #805306368	; 0x30000000
 8004a02:	d117      	bne.n	8004a34 <ADC_DMAConvCplt+0x4e>
 8004a04:	7e19      	ldrb	r1, [r3, #24]
 8004a06:	b9a9      	cbnz	r1, 8004a34 <ADC_DMAConvCplt+0x4e>
 8004a08:	6ad1      	ldr	r1, [r2, #44]	; 0x2c
 8004a0a:	f411 0f70 	tst.w	r1, #15728640	; 0xf00000
 8004a0e:	d002      	beq.n	8004a16 <ADC_DMAConvCplt+0x30>
 8004a10:	6891      	ldr	r1, [r2, #8]
 8004a12:	0548      	lsls	r0, r1, #21
 8004a14:	d40e      	bmi.n	8004a34 <ADC_DMAConvCplt+0x4e>
 8004a16:	6851      	ldr	r1, [r2, #4]
 8004a18:	f021 0120 	bic.w	r1, r1, #32
 8004a1c:	6051      	str	r1, [r2, #4]
 8004a1e:	6c1a      	ldr	r2, [r3, #64]	; 0x40
 8004a20:	f422 7280 	bic.w	r2, r2, #256	; 0x100
 8004a24:	641a      	str	r2, [r3, #64]	; 0x40
 8004a26:	6c1a      	ldr	r2, [r3, #64]	; 0x40
 8004a28:	04d1      	lsls	r1, r2, #19
 8004a2a:	bf5e      	ittt	pl
 8004a2c:	6c1a      	ldrpl	r2, [r3, #64]	; 0x40
 8004a2e:	f042 0201 	orrpl.w	r2, r2, #1
 8004a32:	641a      	strpl	r2, [r3, #64]	; 0x40
 8004a34:	4618      	mov	r0, r3
 8004a36:	f7ff ffc3 	bl	80049c0 <HAL_ADC_ConvCpltCallback>
 8004a3a:	bd10      	pop	{r4, pc}
 8004a3c:	06d2      	lsls	r2, r2, #27
 8004a3e:	d503      	bpl.n	8004a48 <ADC_DMAConvCplt+0x62>
 8004a40:	4618      	mov	r0, r3
 8004a42:	f7ff ffc4 	bl	80049ce <HAL_ADC_ErrorCallback>
 8004a46:	e7f8      	b.n	8004a3a <ADC_DMAConvCplt+0x54>
 8004a48:	6b9b      	ldr	r3, [r3, #56]	; 0x38
 8004a4a:	e8bd 4010 	ldmia.w	sp!, {r4, lr}
 8004a4e:	6cdb      	ldr	r3, [r3, #76]	; 0x4c
 8004a50:	4718      	bx	r3
	...

08004a54 <HAL_ADC_ConfigChannel>:
 8004a54:	b5f7      	push	{r0, r1, r2, r4, r5, r6, r7, lr}
 8004a56:	2300      	movs	r3, #0
 8004a58:	9301      	str	r3, [sp, #4]
 8004a5a:	f890 303c 	ldrb.w	r3, [r0, #60]	; 0x3c
 8004a5e:	2b01      	cmp	r3, #1
 8004a60:	d06a      	beq.n	8004b38 <HAL_ADC_ConfigChannel+0xe4>
 8004a62:	680d      	ldr	r5, [r1, #0]
 8004a64:	688e      	ldr	r6, [r1, #8]
 8004a66:	2301      	movs	r3, #1
 8004a68:	2d09      	cmp	r5, #9
 8004a6a:	f880 303c 	strb.w	r3, [r0, #60]	; 0x3c
 8004a6e:	b2ac      	uxth	r4, r5
 8004a70:	6803      	ldr	r3, [r0, #0]
 8004a72:	d929      	bls.n	8004ac8 <HAL_ADC_ConfigChannel+0x74>
 8004a74:	eb04 0244 	add.w	r2, r4, r4, lsl #1
 8004a78:	68df      	ldr	r7, [r3, #12]
 8004a7a:	3a1e      	subs	r2, #30
 8004a7c:	f04f 0c07 	mov.w	ip, #7
 8004a80:	fa0c fc02 	lsl.w	ip, ip, r2
 8004a84:	ea27 070c 	bic.w	r7, r7, ip
 8004a88:	60df      	str	r7, [r3, #12]
 8004a8a:	68df      	ldr	r7, [r3, #12]
 8004a8c:	fa06 f202 	lsl.w	r2, r6, r2
 8004a90:	433a      	orrs	r2, r7
 8004a92:	60da      	str	r2, [r3, #12]
 8004a94:	6849      	ldr	r1, [r1, #4]
 8004a96:	2906      	cmp	r1, #6
 8004a98:	eb01 0281 	add.w	r2, r1, r1, lsl #2
 8004a9c:	d824      	bhi.n	8004ae8 <HAL_ADC_ConfigChannel+0x94>
 8004a9e:	6b59      	ldr	r1, [r3, #52]	; 0x34
 8004aa0:	3a05      	subs	r2, #5
 8004aa2:	261f      	movs	r6, #31
 8004aa4:	4096      	lsls	r6, r2
 8004aa6:	ea21 0106 	bic.w	r1, r1, r6
 8004aaa:	6359      	str	r1, [r3, #52]	; 0x34
 8004aac:	6b59      	ldr	r1, [r3, #52]	; 0x34
 8004aae:	fa04 f202 	lsl.w	r2, r4, r2
 8004ab2:	430a      	orrs	r2, r1
 8004ab4:	635a      	str	r2, [r3, #52]	; 0x34
 8004ab6:	4a31      	ldr	r2, [pc, #196]	; (8004b7c <HAL_ADC_ConfigChannel+0x128>)
 8004ab8:	4293      	cmp	r3, r2
 8004aba:	d031      	beq.n	8004b20 <HAL_ADC_ConfigChannel+0xcc>
 8004abc:	2300      	movs	r3, #0
 8004abe:	f880 303c 	strb.w	r3, [r0, #60]	; 0x3c
 8004ac2:	4618      	mov	r0, r3
 8004ac4:	b003      	add	sp, #12
 8004ac6:	bdf0      	pop	{r4, r5, r6, r7, pc}
 8004ac8:	691f      	ldr	r7, [r3, #16]
 8004aca:	eb05 0245 	add.w	r2, r5, r5, lsl #1
 8004ace:	f04f 0c07 	mov.w	ip, #7
 8004ad2:	fa0c fc02 	lsl.w	ip, ip, r2
 8004ad6:	ea27 070c 	bic.w	r7, r7, ip
 8004ada:	611f      	str	r7, [r3, #16]
 8004adc:	691f      	ldr	r7, [r3, #16]
 8004ade:	fa06 f202 	lsl.w	r2, r6, r2
 8004ae2:	433a      	orrs	r2, r7
 8004ae4:	611a      	str	r2, [r3, #16]
 8004ae6:	e7d5      	b.n	8004a94 <HAL_ADC_ConfigChannel+0x40>
 8004ae8:	290c      	cmp	r1, #12
 8004aea:	f04f 011f 	mov.w	r1, #31
 8004aee:	d80b      	bhi.n	8004b08 <HAL_ADC_ConfigChannel+0xb4>
 8004af0:	6b1e      	ldr	r6, [r3, #48]	; 0x30
 8004af2:	3a23      	subs	r2, #35	; 0x23
 8004af4:	4091      	lsls	r1, r2
 8004af6:	ea26 0101 	bic.w	r1, r6, r1
 8004afa:	6319      	str	r1, [r3, #48]	; 0x30
 8004afc:	6b19      	ldr	r1, [r3, #48]	; 0x30
 8004afe:	fa04 f202 	lsl.w	r2, r4, r2
 8004b02:	430a      	orrs	r2, r1
 8004b04:	631a      	str	r2, [r3, #48]	; 0x30
 8004b06:	e7d6      	b.n	8004ab6 <HAL_ADC_ConfigChannel+0x62>
 8004b08:	6ade      	ldr	r6, [r3, #44]	; 0x2c
 8004b0a:	3a41      	subs	r2, #65	; 0x41
 8004b0c:	4091      	lsls	r1, r2
 8004b0e:	ea26 0101 	bic.w	r1, r6, r1
 8004b12:	62d9      	str	r1, [r3, #44]	; 0x2c
 8004b14:	6ad9      	ldr	r1, [r3, #44]	; 0x2c
 8004b16:	fa04 f202 	lsl.w	r2, r4, r2
 8004b1a:	430a      	orrs	r2, r1
 8004b1c:	62da      	str	r2, [r3, #44]	; 0x2c
 8004b1e:	e7ca      	b.n	8004ab6 <HAL_ADC_ConfigChannel+0x62>
 8004b20:	2d12      	cmp	r5, #18
 8004b22:	d10b      	bne.n	8004b3c <HAL_ADC_ConfigChannel+0xe8>
 8004b24:	4b16      	ldr	r3, [pc, #88]	; (8004b80 <HAL_ADC_ConfigChannel+0x12c>)
 8004b26:	685a      	ldr	r2, [r3, #4]
 8004b28:	f422 0200 	bic.w	r2, r2, #8388608	; 0x800000
 8004b2c:	605a      	str	r2, [r3, #4]
 8004b2e:	685a      	ldr	r2, [r3, #4]
 8004b30:	f442 0280 	orr.w	r2, r2, #4194304	; 0x400000
 8004b34:	605a      	str	r2, [r3, #4]
 8004b36:	e7c1      	b.n	8004abc <HAL_ADC_ConfigChannel+0x68>
 8004b38:	2002      	movs	r0, #2
 8004b3a:	e7c3      	b.n	8004ac4 <HAL_ADC_ConfigChannel+0x70>
 8004b3c:	4b11      	ldr	r3, [pc, #68]	; (8004b84 <HAL_ADC_ConfigChannel+0x130>)
 8004b3e:	429d      	cmp	r5, r3
 8004b40:	d001      	beq.n	8004b46 <HAL_ADC_ConfigChannel+0xf2>
 8004b42:	2d11      	cmp	r5, #17
 8004b44:	d1ba      	bne.n	8004abc <HAL_ADC_ConfigChannel+0x68>
 8004b46:	4b0e      	ldr	r3, [pc, #56]	; (8004b80 <HAL_ADC_ConfigChannel+0x12c>)
 8004b48:	685a      	ldr	r2, [r3, #4]
 8004b4a:	f422 0280 	bic.w	r2, r2, #4194304	; 0x400000
 8004b4e:	605a      	str	r2, [r3, #4]
 8004b50:	685a      	ldr	r2, [r3, #4]
 8004b52:	f442 0200 	orr.w	r2, r2, #8388608	; 0x800000
 8004b56:	605a      	str	r2, [r3, #4]
 8004b58:	4b0a      	ldr	r3, [pc, #40]	; (8004b84 <HAL_ADC_ConfigChannel+0x130>)
 8004b5a:	429d      	cmp	r5, r3
 8004b5c:	d1ae      	bne.n	8004abc <HAL_ADC_ConfigChannel+0x68>
 8004b5e:	4b0a      	ldr	r3, [pc, #40]	; (8004b88 <HAL_ADC_ConfigChannel+0x134>)
 8004b60:	4a0a      	ldr	r2, [pc, #40]	; (8004b8c <HAL_ADC_ConfigChannel+0x138>)
 8004b62:	681b      	ldr	r3, [r3, #0]
 8004b64:	fbb3 f2f2 	udiv	r2, r3, r2
 8004b68:	230a      	movs	r3, #10
 8004b6a:	4353      	muls	r3, r2
 8004b6c:	9301      	str	r3, [sp, #4]
 8004b6e:	9b01      	ldr	r3, [sp, #4]
 8004b70:	2b00      	cmp	r3, #0
 8004b72:	d0a3      	beq.n	8004abc <HAL_ADC_ConfigChannel+0x68>
 8004b74:	9b01      	ldr	r3, [sp, #4]
 8004b76:	3b01      	subs	r3, #1
 8004b78:	e7f8      	b.n	8004b6c <HAL_ADC_ConfigChannel+0x118>
 8004b7a:	bf00      	nop
 8004b7c:	40012000 	.word	0x40012000
 8004b80:	40012300 	.word	0x40012300
 8004b84:	10000012 	.word	0x10000012
 8004b88:	20000000 	.word	0x20000000
 8004b8c:	000f4240 	.word	0x000f4240

08004b90 <HAL_NVIC_SetPriorityGrouping>:
 8004b90:	4a07      	ldr	r2, [pc, #28]	; (8004bb0 <HAL_NVIC_SetPriorityGrouping+0x20>)
 8004b92:	68d3      	ldr	r3, [r2, #12]
 8004b94:	f423 63e0 	bic.w	r3, r3, #1792	; 0x700
 8004b98:	041b      	lsls	r3, r3, #16
 8004b9a:	0c1b      	lsrs	r3, r3, #16
 8004b9c:	f043 63bf 	orr.w	r3, r3, #100139008	; 0x5f80000
 8004ba0:	0200      	lsls	r0, r0, #8
 8004ba2:	f443 3300 	orr.w	r3, r3, #131072	; 0x20000
 8004ba6:	f400 60e0 	and.w	r0, r0, #1792	; 0x700
 8004baa:	4303      	orrs	r3, r0
 8004bac:	60d3      	str	r3, [r2, #12]
 8004bae:	4770      	bx	lr
 8004bb0:	e000ed00 	.word	0xe000ed00

08004bb4 <HAL_NVIC_SetPriority>:
 8004bb4:	4b17      	ldr	r3, [pc, #92]	; (8004c14 <HAL_NVIC_SetPriority+0x60>)
 8004bb6:	b570      	push	{r4, r5, r6, lr}
 8004bb8:	68dc      	ldr	r4, [r3, #12]
 8004bba:	f3c4 2402 	ubfx	r4, r4, #8, #3
 8004bbe:	f1c4 0507 	rsb	r5, r4, #7
 8004bc2:	2d04      	cmp	r5, #4
 8004bc4:	f104 0304 	add.w	r3, r4, #4
 8004bc8:	bf28      	it	cs
 8004bca:	2504      	movcs	r5, #4
 8004bcc:	f04f 36ff 	mov.w	r6, #4294967295
 8004bd0:	2b06      	cmp	r3, #6
 8004bd2:	fa06 f305 	lsl.w	r3, r6, r5
 8004bd6:	bf8c      	ite	hi
 8004bd8:	3c03      	subhi	r4, #3
 8004bda:	2400      	movls	r4, #0
 8004bdc:	ea21 0303 	bic.w	r3, r1, r3
 8004be0:	40a3      	lsls	r3, r4
 8004be2:	fa06 f404 	lsl.w	r4, r6, r4
 8004be6:	ea22 0404 	bic.w	r4, r2, r4
 8004bea:	2800      	cmp	r0, #0
 8004bec:	ea43 0304 	orr.w	r3, r3, r4
 8004bf0:	bfa8      	it	ge
 8004bf2:	f100 4060 	addge.w	r0, r0, #3758096384	; 0xe0000000
 8004bf6:	ea4f 1303 	mov.w	r3, r3, lsl #4
 8004bfa:	bfbc      	itt	lt
 8004bfc:	f000 000f 	andlt.w	r0, r0, #15
 8004c00:	4a05      	ldrlt	r2, [pc, #20]	; (8004c18 <HAL_NVIC_SetPriority+0x64>)
 8004c02:	b2db      	uxtb	r3, r3
 8004c04:	bfaa      	itet	ge
 8004c06:	f500 4061 	addge.w	r0, r0, #57600	; 0xe100
 8004c0a:	5413      	strblt	r3, [r2, r0]
 8004c0c:	f880 3300 	strbge.w	r3, [r0, #768]	; 0x300
 8004c10:	bd70      	pop	{r4, r5, r6, pc}
 8004c12:	bf00      	nop
 8004c14:	e000ed00 	.word	0xe000ed00
 8004c18:	e000ed14 	.word	0xe000ed14

08004c1c <HAL_NVIC_EnableIRQ>:
 8004c1c:	2800      	cmp	r0, #0
 8004c1e:	db08      	blt.n	8004c32 <HAL_NVIC_EnableIRQ+0x16>
 8004c20:	0942      	lsrs	r2, r0, #5
 8004c22:	2301      	movs	r3, #1
 8004c24:	f000 001f 	and.w	r0, r0, #31
 8004c28:	fa03 f000 	lsl.w	r0, r3, r0
 8004c2c:	4b01      	ldr	r3, [pc, #4]	; (8004c34 <HAL_NVIC_EnableIRQ+0x18>)
 8004c2e:	f843 0022 	str.w	r0, [r3, r2, lsl #2]
 8004c32:	4770      	bx	lr
 8004c34:	e000e100 	.word	0xe000e100

08004c38 <HAL_SYSTICK_Config>:
 8004c38:	3801      	subs	r0, #1
 8004c3a:	f1b0 7f80 	cmp.w	r0, #16777216	; 0x1000000
 8004c3e:	d20a      	bcs.n	8004c56 <HAL_SYSTICK_Config+0x1e>
 8004c40:	4b06      	ldr	r3, [pc, #24]	; (8004c5c <HAL_SYSTICK_Config+0x24>)
 8004c42:	4a07      	ldr	r2, [pc, #28]	; (8004c60 <HAL_SYSTICK_Config+0x28>)
 8004c44:	6058      	str	r0, [r3, #4]
 8004c46:	21f0      	movs	r1, #240	; 0xf0
 8004c48:	f882 1023 	strb.w	r1, [r2, #35]	; 0x23
 8004c4c:	2000      	movs	r0, #0
 8004c4e:	2207      	movs	r2, #7
 8004c50:	6098      	str	r0, [r3, #8]
 8004c52:	601a      	str	r2, [r3, #0]
 8004c54:	4770      	bx	lr
 8004c56:	2001      	movs	r0, #1
 8004c58:	4770      	bx	lr
 8004c5a:	bf00      	nop
 8004c5c:	e000e010 	.word	0xe000e010
 8004c60:	e000ed00 	.word	0xe000ed00

08004c64 <DMA_CalcBaseAndBitshift>:
 8004c64:	6803      	ldr	r3, [r0, #0]
 8004c66:	b2da      	uxtb	r2, r3
 8004c68:	f423 737f 	bic.w	r3, r3, #1020	; 0x3fc
 8004c6c:	f023 0303 	bic.w	r3, r3, #3
 8004c70:	2118      	movs	r1, #24
 8004c72:	3a10      	subs	r2, #16
 8004c74:	fbb2 f2f1 	udiv	r2, r2, r1
 8004c78:	4904      	ldr	r1, [pc, #16]	; (8004c8c <DMA_CalcBaseAndBitshift+0x28>)
 8004c7a:	2a03      	cmp	r2, #3
 8004c7c:	bf88      	it	hi
 8004c7e:	3304      	addhi	r3, #4
 8004c80:	5c89      	ldrb	r1, [r1, r2]
 8004c82:	6583      	str	r3, [r0, #88]	; 0x58
 8004c84:	65c1      	str	r1, [r0, #92]	; 0x5c
 8004c86:	6d80      	ldr	r0, [r0, #88]	; 0x58
 8004c88:	4770      	bx	lr
 8004c8a:	bf00      	nop
 8004c8c:	08007bde 	.word	0x08007bde

08004c90 <HAL_DMA_Init>:
 8004c90:	b570      	push	{r4, r5, r6, lr}
 8004c92:	4604      	mov	r4, r0
 8004c94:	f7ff fd54 	bl	8004740 <HAL_GetTick>
 8004c98:	4605      	mov	r5, r0
 8004c9a:	2c00      	cmp	r4, #0
 8004c9c:	d071      	beq.n	8004d82 <HAL_DMA_Init+0xf2>
 8004c9e:	2300      	movs	r3, #0
 8004ca0:	f884 3034 	strb.w	r3, [r4, #52]	; 0x34
 8004ca4:	6822      	ldr	r2, [r4, #0]
 8004ca6:	2302      	movs	r3, #2
 8004ca8:	f884 3035 	strb.w	r3, [r4, #53]	; 0x35
 8004cac:	6813      	ldr	r3, [r2, #0]
 8004cae:	f023 0301 	bic.w	r3, r3, #1
 8004cb2:	6013      	str	r3, [r2, #0]
 8004cb4:	6821      	ldr	r1, [r4, #0]
 8004cb6:	680b      	ldr	r3, [r1, #0]
 8004cb8:	07d8      	lsls	r0, r3, #31
 8004cba:	d43c      	bmi.n	8004d36 <HAL_DMA_Init+0xa6>
 8004cbc:	680b      	ldr	r3, [r1, #0]
 8004cbe:	4d32      	ldr	r5, [pc, #200]	; (8004d88 <HAL_DMA_Init+0xf8>)
 8004cc0:	69a0      	ldr	r0, [r4, #24]
 8004cc2:	401d      	ands	r5, r3
 8004cc4:	e9d4 2301 	ldrd	r2, r3, [r4, #4]
 8004cc8:	4313      	orrs	r3, r2
 8004cca:	68e2      	ldr	r2, [r4, #12]
 8004ccc:	4313      	orrs	r3, r2
 8004cce:	6922      	ldr	r2, [r4, #16]
 8004cd0:	4313      	orrs	r3, r2
 8004cd2:	6962      	ldr	r2, [r4, #20]
 8004cd4:	4313      	orrs	r3, r2
 8004cd6:	69e2      	ldr	r2, [r4, #28]
 8004cd8:	4303      	orrs	r3, r0
 8004cda:	4313      	orrs	r3, r2
 8004cdc:	6a22      	ldr	r2, [r4, #32]
 8004cde:	4313      	orrs	r3, r2
 8004ce0:	6a62      	ldr	r2, [r4, #36]	; 0x24
 8004ce2:	2a04      	cmp	r2, #4
 8004ce4:	ea43 0305 	orr.w	r3, r3, r5
 8004ce8:	bf02      	ittt	eq
 8004cea:	e9d4 560b 	ldrdeq	r5, r6, [r4, #44]	; 0x2c
 8004cee:	4335      	orreq	r5, r6
 8004cf0:	432b      	orreq	r3, r5
 8004cf2:	600b      	str	r3, [r1, #0]
 8004cf4:	694b      	ldr	r3, [r1, #20]
 8004cf6:	2a04      	cmp	r2, #4
 8004cf8:	f023 0307 	bic.w	r3, r3, #7
 8004cfc:	ea43 0302 	orr.w	r3, r3, r2
 8004d00:	d10b      	bne.n	8004d1a <HAL_DMA_Init+0x8a>
 8004d02:	6aa2      	ldr	r2, [r4, #40]	; 0x28
 8004d04:	6ae5      	ldr	r5, [r4, #44]	; 0x2c
 8004d06:	4313      	orrs	r3, r2
 8004d08:	b13d      	cbz	r5, 8004d1a <HAL_DMA_Init+0x8a>
 8004d0a:	b9f8      	cbnz	r0, 8004d4c <HAL_DMA_Init+0xbc>
 8004d0c:	2a01      	cmp	r2, #1
 8004d0e:	d02d      	beq.n	8004d6c <HAL_DMA_Init+0xdc>
 8004d10:	d301      	bcc.n	8004d16 <HAL_DMA_Init+0x86>
 8004d12:	2a02      	cmp	r2, #2
 8004d14:	d101      	bne.n	8004d1a <HAL_DMA_Init+0x8a>
 8004d16:	01ea      	lsls	r2, r5, #7
 8004d18:	d42b      	bmi.n	8004d72 <HAL_DMA_Init+0xe2>
 8004d1a:	614b      	str	r3, [r1, #20]
 8004d1c:	4620      	mov	r0, r4
 8004d1e:	f7ff ffa1 	bl	8004c64 <DMA_CalcBaseAndBitshift>
 8004d22:	6de2      	ldr	r2, [r4, #92]	; 0x5c
 8004d24:	233f      	movs	r3, #63	; 0x3f
 8004d26:	4093      	lsls	r3, r2
 8004d28:	6083      	str	r3, [r0, #8]
 8004d2a:	2000      	movs	r0, #0
 8004d2c:	2301      	movs	r3, #1
 8004d2e:	6560      	str	r0, [r4, #84]	; 0x54
 8004d30:	f884 3035 	strb.w	r3, [r4, #53]	; 0x35
 8004d34:	e009      	b.n	8004d4a <HAL_DMA_Init+0xba>
 8004d36:	f7ff fd03 	bl	8004740 <HAL_GetTick>
 8004d3a:	1b40      	subs	r0, r0, r5
 8004d3c:	2805      	cmp	r0, #5
 8004d3e:	d9b9      	bls.n	8004cb4 <HAL_DMA_Init+0x24>
 8004d40:	2320      	movs	r3, #32
 8004d42:	6563      	str	r3, [r4, #84]	; 0x54
 8004d44:	2003      	movs	r0, #3
 8004d46:	f884 0035 	strb.w	r0, [r4, #53]	; 0x35
 8004d4a:	bd70      	pop	{r4, r5, r6, pc}
 8004d4c:	f5b0 5f00 	cmp.w	r0, #8192	; 0x2000
 8004d50:	d113      	bne.n	8004d7a <HAL_DMA_Init+0xea>
 8004d52:	2a03      	cmp	r2, #3
 8004d54:	d8e1      	bhi.n	8004d1a <HAL_DMA_Init+0x8a>
 8004d56:	a001      	add	r0, pc, #4	; (adr r0, 8004d5c <HAL_DMA_Init+0xcc>)
 8004d58:	f850 f022 	ldr.w	pc, [r0, r2, lsl #2]
 8004d5c:	08004d73 	.word	0x08004d73
 8004d60:	08004d17 	.word	0x08004d17
 8004d64:	08004d73 	.word	0x08004d73
 8004d68:	08004d6d 	.word	0x08004d6d
 8004d6c:	f1b5 7fc0 	cmp.w	r5, #25165824	; 0x1800000
 8004d70:	d1d3      	bne.n	8004d1a <HAL_DMA_Init+0x8a>
 8004d72:	2340      	movs	r3, #64	; 0x40
 8004d74:	6563      	str	r3, [r4, #84]	; 0x54
 8004d76:	2001      	movs	r0, #1
 8004d78:	e7e5      	b.n	8004d46 <HAL_DMA_Init+0xb6>
 8004d7a:	2a02      	cmp	r2, #2
 8004d7c:	d9f9      	bls.n	8004d72 <HAL_DMA_Init+0xe2>
 8004d7e:	2a03      	cmp	r2, #3
 8004d80:	e7c8      	b.n	8004d14 <HAL_DMA_Init+0x84>
 8004d82:	2001      	movs	r0, #1
 8004d84:	e7e1      	b.n	8004d4a <HAL_DMA_Init+0xba>
 8004d86:	bf00      	nop
 8004d88:	f010803f 	.word	0xf010803f

08004d8c <HAL_DMA_Start_IT>:
 8004d8c:	b570      	push	{r4, r5, r6, lr}
 8004d8e:	f890 4034 	ldrb.w	r4, [r0, #52]	; 0x34
 8004d92:	2c01      	cmp	r4, #1
 8004d94:	d032      	beq.n	8004dfc <HAL_DMA_Start_IT+0x70>
 8004d96:	2401      	movs	r4, #1
 8004d98:	f880 4034 	strb.w	r4, [r0, #52]	; 0x34
 8004d9c:	f890 4035 	ldrb.w	r4, [r0, #53]	; 0x35
 8004da0:	6d86      	ldr	r6, [r0, #88]	; 0x58
 8004da2:	2c01      	cmp	r4, #1
 8004da4:	f04f 0500 	mov.w	r5, #0
 8004da8:	f04f 0402 	mov.w	r4, #2
 8004dac:	d124      	bne.n	8004df8 <HAL_DMA_Start_IT+0x6c>
 8004dae:	f880 4035 	strb.w	r4, [r0, #53]	; 0x35
 8004db2:	6804      	ldr	r4, [r0, #0]
 8004db4:	6545      	str	r5, [r0, #84]	; 0x54
 8004db6:	6825      	ldr	r5, [r4, #0]
 8004db8:	f425 2580 	bic.w	r5, r5, #262144	; 0x40000
 8004dbc:	6025      	str	r5, [r4, #0]
 8004dbe:	6063      	str	r3, [r4, #4]
 8004dc0:	6883      	ldr	r3, [r0, #8]
 8004dc2:	2b40      	cmp	r3, #64	; 0x40
 8004dc4:	bf0e      	itee	eq
 8004dc6:	60a2      	streq	r2, [r4, #8]
 8004dc8:	60a1      	strne	r1, [r4, #8]
 8004dca:	60e2      	strne	r2, [r4, #12]
 8004dcc:	6dc2      	ldr	r2, [r0, #92]	; 0x5c
 8004dce:	bf08      	it	eq
 8004dd0:	60e1      	streq	r1, [r4, #12]
 8004dd2:	233f      	movs	r3, #63	; 0x3f
 8004dd4:	4093      	lsls	r3, r2
 8004dd6:	60b3      	str	r3, [r6, #8]
 8004dd8:	6823      	ldr	r3, [r4, #0]
 8004dda:	f043 0316 	orr.w	r3, r3, #22
 8004dde:	6023      	str	r3, [r4, #0]
 8004de0:	6c03      	ldr	r3, [r0, #64]	; 0x40
 8004de2:	b11b      	cbz	r3, 8004dec <HAL_DMA_Start_IT+0x60>
 8004de4:	6823      	ldr	r3, [r4, #0]
 8004de6:	f043 0308 	orr.w	r3, r3, #8
 8004dea:	6023      	str	r3, [r4, #0]
 8004dec:	6823      	ldr	r3, [r4, #0]
 8004dee:	f043 0301 	orr.w	r3, r3, #1
 8004df2:	6023      	str	r3, [r4, #0]
 8004df4:	2000      	movs	r0, #0
 8004df6:	bd70      	pop	{r4, r5, r6, pc}
 8004df8:	f880 5034 	strb.w	r5, [r0, #52]	; 0x34
 8004dfc:	2002      	movs	r0, #2
 8004dfe:	e7fa      	b.n	8004df6 <HAL_DMA_Start_IT+0x6a>

08004e00 <HAL_DMA_Abort_IT>:
 8004e00:	f890 3035 	ldrb.w	r3, [r0, #53]	; 0x35
 8004e04:	2b02      	cmp	r3, #2
 8004e06:	d003      	beq.n	8004e10 <HAL_DMA_Abort_IT+0x10>
 8004e08:	2380      	movs	r3, #128	; 0x80
 8004e0a:	6543      	str	r3, [r0, #84]	; 0x54
 8004e0c:	2001      	movs	r0, #1
 8004e0e:	4770      	bx	lr
 8004e10:	6802      	ldr	r2, [r0, #0]
 8004e12:	2305      	movs	r3, #5
 8004e14:	f880 3035 	strb.w	r3, [r0, #53]	; 0x35
 8004e18:	6813      	ldr	r3, [r2, #0]
 8004e1a:	f023 0301 	bic.w	r3, r3, #1
 8004e1e:	6013      	str	r3, [r2, #0]
 8004e20:	2000      	movs	r0, #0
 8004e22:	4770      	bx	lr

08004e24 <HAL_DMA_IRQHandler>:
 8004e24:	b5f7      	push	{r0, r1, r2, r4, r5, r6, r7, lr}
 8004e26:	2300      	movs	r3, #0
 8004e28:	9301      	str	r3, [sp, #4]
 8004e2a:	4b5c      	ldr	r3, [pc, #368]	; (8004f9c <HAL_DMA_IRQHandler+0x178>)
 8004e2c:	6d85      	ldr	r5, [r0, #88]	; 0x58
 8004e2e:	681f      	ldr	r7, [r3, #0]
 8004e30:	6dc3      	ldr	r3, [r0, #92]	; 0x5c
 8004e32:	682e      	ldr	r6, [r5, #0]
 8004e34:	2208      	movs	r2, #8
 8004e36:	409a      	lsls	r2, r3
 8004e38:	4232      	tst	r2, r6
 8004e3a:	4604      	mov	r4, r0
 8004e3c:	d00c      	beq.n	8004e58 <HAL_DMA_IRQHandler+0x34>
 8004e3e:	6801      	ldr	r1, [r0, #0]
 8004e40:	6808      	ldr	r0, [r1, #0]
 8004e42:	0740      	lsls	r0, r0, #29
 8004e44:	d508      	bpl.n	8004e58 <HAL_DMA_IRQHandler+0x34>
 8004e46:	6808      	ldr	r0, [r1, #0]
 8004e48:	f020 0004 	bic.w	r0, r0, #4
 8004e4c:	6008      	str	r0, [r1, #0]
 8004e4e:	60aa      	str	r2, [r5, #8]
 8004e50:	6d62      	ldr	r2, [r4, #84]	; 0x54
 8004e52:	f042 0201 	orr.w	r2, r2, #1
 8004e56:	6562      	str	r2, [r4, #84]	; 0x54
 8004e58:	2201      	movs	r2, #1
 8004e5a:	409a      	lsls	r2, r3
 8004e5c:	4232      	tst	r2, r6
 8004e5e:	d008      	beq.n	8004e72 <HAL_DMA_IRQHandler+0x4e>
 8004e60:	6821      	ldr	r1, [r4, #0]
 8004e62:	6949      	ldr	r1, [r1, #20]
 8004e64:	0609      	lsls	r1, r1, #24
 8004e66:	bf41      	itttt	mi
 8004e68:	60aa      	strmi	r2, [r5, #8]
 8004e6a:	6d62      	ldrmi	r2, [r4, #84]	; 0x54
 8004e6c:	f042 0202 	orrmi.w	r2, r2, #2
 8004e70:	6562      	strmi	r2, [r4, #84]	; 0x54
 8004e72:	2204      	movs	r2, #4
 8004e74:	409a      	lsls	r2, r3
 8004e76:	4232      	tst	r2, r6
 8004e78:	d008      	beq.n	8004e8c <HAL_DMA_IRQHandler+0x68>
 8004e7a:	6821      	ldr	r1, [r4, #0]
 8004e7c:	6809      	ldr	r1, [r1, #0]
 8004e7e:	0788      	lsls	r0, r1, #30
 8004e80:	bf41      	itttt	mi
 8004e82:	60aa      	strmi	r2, [r5, #8]
 8004e84:	6d62      	ldrmi	r2, [r4, #84]	; 0x54
 8004e86:	f042 0204 	orrmi.w	r2, r2, #4
 8004e8a:	6562      	strmi	r2, [r4, #84]	; 0x54
 8004e8c:	2210      	movs	r2, #16
 8004e8e:	409a      	lsls	r2, r3
 8004e90:	4232      	tst	r2, r6
 8004e92:	d010      	beq.n	8004eb6 <HAL_DMA_IRQHandler+0x92>
 8004e94:	6823      	ldr	r3, [r4, #0]
 8004e96:	6819      	ldr	r1, [r3, #0]
 8004e98:	0709      	lsls	r1, r1, #28
 8004e9a:	d50c      	bpl.n	8004eb6 <HAL_DMA_IRQHandler+0x92>
 8004e9c:	60aa      	str	r2, [r5, #8]
 8004e9e:	681a      	ldr	r2, [r3, #0]
 8004ea0:	0350      	lsls	r0, r2, #13
 8004ea2:	d537      	bpl.n	8004f14 <HAL_DMA_IRQHandler+0xf0>
 8004ea4:	681b      	ldr	r3, [r3, #0]
 8004ea6:	0319      	lsls	r1, r3, #12
 8004ea8:	d401      	bmi.n	8004eae <HAL_DMA_IRQHandler+0x8a>
 8004eaa:	6c23      	ldr	r3, [r4, #64]	; 0x40
 8004eac:	e000      	b.n	8004eb0 <HAL_DMA_IRQHandler+0x8c>
 8004eae:	6ca3      	ldr	r3, [r4, #72]	; 0x48
 8004eb0:	b10b      	cbz	r3, 8004eb6 <HAL_DMA_IRQHandler+0x92>
 8004eb2:	4620      	mov	r0, r4
 8004eb4:	4798      	blx	r3
 8004eb6:	6de1      	ldr	r1, [r4, #92]	; 0x5c
 8004eb8:	2220      	movs	r2, #32
 8004eba:	408a      	lsls	r2, r1
 8004ebc:	4232      	tst	r2, r6
 8004ebe:	d03a      	beq.n	8004f36 <HAL_DMA_IRQHandler+0x112>
 8004ec0:	6823      	ldr	r3, [r4, #0]
 8004ec2:	6818      	ldr	r0, [r3, #0]
 8004ec4:	06c6      	lsls	r6, r0, #27
 8004ec6:	d536      	bpl.n	8004f36 <HAL_DMA_IRQHandler+0x112>
 8004ec8:	60aa      	str	r2, [r5, #8]
 8004eca:	f894 2035 	ldrb.w	r2, [r4, #53]	; 0x35
 8004ece:	2a05      	cmp	r2, #5
 8004ed0:	681a      	ldr	r2, [r3, #0]
 8004ed2:	d127      	bne.n	8004f24 <HAL_DMA_IRQHandler+0x100>
 8004ed4:	f022 0216 	bic.w	r2, r2, #22
 8004ed8:	601a      	str	r2, [r3, #0]
 8004eda:	695a      	ldr	r2, [r3, #20]
 8004edc:	f022 0280 	bic.w	r2, r2, #128	; 0x80
 8004ee0:	615a      	str	r2, [r3, #20]
 8004ee2:	6c22      	ldr	r2, [r4, #64]	; 0x40
 8004ee4:	b90a      	cbnz	r2, 8004eea <HAL_DMA_IRQHandler+0xc6>
 8004ee6:	6ca2      	ldr	r2, [r4, #72]	; 0x48
 8004ee8:	b11a      	cbz	r2, 8004ef2 <HAL_DMA_IRQHandler+0xce>
 8004eea:	681a      	ldr	r2, [r3, #0]
 8004eec:	f022 0208 	bic.w	r2, r2, #8
 8004ef0:	601a      	str	r2, [r3, #0]
 8004ef2:	233f      	movs	r3, #63	; 0x3f
 8004ef4:	408b      	lsls	r3, r1
 8004ef6:	60ab      	str	r3, [r5, #8]
 8004ef8:	2300      	movs	r3, #0
 8004efa:	f884 3034 	strb.w	r3, [r4, #52]	; 0x34
 8004efe:	2301      	movs	r3, #1
 8004f00:	f884 3035 	strb.w	r3, [r4, #53]	; 0x35
 8004f04:	6d23      	ldr	r3, [r4, #80]	; 0x50
 8004f06:	2b00      	cmp	r3, #0
 8004f08:	d045      	beq.n	8004f96 <HAL_DMA_IRQHandler+0x172>
 8004f0a:	4620      	mov	r0, r4
 8004f0c:	b003      	add	sp, #12
 8004f0e:	e8bd 40f0 	ldmia.w	sp!, {r4, r5, r6, r7, lr}
 8004f12:	4718      	bx	r3
 8004f14:	681a      	ldr	r2, [r3, #0]
 8004f16:	05d2      	lsls	r2, r2, #23
 8004f18:	bf5e      	ittt	pl
 8004f1a:	681a      	ldrpl	r2, [r3, #0]
 8004f1c:	f022 0208 	bicpl.w	r2, r2, #8
 8004f20:	601a      	strpl	r2, [r3, #0]
 8004f22:	e7c2      	b.n	8004eaa <HAL_DMA_IRQHandler+0x86>
 8004f24:	0350      	lsls	r0, r2, #13
 8004f26:	d527      	bpl.n	8004f78 <HAL_DMA_IRQHandler+0x154>
 8004f28:	681b      	ldr	r3, [r3, #0]
 8004f2a:	0319      	lsls	r1, r3, #12
 8004f2c:	d431      	bmi.n	8004f92 <HAL_DMA_IRQHandler+0x16e>
 8004f2e:	6c63      	ldr	r3, [r4, #68]	; 0x44
 8004f30:	b10b      	cbz	r3, 8004f36 <HAL_DMA_IRQHandler+0x112>
 8004f32:	4620      	mov	r0, r4
 8004f34:	4798      	blx	r3
 8004f36:	6d63      	ldr	r3, [r4, #84]	; 0x54
 8004f38:	b36b      	cbz	r3, 8004f96 <HAL_DMA_IRQHandler+0x172>
 8004f3a:	6d63      	ldr	r3, [r4, #84]	; 0x54
 8004f3c:	07da      	lsls	r2, r3, #31
 8004f3e:	d519      	bpl.n	8004f74 <HAL_DMA_IRQHandler+0x150>
 8004f40:	2305      	movs	r3, #5
 8004f42:	6822      	ldr	r2, [r4, #0]
 8004f44:	f884 3035 	strb.w	r3, [r4, #53]	; 0x35
 8004f48:	6813      	ldr	r3, [r2, #0]
 8004f4a:	f023 0301 	bic.w	r3, r3, #1
 8004f4e:	6013      	str	r3, [r2, #0]
 8004f50:	f44f 5316 	mov.w	r3, #9600	; 0x2580
 8004f54:	fbb7 f7f3 	udiv	r7, r7, r3
 8004f58:	9b01      	ldr	r3, [sp, #4]
 8004f5a:	3301      	adds	r3, #1
 8004f5c:	42bb      	cmp	r3, r7
 8004f5e:	9301      	str	r3, [sp, #4]
 8004f60:	d802      	bhi.n	8004f68 <HAL_DMA_IRQHandler+0x144>
 8004f62:	6813      	ldr	r3, [r2, #0]
 8004f64:	07db      	lsls	r3, r3, #31
 8004f66:	d4f7      	bmi.n	8004f58 <HAL_DMA_IRQHandler+0x134>
 8004f68:	2300      	movs	r3, #0
 8004f6a:	f884 3034 	strb.w	r3, [r4, #52]	; 0x34
 8004f6e:	2301      	movs	r3, #1
 8004f70:	f884 3035 	strb.w	r3, [r4, #53]	; 0x35
 8004f74:	6ce3      	ldr	r3, [r4, #76]	; 0x4c
 8004f76:	e7c6      	b.n	8004f06 <HAL_DMA_IRQHandler+0xe2>
 8004f78:	681a      	ldr	r2, [r3, #0]
 8004f7a:	f412 7280 	ands.w	r2, r2, #256	; 0x100
 8004f7e:	d108      	bne.n	8004f92 <HAL_DMA_IRQHandler+0x16e>
 8004f80:	6819      	ldr	r1, [r3, #0]
 8004f82:	f021 0110 	bic.w	r1, r1, #16
 8004f86:	6019      	str	r1, [r3, #0]
 8004f88:	2301      	movs	r3, #1
 8004f8a:	f884 2034 	strb.w	r2, [r4, #52]	; 0x34
 8004f8e:	f884 3035 	strb.w	r3, [r4, #53]	; 0x35
 8004f92:	6be3      	ldr	r3, [r4, #60]	; 0x3c
 8004f94:	e7cc      	b.n	8004f30 <HAL_DMA_IRQHandler+0x10c>
 8004f96:	b003      	add	sp, #12
 8004f98:	bdf0      	pop	{r4, r5, r6, r7, pc}
 8004f9a:	bf00      	nop
 8004f9c:	20000000 	.word	0x20000000

08004fa0 <HAL_GPIO_Init>:
 8004fa0:	e92d 4ff0 	stmdb	sp!, {r4, r5, r6, r7, r8, r9, sl, fp, lr}
 8004fa4:	b085      	sub	sp, #20
 8004fa6:	680b      	ldr	r3, [r1, #0]
 8004fa8:	f8df 818c 	ldr.w	r8, [pc, #396]	; 8005138 <HAL_GPIO_Init+0x198>
 8004fac:	4a60      	ldr	r2, [pc, #384]	; (8005130 <HAL_GPIO_Init+0x190>)
 8004fae:	9301      	str	r3, [sp, #4]
 8004fb0:	f04f 0901 	mov.w	r9, #1
 8004fb4:	2300      	movs	r3, #0
 8004fb6:	9d01      	ldr	r5, [sp, #4]
 8004fb8:	fa09 f403 	lsl.w	r4, r9, r3
 8004fbc:	4025      	ands	r5, r4
 8004fbe:	42ac      	cmp	r4, r5
 8004fc0:	f040 80a6 	bne.w	8005110 <HAL_GPIO_Init+0x170>
 8004fc4:	684c      	ldr	r4, [r1, #4]
 8004fc6:	f024 0c10 	bic.w	ip, r4, #16
 8004fca:	ea4f 0e43 	mov.w	lr, r3, lsl #1
 8004fce:	2603      	movs	r6, #3
 8004fd0:	f10c 37ff 	add.w	r7, ip, #4294967295
 8004fd4:	fa06 f60e 	lsl.w	r6, r6, lr
 8004fd8:	2f01      	cmp	r7, #1
 8004fda:	ea6f 0606 	mvn.w	r6, r6
 8004fde:	d811      	bhi.n	8005004 <HAL_GPIO_Init+0x64>
 8004fe0:	6887      	ldr	r7, [r0, #8]
 8004fe2:	ea07 0a06 	and.w	sl, r7, r6
 8004fe6:	68cf      	ldr	r7, [r1, #12]
 8004fe8:	fa07 f70e 	lsl.w	r7, r7, lr
 8004fec:	ea47 070a 	orr.w	r7, r7, sl
 8004ff0:	6087      	str	r7, [r0, #8]
 8004ff2:	6847      	ldr	r7, [r0, #4]
 8004ff4:	ea27 0a05 	bic.w	sl, r7, r5
 8004ff8:	f3c4 1700 	ubfx	r7, r4, #4, #1
 8004ffc:	409f      	lsls	r7, r3
 8004ffe:	ea47 070a 	orr.w	r7, r7, sl
 8005002:	6047      	str	r7, [r0, #4]
 8005004:	68c7      	ldr	r7, [r0, #12]
 8005006:	ea07 0a06 	and.w	sl, r7, r6
 800500a:	688f      	ldr	r7, [r1, #8]
 800500c:	fa07 f70e 	lsl.w	r7, r7, lr
 8005010:	ea47 070a 	orr.w	r7, r7, sl
 8005014:	f1bc 0f02 	cmp.w	ip, #2
 8005018:	60c7      	str	r7, [r0, #12]
 800501a:	d116      	bne.n	800504a <HAL_GPIO_Init+0xaa>
 800501c:	ea4f 0ad3 	mov.w	sl, r3, lsr #3
 8005020:	eb00 0a8a 	add.w	sl, r0, sl, lsl #2
 8005024:	f003 0b07 	and.w	fp, r3, #7
 8005028:	f8da 7020 	ldr.w	r7, [sl, #32]
 800502c:	ea4f 0b8b 	mov.w	fp, fp, lsl #2
 8005030:	f04f 0c0f 	mov.w	ip, #15
 8005034:	fa0c fc0b 	lsl.w	ip, ip, fp
 8005038:	ea27 0c0c 	bic.w	ip, r7, ip
 800503c:	690f      	ldr	r7, [r1, #16]
 800503e:	fa07 f70b 	lsl.w	r7, r7, fp
 8005042:	ea47 070c 	orr.w	r7, r7, ip
 8005046:	f8ca 7020 	str.w	r7, [sl, #32]
 800504a:	6807      	ldr	r7, [r0, #0]
 800504c:	403e      	ands	r6, r7
 800504e:	f004 0703 	and.w	r7, r4, #3
 8005052:	fa07 fe0e 	lsl.w	lr, r7, lr
 8005056:	ea4e 0606 	orr.w	r6, lr, r6
 800505a:	6006      	str	r6, [r0, #0]
 800505c:	00e6      	lsls	r6, r4, #3
 800505e:	d557      	bpl.n	8005110 <HAL_GPIO_Init+0x170>
 8005060:	f04f 0b00 	mov.w	fp, #0
 8005064:	f8cd b00c 	str.w	fp, [sp, #12]
 8005068:	f8d8 7044 	ldr.w	r7, [r8, #68]	; 0x44
 800506c:	4e31      	ldr	r6, [pc, #196]	; (8005134 <HAL_GPIO_Init+0x194>)
 800506e:	f447 4780 	orr.w	r7, r7, #16384	; 0x4000
 8005072:	f8c8 7044 	str.w	r7, [r8, #68]	; 0x44
 8005076:	f8d8 7044 	ldr.w	r7, [r8, #68]	; 0x44
 800507a:	f407 4780 	and.w	r7, r7, #16384	; 0x4000
 800507e:	9703      	str	r7, [sp, #12]
 8005080:	9f03      	ldr	r7, [sp, #12]
 8005082:	f023 0703 	bic.w	r7, r3, #3
 8005086:	f107 4780 	add.w	r7, r7, #1073741824	; 0x40000000
 800508a:	f507 379c 	add.w	r7, r7, #79872	; 0x13800
 800508e:	f003 0e03 	and.w	lr, r3, #3
 8005092:	f8d7 a008 	ldr.w	sl, [r7, #8]
 8005096:	ea4f 0e8e 	mov.w	lr, lr, lsl #2
 800509a:	f04f 0c0f 	mov.w	ip, #15
 800509e:	fa0c fc0e 	lsl.w	ip, ip, lr
 80050a2:	42b0      	cmp	r0, r6
 80050a4:	ea2a 0c0c 	bic.w	ip, sl, ip
 80050a8:	d039      	beq.n	800511e <HAL_GPIO_Init+0x17e>
 80050aa:	f506 6680 	add.w	r6, r6, #1024	; 0x400
 80050ae:	42b0      	cmp	r0, r6
 80050b0:	d037      	beq.n	8005122 <HAL_GPIO_Init+0x182>
 80050b2:	f506 6680 	add.w	r6, r6, #1024	; 0x400
 80050b6:	42b0      	cmp	r0, r6
 80050b8:	d035      	beq.n	8005126 <HAL_GPIO_Init+0x186>
 80050ba:	f506 6680 	add.w	r6, r6, #1024	; 0x400
 80050be:	42b0      	cmp	r0, r6
 80050c0:	d033      	beq.n	800512a <HAL_GPIO_Init+0x18a>
 80050c2:	f506 6680 	add.w	r6, r6, #1024	; 0x400
 80050c6:	42b0      	cmp	r0, r6
 80050c8:	bf14      	ite	ne
 80050ca:	2607      	movne	r6, #7
 80050cc:	2604      	moveq	r6, #4
 80050ce:	fa06 f60e 	lsl.w	r6, r6, lr
 80050d2:	ea46 060c 	orr.w	r6, r6, ip
 80050d6:	60be      	str	r6, [r7, #8]
 80050d8:	6816      	ldr	r6, [r2, #0]
 80050da:	43ef      	mvns	r7, r5
 80050dc:	f414 3f80 	tst.w	r4, #65536	; 0x10000
 80050e0:	bf0c      	ite	eq
 80050e2:	403e      	andeq	r6, r7
 80050e4:	432e      	orrne	r6, r5
 80050e6:	6016      	str	r6, [r2, #0]
 80050e8:	6856      	ldr	r6, [r2, #4]
 80050ea:	f414 3f00 	tst.w	r4, #131072	; 0x20000
 80050ee:	bf0c      	ite	eq
 80050f0:	403e      	andeq	r6, r7
 80050f2:	432e      	orrne	r6, r5
 80050f4:	6056      	str	r6, [r2, #4]
 80050f6:	6896      	ldr	r6, [r2, #8]
 80050f8:	f414 1f80 	tst.w	r4, #1048576	; 0x100000
 80050fc:	bf0c      	ite	eq
 80050fe:	403e      	andeq	r6, r7
 8005100:	432e      	orrne	r6, r5
 8005102:	6096      	str	r6, [r2, #8]
 8005104:	68d6      	ldr	r6, [r2, #12]
 8005106:	02a4      	lsls	r4, r4, #10
 8005108:	bf54      	ite	pl
 800510a:	403e      	andpl	r6, r7
 800510c:	432e      	orrmi	r6, r5
 800510e:	60d6      	str	r6, [r2, #12]
 8005110:	3301      	adds	r3, #1
 8005112:	2b10      	cmp	r3, #16
 8005114:	f47f af4f 	bne.w	8004fb6 <HAL_GPIO_Init+0x16>
 8005118:	b005      	add	sp, #20
 800511a:	e8bd 8ff0 	ldmia.w	sp!, {r4, r5, r6, r7, r8, r9, sl, fp, pc}
 800511e:	465e      	mov	r6, fp
 8005120:	e7d5      	b.n	80050ce <HAL_GPIO_Init+0x12e>
 8005122:	2601      	movs	r6, #1
 8005124:	e7d3      	b.n	80050ce <HAL_GPIO_Init+0x12e>
 8005126:	2602      	movs	r6, #2
 8005128:	e7d1      	b.n	80050ce <HAL_GPIO_Init+0x12e>
 800512a:	2603      	movs	r6, #3
 800512c:	e7cf      	b.n	80050ce <HAL_GPIO_Init+0x12e>
 800512e:	bf00      	nop
 8005130:	40013c00 	.word	0x40013c00
 8005134:	40020000 	.word	0x40020000
 8005138:	40023800 	.word	0x40023800

0800513c <HAL_GPIO_WritePin>:
 800513c:	b10a      	cbz	r2, 8005142 <HAL_GPIO_WritePin+0x6>
 800513e:	6181      	str	r1, [r0, #24]
 8005140:	4770      	bx	lr
 8005142:	0409      	lsls	r1, r1, #16
 8005144:	e7fb      	b.n	800513e <HAL_GPIO_WritePin+0x2>

08005146 <HAL_GPIO_TogglePin>:
 8005146:	6943      	ldr	r3, [r0, #20]
 8005148:	ea31 0303 	bics.w	r3, r1, r3
 800514c:	bf08      	it	eq
 800514e:	0409      	lsleq	r1, r1, #16
 8005150:	6181      	str	r1, [r0, #24]
 8005152:	4770      	bx	lr

08005154 <HAL_GPIO_EXTI_IRQHandler>:
 8005154:	b508      	push	{r3, lr}
 8005156:	4b04      	ldr	r3, [pc, #16]	; (8005168 <HAL_GPIO_EXTI_IRQHandler+0x14>)
 8005158:	6959      	ldr	r1, [r3, #20]
 800515a:	4201      	tst	r1, r0
 800515c:	d002      	beq.n	8005164 <HAL_GPIO_EXTI_IRQHandler+0x10>
 800515e:	6158      	str	r0, [r3, #20]
 8005160:	f7fb fc26 	bl	80009b0 <HAL_GPIO_EXTI_Callback>
 8005164:	bd08      	pop	{r3, pc}
 8005166:	bf00      	nop
 8005168:	40013c00 	.word	0x40013c00

0800516c <I2C_IsAcknowledgeFailed>:
 800516c:	6801      	ldr	r1, [r0, #0]
 800516e:	694b      	ldr	r3, [r1, #20]
 8005170:	f413 6380 	ands.w	r3, r3, #1024	; 0x400
 8005174:	f04f 0200 	mov.w	r2, #0
 8005178:	d010      	beq.n	800519c <I2C_IsAcknowledgeFailed+0x30>
 800517a:	f46f 6380 	mvn.w	r3, #1024	; 0x400
 800517e:	614b      	str	r3, [r1, #20]
 8005180:	2320      	movs	r3, #32
 8005182:	6302      	str	r2, [r0, #48]	; 0x30
 8005184:	f880 303d 	strb.w	r3, [r0, #61]	; 0x3d
 8005188:	f880 203e 	strb.w	r2, [r0, #62]	; 0x3e
 800518c:	6c03      	ldr	r3, [r0, #64]	; 0x40
 800518e:	f880 203c 	strb.w	r2, [r0, #60]	; 0x3c
 8005192:	f043 0304 	orr.w	r3, r3, #4
 8005196:	6403      	str	r3, [r0, #64]	; 0x40
 8005198:	2001      	movs	r0, #1
 800519a:	4770      	bx	lr
 800519c:	4618      	mov	r0, r3
 800519e:	4770      	bx	lr

080051a0 <I2C_WaitOnMasterAddressFlagUntilTimeout>:
 80051a0:	e92d 41f0 	stmdb	sp!, {r4, r5, r6, r7, r8, lr}
 80051a4:	4604      	mov	r4, r0
 80051a6:	4616      	mov	r6, r2
 80051a8:	4698      	mov	r8, r3
 80051aa:	b28f      	uxth	r7, r1
 80051ac:	6825      	ldr	r5, [r4, #0]
 80051ae:	6968      	ldr	r0, [r5, #20]
 80051b0:	ea37 0000 	bics.w	r0, r7, r0
 80051b4:	d017      	beq.n	80051e6 <I2C_WaitOnMasterAddressFlagUntilTimeout+0x46>
 80051b6:	696b      	ldr	r3, [r5, #20]
 80051b8:	055a      	lsls	r2, r3, #21
 80051ba:	d516      	bpl.n	80051ea <I2C_WaitOnMasterAddressFlagUntilTimeout+0x4a>
 80051bc:	682b      	ldr	r3, [r5, #0]
 80051be:	f443 7300 	orr.w	r3, r3, #512	; 0x200
 80051c2:	602b      	str	r3, [r5, #0]
 80051c4:	f46f 6380 	mvn.w	r3, #1024	; 0x400
 80051c8:	616b      	str	r3, [r5, #20]
 80051ca:	2220      	movs	r2, #32
 80051cc:	2300      	movs	r3, #0
 80051ce:	6323      	str	r3, [r4, #48]	; 0x30
 80051d0:	f884 203d 	strb.w	r2, [r4, #61]	; 0x3d
 80051d4:	f884 303e 	strb.w	r3, [r4, #62]	; 0x3e
 80051d8:	6c22      	ldr	r2, [r4, #64]	; 0x40
 80051da:	f042 0204 	orr.w	r2, r2, #4
 80051de:	6422      	str	r2, [r4, #64]	; 0x40
 80051e0:	f884 303c 	strb.w	r3, [r4, #60]	; 0x3c
 80051e4:	2001      	movs	r0, #1
 80051e6:	e8bd 81f0 	ldmia.w	sp!, {r4, r5, r6, r7, r8, pc}
 80051ea:	1c73      	adds	r3, r6, #1
 80051ec:	d0df      	beq.n	80051ae <I2C_WaitOnMasterAddressFlagUntilTimeout+0xe>
 80051ee:	f7ff faa7 	bl	8004740 <HAL_GetTick>
 80051f2:	eba0 0008 	sub.w	r0, r0, r8
 80051f6:	42b0      	cmp	r0, r6
 80051f8:	d801      	bhi.n	80051fe <I2C_WaitOnMasterAddressFlagUntilTimeout+0x5e>
 80051fa:	2e00      	cmp	r6, #0
 80051fc:	d1d6      	bne.n	80051ac <I2C_WaitOnMasterAddressFlagUntilTimeout+0xc>
 80051fe:	2300      	movs	r3, #0
 8005200:	2220      	movs	r2, #32
 8005202:	6323      	str	r3, [r4, #48]	; 0x30
 8005204:	f884 203d 	strb.w	r2, [r4, #61]	; 0x3d
 8005208:	f884 303e 	strb.w	r3, [r4, #62]	; 0x3e
 800520c:	6c22      	ldr	r2, [r4, #64]	; 0x40
 800520e:	f042 0220 	orr.w	r2, r2, #32
 8005212:	e7e4      	b.n	80051de <I2C_WaitOnMasterAddressFlagUntilTimeout+0x3e>

08005214 <I2C_WaitOnBTFFlagUntilTimeout>:
 8005214:	b570      	push	{r4, r5, r6, lr}
 8005216:	4604      	mov	r4, r0
 8005218:	460d      	mov	r5, r1
 800521a:	4616      	mov	r6, r2
 800521c:	6823      	ldr	r3, [r4, #0]
 800521e:	695b      	ldr	r3, [r3, #20]
 8005220:	075b      	lsls	r3, r3, #29
 8005222:	d501      	bpl.n	8005228 <I2C_WaitOnBTFFlagUntilTimeout+0x14>
 8005224:	2000      	movs	r0, #0
 8005226:	bd70      	pop	{r4, r5, r6, pc}
 8005228:	4620      	mov	r0, r4
 800522a:	f7ff ff9f 	bl	800516c <I2C_IsAcknowledgeFailed>
 800522e:	b9a8      	cbnz	r0, 800525c <I2C_WaitOnBTFFlagUntilTimeout+0x48>
 8005230:	1c6a      	adds	r2, r5, #1
 8005232:	d0f3      	beq.n	800521c <I2C_WaitOnBTFFlagUntilTimeout+0x8>
 8005234:	f7ff fa84 	bl	8004740 <HAL_GetTick>
 8005238:	1b80      	subs	r0, r0, r6
 800523a:	42a8      	cmp	r0, r5
 800523c:	d801      	bhi.n	8005242 <I2C_WaitOnBTFFlagUntilTimeout+0x2e>
 800523e:	2d00      	cmp	r5, #0
 8005240:	d1ec      	bne.n	800521c <I2C_WaitOnBTFFlagUntilTimeout+0x8>
 8005242:	2300      	movs	r3, #0
 8005244:	2220      	movs	r2, #32
 8005246:	6323      	str	r3, [r4, #48]	; 0x30
 8005248:	f884 203d 	strb.w	r2, [r4, #61]	; 0x3d
 800524c:	f884 303e 	strb.w	r3, [r4, #62]	; 0x3e
 8005250:	6c22      	ldr	r2, [r4, #64]	; 0x40
 8005252:	f884 303c 	strb.w	r3, [r4, #60]	; 0x3c
 8005256:	f042 0220 	orr.w	r2, r2, #32
 800525a:	6422      	str	r2, [r4, #64]	; 0x40
 800525c:	2001      	movs	r0, #1
 800525e:	e7e2      	b.n	8005226 <I2C_WaitOnBTFFlagUntilTimeout+0x12>

08005260 <I2C_WaitOnRXNEFlagUntilTimeout>:
 8005260:	b570      	push	{r4, r5, r6, lr}
 8005262:	4604      	mov	r4, r0
 8005264:	460d      	mov	r5, r1
 8005266:	4616      	mov	r6, r2
 8005268:	6820      	ldr	r0, [r4, #0]
 800526a:	6943      	ldr	r3, [r0, #20]
 800526c:	f013 0340 	ands.w	r3, r3, #64	; 0x40
 8005270:	d001      	beq.n	8005276 <I2C_WaitOnRXNEFlagUntilTimeout+0x16>
 8005272:	2000      	movs	r0, #0
 8005274:	e010      	b.n	8005298 <I2C_WaitOnRXNEFlagUntilTimeout+0x38>
 8005276:	6942      	ldr	r2, [r0, #20]
 8005278:	06d2      	lsls	r2, r2, #27
 800527a:	d50e      	bpl.n	800529a <I2C_WaitOnRXNEFlagUntilTimeout+0x3a>
 800527c:	f06f 0210 	mvn.w	r2, #16
 8005280:	6142      	str	r2, [r0, #20]
 8005282:	2220      	movs	r2, #32
 8005284:	6323      	str	r3, [r4, #48]	; 0x30
 8005286:	f884 203d 	strb.w	r2, [r4, #61]	; 0x3d
 800528a:	f884 303e 	strb.w	r3, [r4, #62]	; 0x3e
 800528e:	6c22      	ldr	r2, [r4, #64]	; 0x40
 8005290:	6422      	str	r2, [r4, #64]	; 0x40
 8005292:	f884 303c 	strb.w	r3, [r4, #60]	; 0x3c
 8005296:	2001      	movs	r0, #1
 8005298:	bd70      	pop	{r4, r5, r6, pc}
 800529a:	f7ff fa51 	bl	8004740 <HAL_GetTick>
 800529e:	1b80      	subs	r0, r0, r6
 80052a0:	42a8      	cmp	r0, r5
 80052a2:	d801      	bhi.n	80052a8 <I2C_WaitOnRXNEFlagUntilTimeout+0x48>
 80052a4:	2d00      	cmp	r5, #0
 80052a6:	d1df      	bne.n	8005268 <I2C_WaitOnRXNEFlagUntilTimeout+0x8>
 80052a8:	2300      	movs	r3, #0
 80052aa:	2220      	movs	r2, #32
 80052ac:	6323      	str	r3, [r4, #48]	; 0x30
 80052ae:	f884 203d 	strb.w	r2, [r4, #61]	; 0x3d
 80052b2:	f884 303e 	strb.w	r3, [r4, #62]	; 0x3e
 80052b6:	6c22      	ldr	r2, [r4, #64]	; 0x40
 80052b8:	f042 0220 	orr.w	r2, r2, #32
 80052bc:	e7e8      	b.n	8005290 <I2C_WaitOnRXNEFlagUntilTimeout+0x30>

080052be <I2C_WaitOnFlagUntilTimeout>:
 80052be:	e92d 43f8 	stmdb	sp!, {r3, r4, r5, r6, r7, r8, r9, lr}
 80052c2:	9e08      	ldr	r6, [sp, #32]
 80052c4:	4604      	mov	r4, r0
 80052c6:	4690      	mov	r8, r2
 80052c8:	461f      	mov	r7, r3
 80052ca:	ea4f 4911 	mov.w	r9, r1, lsr #16
 80052ce:	b28d      	uxth	r5, r1
 80052d0:	6821      	ldr	r1, [r4, #0]
 80052d2:	f1b9 0f01 	cmp.w	r9, #1
 80052d6:	bf0c      	ite	eq
 80052d8:	694b      	ldreq	r3, [r1, #20]
 80052da:	698b      	ldrne	r3, [r1, #24]
 80052dc:	ea35 0303 	bics.w	r3, r5, r3
 80052e0:	bf0c      	ite	eq
 80052e2:	2301      	moveq	r3, #1
 80052e4:	2300      	movne	r3, #0
 80052e6:	4598      	cmp	r8, r3
 80052e8:	d001      	beq.n	80052ee <I2C_WaitOnFlagUntilTimeout+0x30>
 80052ea:	2000      	movs	r0, #0
 80052ec:	e016      	b.n	800531c <I2C_WaitOnFlagUntilTimeout+0x5e>
 80052ee:	1c7b      	adds	r3, r7, #1
 80052f0:	d0ef      	beq.n	80052d2 <I2C_WaitOnFlagUntilTimeout+0x14>
 80052f2:	f7ff fa25 	bl	8004740 <HAL_GetTick>
 80052f6:	1b80      	subs	r0, r0, r6
 80052f8:	42b8      	cmp	r0, r7
 80052fa:	d801      	bhi.n	8005300 <I2C_WaitOnFlagUntilTimeout+0x42>
 80052fc:	2f00      	cmp	r7, #0
 80052fe:	d1e7      	bne.n	80052d0 <I2C_WaitOnFlagUntilTimeout+0x12>
 8005300:	2300      	movs	r3, #0
 8005302:	2220      	movs	r2, #32
 8005304:	6323      	str	r3, [r4, #48]	; 0x30
 8005306:	f884 203d 	strb.w	r2, [r4, #61]	; 0x3d
 800530a:	f884 303e 	strb.w	r3, [r4, #62]	; 0x3e
 800530e:	6c22      	ldr	r2, [r4, #64]	; 0x40
 8005310:	f884 303c 	strb.w	r3, [r4, #60]	; 0x3c
 8005314:	f042 0220 	orr.w	r2, r2, #32
 8005318:	6422      	str	r2, [r4, #64]	; 0x40
 800531a:	2001      	movs	r0, #1
 800531c:	e8bd 83f8 	ldmia.w	sp!, {r3, r4, r5, r6, r7, r8, r9, pc}

08005320 <I2C_WaitOnTXEFlagUntilTimeout>:
 8005320:	b570      	push	{r4, r5, r6, lr}
 8005322:	4604      	mov	r4, r0
 8005324:	460d      	mov	r5, r1
 8005326:	4616      	mov	r6, r2
 8005328:	6823      	ldr	r3, [r4, #0]
 800532a:	695b      	ldr	r3, [r3, #20]
 800532c:	061b      	lsls	r3, r3, #24
 800532e:	d501      	bpl.n	8005334 <I2C_WaitOnTXEFlagUntilTimeout+0x14>
 8005330:	2000      	movs	r0, #0
 8005332:	bd70      	pop	{r4, r5, r6, pc}
 8005334:	4620      	mov	r0, r4
 8005336:	f7ff ff19 	bl	800516c <I2C_IsAcknowledgeFailed>
 800533a:	b9a8      	cbnz	r0, 8005368 <I2C_WaitOnTXEFlagUntilTimeout+0x48>
 800533c:	1c6a      	adds	r2, r5, #1
 800533e:	d0f3      	beq.n	8005328 <I2C_WaitOnTXEFlagUntilTimeout+0x8>
 8005340:	f7ff f9fe 	bl	8004740 <HAL_GetTick>
 8005344:	1b80      	subs	r0, r0, r6
 8005346:	42a8      	cmp	r0, r5
 8005348:	d801      	bhi.n	800534e <I2C_WaitOnTXEFlagUntilTimeout+0x2e>
 800534a:	2d00      	cmp	r5, #0
 800534c:	d1ec      	bne.n	8005328 <I2C_WaitOnTXEFlagUntilTimeout+0x8>
 800534e:	2300      	movs	r3, #0
 8005350:	2220      	movs	r2, #32
 8005352:	6323      	str	r3, [r4, #48]	; 0x30
 8005354:	f884 203d 	strb.w	r2, [r4, #61]	; 0x3d
 8005358:	f884 303e 	strb.w	r3, [r4, #62]	; 0x3e
 800535c:	6c22      	ldr	r2, [r4, #64]	; 0x40
 800535e:	f884 303c 	strb.w	r3, [r4, #60]	; 0x3c
 8005362:	f042 0220 	orr.w	r2, r2, #32
 8005366:	6422      	str	r2, [r4, #64]	; 0x40
 8005368:	2001      	movs	r0, #1
 800536a:	e7e2      	b.n	8005332 <I2C_WaitOnTXEFlagUntilTimeout+0x12>

0800536c <HAL_I2C_Init>:
 800536c:	b570      	push	{r4, r5, r6, lr}
 800536e:	4604      	mov	r4, r0
 8005370:	b908      	cbnz	r0, 8005376 <HAL_I2C_Init+0xa>
 8005372:	2001      	movs	r0, #1
 8005374:	bd70      	pop	{r4, r5, r6, pc}
 8005376:	f890 303d 	ldrb.w	r3, [r0, #61]	; 0x3d
 800537a:	f003 02ff 	and.w	r2, r3, #255	; 0xff
 800537e:	b91b      	cbnz	r3, 8005388 <HAL_I2C_Init+0x1c>
 8005380:	f880 203c 	strb.w	r2, [r0, #60]	; 0x3c
 8005384:	f7fc fa9a 	bl	80018bc <HAL_I2C_MspInit>
 8005388:	2324      	movs	r3, #36	; 0x24
 800538a:	f884 303d 	strb.w	r3, [r4, #61]	; 0x3d
 800538e:	6823      	ldr	r3, [r4, #0]
 8005390:	681a      	ldr	r2, [r3, #0]
 8005392:	f022 0201 	bic.w	r2, r2, #1
 8005396:	601a      	str	r2, [r3, #0]
 8005398:	681a      	ldr	r2, [r3, #0]
 800539a:	f442 4200 	orr.w	r2, r2, #32768	; 0x8000
 800539e:	601a      	str	r2, [r3, #0]
 80053a0:	681a      	ldr	r2, [r3, #0]
 80053a2:	f422 4200 	bic.w	r2, r2, #32768	; 0x8000
 80053a6:	601a      	str	r2, [r3, #0]
 80053a8:	f000 fd42 	bl	8005e30 <HAL_RCC_GetPCLK1Freq>
 80053ac:	6863      	ldr	r3, [r4, #4]
 80053ae:	4a41      	ldr	r2, [pc, #260]	; (80054b4 <HAL_I2C_Init+0x148>)
 80053b0:	4293      	cmp	r3, r2
 80053b2:	d84d      	bhi.n	8005450 <HAL_I2C_Init+0xe4>
 80053b4:	4a40      	ldr	r2, [pc, #256]	; (80054b8 <HAL_I2C_Init+0x14c>)
 80053b6:	4290      	cmp	r0, r2
 80053b8:	d9db      	bls.n	8005372 <HAL_I2C_Init+0x6>
 80053ba:	6822      	ldr	r2, [r4, #0]
 80053bc:	493f      	ldr	r1, [pc, #252]	; (80054bc <HAL_I2C_Init+0x150>)
 80053be:	6855      	ldr	r5, [r2, #4]
 80053c0:	fbb0 f1f1 	udiv	r1, r0, r1
 80053c4:	f025 053f 	bic.w	r5, r5, #63	; 0x3f
 80053c8:	430d      	orrs	r5, r1
 80053ca:	6055      	str	r5, [r2, #4]
 80053cc:	6a15      	ldr	r5, [r2, #32]
 80053ce:	f025 053f 	bic.w	r5, r5, #63	; 0x3f
 80053d2:	3101      	adds	r1, #1
 80053d4:	4329      	orrs	r1, r5
 80053d6:	6211      	str	r1, [r2, #32]
 80053d8:	69d1      	ldr	r1, [r2, #28]
 80053da:	4d36      	ldr	r5, [pc, #216]	; (80054b4 <HAL_I2C_Init+0x148>)
 80053dc:	f421 414f 	bic.w	r1, r1, #52992	; 0xcf00
 80053e0:	42ab      	cmp	r3, r5
 80053e2:	f021 01ff 	bic.w	r1, r1, #255	; 0xff
 80053e6:	f100 30ff 	add.w	r0, r0, #4294967295
 80053ea:	d848      	bhi.n	800547e <HAL_I2C_Init+0x112>
 80053ec:	005b      	lsls	r3, r3, #1
 80053ee:	fbb0 f0f3 	udiv	r0, r0, r3
 80053f2:	1c43      	adds	r3, r0, #1
 80053f4:	f3c3 030b 	ubfx	r3, r3, #0, #12
 80053f8:	2b04      	cmp	r3, #4
 80053fa:	bf38      	it	cc
 80053fc:	2304      	movcc	r3, #4
 80053fe:	430b      	orrs	r3, r1
 8005400:	61d3      	str	r3, [r2, #28]
 8005402:	e9d4 3007 	ldrd	r3, r0, [r4, #28]
 8005406:	6811      	ldr	r1, [r2, #0]
 8005408:	4303      	orrs	r3, r0
 800540a:	f021 01c0 	bic.w	r1, r1, #192	; 0xc0
 800540e:	430b      	orrs	r3, r1
 8005410:	6013      	str	r3, [r2, #0]
 8005412:	6891      	ldr	r1, [r2, #8]
 8005414:	e9d4 0303 	ldrd	r0, r3, [r4, #12]
 8005418:	f421 4103 	bic.w	r1, r1, #33536	; 0x8300
 800541c:	4303      	orrs	r3, r0
 800541e:	f021 01ff 	bic.w	r1, r1, #255	; 0xff
 8005422:	430b      	orrs	r3, r1
 8005424:	6093      	str	r3, [r2, #8]
 8005426:	e9d4 3005 	ldrd	r3, r0, [r4, #20]
 800542a:	68d1      	ldr	r1, [r2, #12]
 800542c:	4303      	orrs	r3, r0
 800542e:	f021 01ff 	bic.w	r1, r1, #255	; 0xff
 8005432:	430b      	orrs	r3, r1
 8005434:	60d3      	str	r3, [r2, #12]
 8005436:	6813      	ldr	r3, [r2, #0]
 8005438:	f043 0301 	orr.w	r3, r3, #1
 800543c:	6013      	str	r3, [r2, #0]
 800543e:	2000      	movs	r0, #0
 8005440:	2320      	movs	r3, #32
 8005442:	6420      	str	r0, [r4, #64]	; 0x40
 8005444:	f884 303d 	strb.w	r3, [r4, #61]	; 0x3d
 8005448:	6320      	str	r0, [r4, #48]	; 0x30
 800544a:	f884 003e 	strb.w	r0, [r4, #62]	; 0x3e
 800544e:	e791      	b.n	8005374 <HAL_I2C_Init+0x8>
 8005450:	4a1b      	ldr	r2, [pc, #108]	; (80054c0 <HAL_I2C_Init+0x154>)
 8005452:	4290      	cmp	r0, r2
 8005454:	d98d      	bls.n	8005372 <HAL_I2C_Init+0x6>
 8005456:	6822      	ldr	r2, [r4, #0]
 8005458:	4e18      	ldr	r6, [pc, #96]	; (80054bc <HAL_I2C_Init+0x150>)
 800545a:	6855      	ldr	r5, [r2, #4]
 800545c:	fbb0 f6f6 	udiv	r6, r0, r6
 8005460:	f025 053f 	bic.w	r5, r5, #63	; 0x3f
 8005464:	4335      	orrs	r5, r6
 8005466:	6055      	str	r5, [r2, #4]
 8005468:	6a15      	ldr	r5, [r2, #32]
 800546a:	f44f 7196 	mov.w	r1, #300	; 0x12c
 800546e:	4371      	muls	r1, r6
 8005470:	f025 053f 	bic.w	r5, r5, #63	; 0x3f
 8005474:	f44f 767a 	mov.w	r6, #1000	; 0x3e8
 8005478:	fbb1 f1f6 	udiv	r1, r1, r6
 800547c:	e7a9      	b.n	80053d2 <HAL_I2C_Init+0x66>
 800547e:	68a5      	ldr	r5, [r4, #8]
 8005480:	b955      	cbnz	r5, 8005498 <HAL_I2C_Init+0x12c>
 8005482:	eb03 0343 	add.w	r3, r3, r3, lsl #1
 8005486:	fbb0 f0f3 	udiv	r0, r0, r3
 800548a:	1c43      	adds	r3, r0, #1
 800548c:	f3c3 030b 	ubfx	r3, r3, #0, #12
 8005490:	b16b      	cbz	r3, 80054ae <HAL_I2C_Init+0x142>
 8005492:	f443 4300 	orr.w	r3, r3, #32768	; 0x8000
 8005496:	e7b2      	b.n	80053fe <HAL_I2C_Init+0x92>
 8005498:	2519      	movs	r5, #25
 800549a:	436b      	muls	r3, r5
 800549c:	fbb0 f0f3 	udiv	r0, r0, r3
 80054a0:	1c43      	adds	r3, r0, #1
 80054a2:	f3c3 030b 	ubfx	r3, r3, #0, #12
 80054a6:	b113      	cbz	r3, 80054ae <HAL_I2C_Init+0x142>
 80054a8:	f443 4340 	orr.w	r3, r3, #49152	; 0xc000
 80054ac:	e7a7      	b.n	80053fe <HAL_I2C_Init+0x92>
 80054ae:	2301      	movs	r3, #1
 80054b0:	e7a5      	b.n	80053fe <HAL_I2C_Init+0x92>
 80054b2:	bf00      	nop
 80054b4:	000186a0 	.word	0x000186a0
 80054b8:	001e847f 	.word	0x001e847f
 80054bc:	000f4240 	.word	0x000f4240
 80054c0:	003d08ff 	.word	0x003d08ff

080054c4 <HAL_I2C_Master_Transmit>:
 80054c4:	e92d 41ff 	stmdb	sp!, {r0, r1, r2, r3, r4, r5, r6, r7, r8, lr}
 80054c8:	4604      	mov	r4, r0
 80054ca:	461f      	mov	r7, r3
 80054cc:	460d      	mov	r5, r1
 80054ce:	4690      	mov	r8, r2
 80054d0:	f7ff f936 	bl	8004740 <HAL_GetTick>
 80054d4:	f894 303d 	ldrb.w	r3, [r4, #61]	; 0x3d
 80054d8:	2b20      	cmp	r3, #32
 80054da:	4606      	mov	r6, r0
 80054dc:	d004      	beq.n	80054e8 <HAL_I2C_Master_Transmit+0x24>
 80054de:	2502      	movs	r5, #2
 80054e0:	4628      	mov	r0, r5
 80054e2:	b004      	add	sp, #16
 80054e4:	e8bd 81f0 	ldmia.w	sp!, {r4, r5, r6, r7, r8, pc}
 80054e8:	9000      	str	r0, [sp, #0]
 80054ea:	2319      	movs	r3, #25
 80054ec:	2201      	movs	r2, #1
 80054ee:	495b      	ldr	r1, [pc, #364]	; (800565c <HAL_I2C_Master_Transmit+0x198>)
 80054f0:	4620      	mov	r0, r4
 80054f2:	f7ff fee4 	bl	80052be <I2C_WaitOnFlagUntilTimeout>
 80054f6:	2800      	cmp	r0, #0
 80054f8:	d1f1      	bne.n	80054de <HAL_I2C_Master_Transmit+0x1a>
 80054fa:	f894 303c 	ldrb.w	r3, [r4, #60]	; 0x3c
 80054fe:	2b01      	cmp	r3, #1
 8005500:	d0ed      	beq.n	80054de <HAL_I2C_Master_Transmit+0x1a>
 8005502:	2301      	movs	r3, #1
 8005504:	f884 303c 	strb.w	r3, [r4, #60]	; 0x3c
 8005508:	6823      	ldr	r3, [r4, #0]
 800550a:	681a      	ldr	r2, [r3, #0]
 800550c:	07d2      	lsls	r2, r2, #31
 800550e:	bf5e      	ittt	pl
 8005510:	681a      	ldrpl	r2, [r3, #0]
 8005512:	f042 0201 	orrpl.w	r2, r2, #1
 8005516:	601a      	strpl	r2, [r3, #0]
 8005518:	681a      	ldr	r2, [r3, #0]
 800551a:	f422 6200 	bic.w	r2, r2, #2048	; 0x800
 800551e:	601a      	str	r2, [r3, #0]
 8005520:	2221      	movs	r2, #33	; 0x21
 8005522:	f884 203d 	strb.w	r2, [r4, #61]	; 0x3d
 8005526:	2210      	movs	r2, #16
 8005528:	f884 203e 	strb.w	r2, [r4, #62]	; 0x3e
 800552c:	2200      	movs	r2, #0
 800552e:	6422      	str	r2, [r4, #64]	; 0x40
 8005530:	8567      	strh	r7, [r4, #42]	; 0x2a
 8005532:	8d62      	ldrh	r2, [r4, #42]	; 0x2a
 8005534:	8522      	strh	r2, [r4, #40]	; 0x28
 8005536:	4a4a      	ldr	r2, [pc, #296]	; (8005660 <HAL_I2C_Master_Transmit+0x19c>)
 8005538:	62e2      	str	r2, [r4, #44]	; 0x2c
 800553a:	6ae2      	ldr	r2, [r4, #44]	; 0x2c
 800553c:	f8c4 8024 	str.w	r8, [r4, #36]	; 0x24
 8005540:	2a08      	cmp	r2, #8
 8005542:	d004      	beq.n	800554e <HAL_I2C_Master_Transmit+0x8a>
 8005544:	2a01      	cmp	r2, #1
 8005546:	d002      	beq.n	800554e <HAL_I2C_Master_Transmit+0x8a>
 8005548:	f512 3f80 	cmn.w	r2, #65536	; 0x10000
 800554c:	d104      	bne.n	8005558 <HAL_I2C_Master_Transmit+0x94>
 800554e:	681a      	ldr	r2, [r3, #0]
 8005550:	f442 7280 	orr.w	r2, r2, #256	; 0x100
 8005554:	601a      	str	r2, [r3, #0]
 8005556:	e002      	b.n	800555e <HAL_I2C_Master_Transmit+0x9a>
 8005558:	6b22      	ldr	r2, [r4, #48]	; 0x30
 800555a:	2a12      	cmp	r2, #18
 800555c:	d0f7      	beq.n	800554e <HAL_I2C_Master_Transmit+0x8a>
 800555e:	2200      	movs	r2, #0
 8005560:	9600      	str	r6, [sp, #0]
 8005562:	9b0a      	ldr	r3, [sp, #40]	; 0x28
 8005564:	f04f 1101 	mov.w	r1, #65537	; 0x10001
 8005568:	4620      	mov	r0, r4
 800556a:	f7ff fea8 	bl	80052be <I2C_WaitOnFlagUntilTimeout>
 800556e:	6822      	ldr	r2, [r4, #0]
 8005570:	b138      	cbz	r0, 8005582 <HAL_I2C_Master_Transmit+0xbe>
 8005572:	6813      	ldr	r3, [r2, #0]
 8005574:	05db      	lsls	r3, r3, #23
 8005576:	bf44      	itt	mi
 8005578:	f44f 7300 	movmi.w	r3, #512	; 0x200
 800557c:	6423      	strmi	r3, [r4, #64]	; 0x40
 800557e:	2501      	movs	r5, #1
 8005580:	e7ae      	b.n	80054e0 <HAL_I2C_Master_Transmit+0x1c>
 8005582:	6923      	ldr	r3, [r4, #16]
 8005584:	f5b3 4f80 	cmp.w	r3, #16384	; 0x4000
 8005588:	d121      	bne.n	80055ce <HAL_I2C_Master_Transmit+0x10a>
 800558a:	f005 05fe 	and.w	r5, r5, #254	; 0xfe
 800558e:	6115      	str	r5, [r2, #16]
 8005590:	4633      	mov	r3, r6
 8005592:	9a0a      	ldr	r2, [sp, #40]	; 0x28
 8005594:	4933      	ldr	r1, [pc, #204]	; (8005664 <HAL_I2C_Master_Transmit+0x1a0>)
 8005596:	4620      	mov	r0, r4
 8005598:	f7ff fe02 	bl	80051a0 <I2C_WaitOnMasterAddressFlagUntilTimeout>
 800559c:	4605      	mov	r5, r0
 800559e:	2800      	cmp	r0, #0
 80055a0:	d1ed      	bne.n	800557e <HAL_I2C_Master_Transmit+0xba>
 80055a2:	6823      	ldr	r3, [r4, #0]
 80055a4:	9003      	str	r0, [sp, #12]
 80055a6:	695a      	ldr	r2, [r3, #20]
 80055a8:	9203      	str	r2, [sp, #12]
 80055aa:	699b      	ldr	r3, [r3, #24]
 80055ac:	9303      	str	r3, [sp, #12]
 80055ae:	9b03      	ldr	r3, [sp, #12]
 80055b0:	8d23      	ldrh	r3, [r4, #40]	; 0x28
 80055b2:	b9f3      	cbnz	r3, 80055f2 <HAL_I2C_Master_Transmit+0x12e>
 80055b4:	6821      	ldr	r1, [r4, #0]
 80055b6:	680a      	ldr	r2, [r1, #0]
 80055b8:	f442 7200 	orr.w	r2, r2, #512	; 0x200
 80055bc:	600a      	str	r2, [r1, #0]
 80055be:	2220      	movs	r2, #32
 80055c0:	f884 203d 	strb.w	r2, [r4, #61]	; 0x3d
 80055c4:	f884 303c 	strb.w	r3, [r4, #60]	; 0x3c
 80055c8:	f884 303e 	strb.w	r3, [r4, #62]	; 0x3e
 80055cc:	e788      	b.n	80054e0 <HAL_I2C_Master_Transmit+0x1c>
 80055ce:	11eb      	asrs	r3, r5, #7
 80055d0:	f003 0306 	and.w	r3, r3, #6
 80055d4:	f043 03f0 	orr.w	r3, r3, #240	; 0xf0
 80055d8:	6113      	str	r3, [r2, #16]
 80055da:	4923      	ldr	r1, [pc, #140]	; (8005668 <HAL_I2C_Master_Transmit+0x1a4>)
 80055dc:	9a0a      	ldr	r2, [sp, #40]	; 0x28
 80055de:	4633      	mov	r3, r6
 80055e0:	4620      	mov	r0, r4
 80055e2:	f7ff fddd 	bl	80051a0 <I2C_WaitOnMasterAddressFlagUntilTimeout>
 80055e6:	2800      	cmp	r0, #0
 80055e8:	d1c9      	bne.n	800557e <HAL_I2C_Master_Transmit+0xba>
 80055ea:	6823      	ldr	r3, [r4, #0]
 80055ec:	b2ed      	uxtb	r5, r5
 80055ee:	611d      	str	r5, [r3, #16]
 80055f0:	e7ce      	b.n	8005590 <HAL_I2C_Master_Transmit+0xcc>
 80055f2:	4632      	mov	r2, r6
 80055f4:	990a      	ldr	r1, [sp, #40]	; 0x28
 80055f6:	4620      	mov	r0, r4
 80055f8:	f7ff fe92 	bl	8005320 <I2C_WaitOnTXEFlagUntilTimeout>
 80055fc:	b140      	cbz	r0, 8005610 <HAL_I2C_Master_Transmit+0x14c>
 80055fe:	6c23      	ldr	r3, [r4, #64]	; 0x40
 8005600:	2b04      	cmp	r3, #4
 8005602:	d1bc      	bne.n	800557e <HAL_I2C_Master_Transmit+0xba>
 8005604:	6822      	ldr	r2, [r4, #0]
 8005606:	6813      	ldr	r3, [r2, #0]
 8005608:	f443 7300 	orr.w	r3, r3, #512	; 0x200
 800560c:	6013      	str	r3, [r2, #0]
 800560e:	e7b6      	b.n	800557e <HAL_I2C_Master_Transmit+0xba>
 8005610:	6a63      	ldr	r3, [r4, #36]	; 0x24
 8005612:	6820      	ldr	r0, [r4, #0]
 8005614:	461a      	mov	r2, r3
 8005616:	f812 1b01 	ldrb.w	r1, [r2], #1
 800561a:	6101      	str	r1, [r0, #16]
 800561c:	6262      	str	r2, [r4, #36]	; 0x24
 800561e:	8d62      	ldrh	r2, [r4, #42]	; 0x2a
 8005620:	3a01      	subs	r2, #1
 8005622:	b292      	uxth	r2, r2
 8005624:	8562      	strh	r2, [r4, #42]	; 0x2a
 8005626:	8d22      	ldrh	r2, [r4, #40]	; 0x28
 8005628:	6947      	ldr	r7, [r0, #20]
 800562a:	1e51      	subs	r1, r2, #1
 800562c:	b289      	uxth	r1, r1
 800562e:	077f      	lsls	r7, r7, #29
 8005630:	8521      	strh	r1, [r4, #40]	; 0x28
 8005632:	d50a      	bpl.n	800564a <HAL_I2C_Master_Transmit+0x186>
 8005634:	b149      	cbz	r1, 800564a <HAL_I2C_Master_Transmit+0x186>
 8005636:	7859      	ldrb	r1, [r3, #1]
 8005638:	6101      	str	r1, [r0, #16]
 800563a:	3302      	adds	r3, #2
 800563c:	6263      	str	r3, [r4, #36]	; 0x24
 800563e:	8d63      	ldrh	r3, [r4, #42]	; 0x2a
 8005640:	3b01      	subs	r3, #1
 8005642:	b29b      	uxth	r3, r3
 8005644:	3a02      	subs	r2, #2
 8005646:	8563      	strh	r3, [r4, #42]	; 0x2a
 8005648:	8522      	strh	r2, [r4, #40]	; 0x28
 800564a:	4632      	mov	r2, r6
 800564c:	990a      	ldr	r1, [sp, #40]	; 0x28
 800564e:	4620      	mov	r0, r4
 8005650:	f7ff fde0 	bl	8005214 <I2C_WaitOnBTFFlagUntilTimeout>
 8005654:	2800      	cmp	r0, #0
 8005656:	d0ab      	beq.n	80055b0 <HAL_I2C_Master_Transmit+0xec>
 8005658:	e7d1      	b.n	80055fe <HAL_I2C_Master_Transmit+0x13a>
 800565a:	bf00      	nop
 800565c:	00100002 	.word	0x00100002
 8005660:	ffff0000 	.word	0xffff0000
 8005664:	00010002 	.word	0x00010002
 8005668:	00010008 	.word	0x00010008

0800566c <HAL_I2C_Master_Receive>:
 800566c:	e92d 43f0 	stmdb	sp!, {r4, r5, r6, r7, r8, r9, lr}
 8005670:	4604      	mov	r4, r0
 8005672:	b089      	sub	sp, #36	; 0x24
 8005674:	4698      	mov	r8, r3
 8005676:	460e      	mov	r6, r1
 8005678:	4691      	mov	r9, r2
 800567a:	9f10      	ldr	r7, [sp, #64]	; 0x40
 800567c:	f7ff f860 	bl	8004740 <HAL_GetTick>
 8005680:	f894 303d 	ldrb.w	r3, [r4, #61]	; 0x3d
 8005684:	2b20      	cmp	r3, #32
 8005686:	4605      	mov	r5, r0
 8005688:	d004      	beq.n	8005694 <HAL_I2C_Master_Receive+0x28>
 800568a:	2602      	movs	r6, #2
 800568c:	4630      	mov	r0, r6
 800568e:	b009      	add	sp, #36	; 0x24
 8005690:	e8bd 83f0 	ldmia.w	sp!, {r4, r5, r6, r7, r8, r9, pc}
 8005694:	9000      	str	r0, [sp, #0]
 8005696:	2319      	movs	r3, #25
 8005698:	2201      	movs	r2, #1
 800569a:	499b      	ldr	r1, [pc, #620]	; (8005908 <HAL_I2C_Master_Receive+0x29c>)
 800569c:	4620      	mov	r0, r4
 800569e:	f7ff fe0e 	bl	80052be <I2C_WaitOnFlagUntilTimeout>
 80056a2:	2800      	cmp	r0, #0
 80056a4:	d1f1      	bne.n	800568a <HAL_I2C_Master_Receive+0x1e>
 80056a6:	f894 303c 	ldrb.w	r3, [r4, #60]	; 0x3c
 80056aa:	2b01      	cmp	r3, #1
 80056ac:	d0ed      	beq.n	800568a <HAL_I2C_Master_Receive+0x1e>
 80056ae:	2301      	movs	r3, #1
 80056b0:	f884 303c 	strb.w	r3, [r4, #60]	; 0x3c
 80056b4:	6823      	ldr	r3, [r4, #0]
 80056b6:	681a      	ldr	r2, [r3, #0]
 80056b8:	07d2      	lsls	r2, r2, #31
 80056ba:	bf5e      	ittt	pl
 80056bc:	681a      	ldrpl	r2, [r3, #0]
 80056be:	f042 0201 	orrpl.w	r2, r2, #1
 80056c2:	601a      	strpl	r2, [r3, #0]
 80056c4:	681a      	ldr	r2, [r3, #0]
 80056c6:	f422 6200 	bic.w	r2, r2, #2048	; 0x800
 80056ca:	601a      	str	r2, [r3, #0]
 80056cc:	2222      	movs	r2, #34	; 0x22
 80056ce:	f884 203d 	strb.w	r2, [r4, #61]	; 0x3d
 80056d2:	2210      	movs	r2, #16
 80056d4:	f884 203e 	strb.w	r2, [r4, #62]	; 0x3e
 80056d8:	2200      	movs	r2, #0
 80056da:	6422      	str	r2, [r4, #64]	; 0x40
 80056dc:	f8a4 802a 	strh.w	r8, [r4, #42]	; 0x2a
 80056e0:	8d62      	ldrh	r2, [r4, #42]	; 0x2a
 80056e2:	8522      	strh	r2, [r4, #40]	; 0x28
 80056e4:	4a89      	ldr	r2, [pc, #548]	; (800590c <HAL_I2C_Master_Receive+0x2a0>)
 80056e6:	62e2      	str	r2, [r4, #44]	; 0x2c
 80056e8:	6ae2      	ldr	r2, [r4, #44]	; 0x2c
 80056ea:	6819      	ldr	r1, [r3, #0]
 80056ec:	f8c4 9024 	str.w	r9, [r4, #36]	; 0x24
 80056f0:	f441 6180 	orr.w	r1, r1, #1024	; 0x400
 80056f4:	2a08      	cmp	r2, #8
 80056f6:	6019      	str	r1, [r3, #0]
 80056f8:	d004      	beq.n	8005704 <HAL_I2C_Master_Receive+0x98>
 80056fa:	2a01      	cmp	r2, #1
 80056fc:	d002      	beq.n	8005704 <HAL_I2C_Master_Receive+0x98>
 80056fe:	f512 3f80 	cmn.w	r2, #65536	; 0x10000
 8005702:	d104      	bne.n	800570e <HAL_I2C_Master_Receive+0xa2>
 8005704:	681a      	ldr	r2, [r3, #0]
 8005706:	f442 7280 	orr.w	r2, r2, #256	; 0x100
 800570a:	601a      	str	r2, [r3, #0]
 800570c:	e002      	b.n	8005714 <HAL_I2C_Master_Receive+0xa8>
 800570e:	6b22      	ldr	r2, [r4, #48]	; 0x30
 8005710:	2a11      	cmp	r2, #17
 8005712:	d0f7      	beq.n	8005704 <HAL_I2C_Master_Receive+0x98>
 8005714:	463b      	mov	r3, r7
 8005716:	9500      	str	r5, [sp, #0]
 8005718:	2200      	movs	r2, #0
 800571a:	f04f 1101 	mov.w	r1, #65537	; 0x10001
 800571e:	4620      	mov	r0, r4
 8005720:	f7ff fdcd 	bl	80052be <I2C_WaitOnFlagUntilTimeout>
 8005724:	6823      	ldr	r3, [r4, #0]
 8005726:	b138      	cbz	r0, 8005738 <HAL_I2C_Master_Receive+0xcc>
 8005728:	681b      	ldr	r3, [r3, #0]
 800572a:	05d8      	lsls	r0, r3, #23
 800572c:	bf44      	itt	mi
 800572e:	f44f 7300 	movmi.w	r3, #512	; 0x200
 8005732:	6423      	strmi	r3, [r4, #64]	; 0x40
 8005734:	2601      	movs	r6, #1
 8005736:	e7a9      	b.n	800568c <HAL_I2C_Master_Receive+0x20>
 8005738:	6922      	ldr	r2, [r4, #16]
 800573a:	f5b2 4f80 	cmp.w	r2, #16384	; 0x4000
 800573e:	d123      	bne.n	8005788 <HAL_I2C_Master_Receive+0x11c>
 8005740:	f046 0601 	orr.w	r6, r6, #1
 8005744:	b2f6      	uxtb	r6, r6
 8005746:	611e      	str	r6, [r3, #16]
 8005748:	462b      	mov	r3, r5
 800574a:	463a      	mov	r2, r7
 800574c:	4970      	ldr	r1, [pc, #448]	; (8005910 <HAL_I2C_Master_Receive+0x2a4>)
 800574e:	4620      	mov	r0, r4
 8005750:	f7ff fd26 	bl	80051a0 <I2C_WaitOnMasterAddressFlagUntilTimeout>
 8005754:	4606      	mov	r6, r0
 8005756:	2800      	cmp	r0, #0
 8005758:	d1ec      	bne.n	8005734 <HAL_I2C_Master_Receive+0xc8>
 800575a:	8d22      	ldrh	r2, [r4, #40]	; 0x28
 800575c:	6823      	ldr	r3, [r4, #0]
 800575e:	2a00      	cmp	r2, #0
 8005760:	d147      	bne.n	80057f2 <HAL_I2C_Master_Receive+0x186>
 8005762:	9003      	str	r0, [sp, #12]
 8005764:	695a      	ldr	r2, [r3, #20]
 8005766:	9203      	str	r2, [sp, #12]
 8005768:	699a      	ldr	r2, [r3, #24]
 800576a:	9203      	str	r2, [sp, #12]
 800576c:	9a03      	ldr	r2, [sp, #12]
 800576e:	681a      	ldr	r2, [r3, #0]
 8005770:	f442 7200 	orr.w	r2, r2, #512	; 0x200
 8005774:	601a      	str	r2, [r3, #0]
 8005776:	2320      	movs	r3, #32
 8005778:	f884 303d 	strb.w	r3, [r4, #61]	; 0x3d
 800577c:	2300      	movs	r3, #0
 800577e:	f884 303e 	strb.w	r3, [r4, #62]	; 0x3e
 8005782:	f884 303c 	strb.w	r3, [r4, #60]	; 0x3c
 8005786:	e781      	b.n	800568c <HAL_I2C_Master_Receive+0x20>
 8005788:	ea4f 18e6 	mov.w	r8, r6, asr #7
 800578c:	f008 0806 	and.w	r8, r8, #6
 8005790:	f048 02f0 	orr.w	r2, r8, #240	; 0xf0
 8005794:	611a      	str	r2, [r3, #16]
 8005796:	495f      	ldr	r1, [pc, #380]	; (8005914 <HAL_I2C_Master_Receive+0x2a8>)
 8005798:	462b      	mov	r3, r5
 800579a:	463a      	mov	r2, r7
 800579c:	4620      	mov	r0, r4
 800579e:	f7ff fcff 	bl	80051a0 <I2C_WaitOnMasterAddressFlagUntilTimeout>
 80057a2:	2800      	cmp	r0, #0
 80057a4:	d1c6      	bne.n	8005734 <HAL_I2C_Master_Receive+0xc8>
 80057a6:	6823      	ldr	r3, [r4, #0]
 80057a8:	4959      	ldr	r1, [pc, #356]	; (8005910 <HAL_I2C_Master_Receive+0x2a4>)
 80057aa:	b2f6      	uxtb	r6, r6
 80057ac:	611e      	str	r6, [r3, #16]
 80057ae:	463a      	mov	r2, r7
 80057b0:	462b      	mov	r3, r5
 80057b2:	4620      	mov	r0, r4
 80057b4:	f7ff fcf4 	bl	80051a0 <I2C_WaitOnMasterAddressFlagUntilTimeout>
 80057b8:	4602      	mov	r2, r0
 80057ba:	2800      	cmp	r0, #0
 80057bc:	d1ba      	bne.n	8005734 <HAL_I2C_Master_Receive+0xc8>
 80057be:	6823      	ldr	r3, [r4, #0]
 80057c0:	9007      	str	r0, [sp, #28]
 80057c2:	6959      	ldr	r1, [r3, #20]
 80057c4:	9107      	str	r1, [sp, #28]
 80057c6:	6999      	ldr	r1, [r3, #24]
 80057c8:	9107      	str	r1, [sp, #28]
 80057ca:	9907      	ldr	r1, [sp, #28]
 80057cc:	6819      	ldr	r1, [r3, #0]
 80057ce:	f441 7180 	orr.w	r1, r1, #256	; 0x100
 80057d2:	6019      	str	r1, [r3, #0]
 80057d4:	4620      	mov	r0, r4
 80057d6:	9500      	str	r5, [sp, #0]
 80057d8:	463b      	mov	r3, r7
 80057da:	f04f 1101 	mov.w	r1, #65537	; 0x10001
 80057de:	f7ff fd6e 	bl	80052be <I2C_WaitOnFlagUntilTimeout>
 80057e2:	6822      	ldr	r2, [r4, #0]
 80057e4:	b108      	cbz	r0, 80057ea <HAL_I2C_Master_Receive+0x17e>
 80057e6:	6813      	ldr	r3, [r2, #0]
 80057e8:	e79f      	b.n	800572a <HAL_I2C_Master_Receive+0xbe>
 80057ea:	f048 03f1 	orr.w	r3, r8, #241	; 0xf1
 80057ee:	6113      	str	r3, [r2, #16]
 80057f0:	e7aa      	b.n	8005748 <HAL_I2C_Master_Receive+0xdc>
 80057f2:	2a01      	cmp	r2, #1
 80057f4:	d12c      	bne.n	8005850 <HAL_I2C_Master_Receive+0x1e4>
 80057f6:	681a      	ldr	r2, [r3, #0]
 80057f8:	f422 6280 	bic.w	r2, r2, #1024	; 0x400
 80057fc:	601a      	str	r2, [r3, #0]
 80057fe:	9004      	str	r0, [sp, #16]
 8005800:	695a      	ldr	r2, [r3, #20]
 8005802:	9204      	str	r2, [sp, #16]
 8005804:	699a      	ldr	r2, [r3, #24]
 8005806:	9204      	str	r2, [sp, #16]
 8005808:	9a04      	ldr	r2, [sp, #16]
 800580a:	681a      	ldr	r2, [r3, #0]
 800580c:	f442 7200 	orr.w	r2, r2, #512	; 0x200
 8005810:	601a      	str	r2, [r3, #0]
 8005812:	f8df 8104 	ldr.w	r8, [pc, #260]	; 8005918 <HAL_I2C_Master_Receive+0x2ac>
 8005816:	8d23      	ldrh	r3, [r4, #40]	; 0x28
 8005818:	2b00      	cmp	r3, #0
 800581a:	d0ac      	beq.n	8005776 <HAL_I2C_Master_Receive+0x10a>
 800581c:	2b03      	cmp	r3, #3
 800581e:	d87d      	bhi.n	800591c <HAL_I2C_Master_Receive+0x2b0>
 8005820:	2b01      	cmp	r3, #1
 8005822:	d130      	bne.n	8005886 <HAL_I2C_Master_Receive+0x21a>
 8005824:	462a      	mov	r2, r5
 8005826:	4639      	mov	r1, r7
 8005828:	4620      	mov	r0, r4
 800582a:	f7ff fd19 	bl	8005260 <I2C_WaitOnRXNEFlagUntilTimeout>
 800582e:	2800      	cmp	r0, #0
 8005830:	d180      	bne.n	8005734 <HAL_I2C_Master_Receive+0xc8>
 8005832:	6823      	ldr	r3, [r4, #0]
 8005834:	691a      	ldr	r2, [r3, #16]
 8005836:	6a63      	ldr	r3, [r4, #36]	; 0x24
 8005838:	701a      	strb	r2, [r3, #0]
 800583a:	6a63      	ldr	r3, [r4, #36]	; 0x24
 800583c:	3301      	adds	r3, #1
 800583e:	6263      	str	r3, [r4, #36]	; 0x24
 8005840:	8d23      	ldrh	r3, [r4, #40]	; 0x28
 8005842:	3b01      	subs	r3, #1
 8005844:	8523      	strh	r3, [r4, #40]	; 0x28
 8005846:	8d63      	ldrh	r3, [r4, #42]	; 0x2a
 8005848:	3b01      	subs	r3, #1
 800584a:	b29b      	uxth	r3, r3
 800584c:	8563      	strh	r3, [r4, #42]	; 0x2a
 800584e:	e7e2      	b.n	8005816 <HAL_I2C_Master_Receive+0x1aa>
 8005850:	2a02      	cmp	r2, #2
 8005852:	681a      	ldr	r2, [r3, #0]
 8005854:	d10d      	bne.n	8005872 <HAL_I2C_Master_Receive+0x206>
 8005856:	f422 6280 	bic.w	r2, r2, #1024	; 0x400
 800585a:	601a      	str	r2, [r3, #0]
 800585c:	681a      	ldr	r2, [r3, #0]
 800585e:	f442 6200 	orr.w	r2, r2, #2048	; 0x800
 8005862:	601a      	str	r2, [r3, #0]
 8005864:	9005      	str	r0, [sp, #20]
 8005866:	695a      	ldr	r2, [r3, #20]
 8005868:	9205      	str	r2, [sp, #20]
 800586a:	699b      	ldr	r3, [r3, #24]
 800586c:	9305      	str	r3, [sp, #20]
 800586e:	9b05      	ldr	r3, [sp, #20]
 8005870:	e7cf      	b.n	8005812 <HAL_I2C_Master_Receive+0x1a6>
 8005872:	f442 6280 	orr.w	r2, r2, #1024	; 0x400
 8005876:	601a      	str	r2, [r3, #0]
 8005878:	9006      	str	r0, [sp, #24]
 800587a:	695a      	ldr	r2, [r3, #20]
 800587c:	9206      	str	r2, [sp, #24]
 800587e:	699b      	ldr	r3, [r3, #24]
 8005880:	9306      	str	r3, [sp, #24]
 8005882:	9b06      	ldr	r3, [sp, #24]
 8005884:	e7c5      	b.n	8005812 <HAL_I2C_Master_Receive+0x1a6>
 8005886:	2b02      	cmp	r3, #2
 8005888:	9500      	str	r5, [sp, #0]
 800588a:	463b      	mov	r3, r7
 800588c:	f04f 0200 	mov.w	r2, #0
 8005890:	4641      	mov	r1, r8
 8005892:	4620      	mov	r0, r4
 8005894:	d11a      	bne.n	80058cc <HAL_I2C_Master_Receive+0x260>
 8005896:	f7ff fd12 	bl	80052be <I2C_WaitOnFlagUntilTimeout>
 800589a:	2800      	cmp	r0, #0
 800589c:	f47f af4a 	bne.w	8005734 <HAL_I2C_Master_Receive+0xc8>
 80058a0:	6823      	ldr	r3, [r4, #0]
 80058a2:	681a      	ldr	r2, [r3, #0]
 80058a4:	f442 7200 	orr.w	r2, r2, #512	; 0x200
 80058a8:	601a      	str	r2, [r3, #0]
 80058aa:	691a      	ldr	r2, [r3, #16]
 80058ac:	6a63      	ldr	r3, [r4, #36]	; 0x24
 80058ae:	701a      	strb	r2, [r3, #0]
 80058b0:	6a62      	ldr	r2, [r4, #36]	; 0x24
 80058b2:	1c53      	adds	r3, r2, #1
 80058b4:	6263      	str	r3, [r4, #36]	; 0x24
 80058b6:	8d23      	ldrh	r3, [r4, #40]	; 0x28
 80058b8:	3b01      	subs	r3, #1
 80058ba:	8523      	strh	r3, [r4, #40]	; 0x28
 80058bc:	8d63      	ldrh	r3, [r4, #42]	; 0x2a
 80058be:	3b01      	subs	r3, #1
 80058c0:	b29b      	uxth	r3, r3
 80058c2:	8563      	strh	r3, [r4, #42]	; 0x2a
 80058c4:	6823      	ldr	r3, [r4, #0]
 80058c6:	691b      	ldr	r3, [r3, #16]
 80058c8:	7053      	strb	r3, [r2, #1]
 80058ca:	e7b6      	b.n	800583a <HAL_I2C_Master_Receive+0x1ce>
 80058cc:	f7ff fcf7 	bl	80052be <I2C_WaitOnFlagUntilTimeout>
 80058d0:	4602      	mov	r2, r0
 80058d2:	2800      	cmp	r0, #0
 80058d4:	f47f af2e 	bne.w	8005734 <HAL_I2C_Master_Receive+0xc8>
 80058d8:	6823      	ldr	r3, [r4, #0]
 80058da:	6819      	ldr	r1, [r3, #0]
 80058dc:	f421 6180 	bic.w	r1, r1, #1024	; 0x400
 80058e0:	6019      	str	r1, [r3, #0]
 80058e2:	6919      	ldr	r1, [r3, #16]
 80058e4:	6a63      	ldr	r3, [r4, #36]	; 0x24
 80058e6:	7019      	strb	r1, [r3, #0]
 80058e8:	6a63      	ldr	r3, [r4, #36]	; 0x24
 80058ea:	9500      	str	r5, [sp, #0]
 80058ec:	3301      	adds	r3, #1
 80058ee:	6263      	str	r3, [r4, #36]	; 0x24
 80058f0:	8d23      	ldrh	r3, [r4, #40]	; 0x28
 80058f2:	3b01      	subs	r3, #1
 80058f4:	8523      	strh	r3, [r4, #40]	; 0x28
 80058f6:	8d63      	ldrh	r3, [r4, #42]	; 0x2a
 80058f8:	3b01      	subs	r3, #1
 80058fa:	b29b      	uxth	r3, r3
 80058fc:	8563      	strh	r3, [r4, #42]	; 0x2a
 80058fe:	4641      	mov	r1, r8
 8005900:	463b      	mov	r3, r7
 8005902:	4620      	mov	r0, r4
 8005904:	e7c7      	b.n	8005896 <HAL_I2C_Master_Receive+0x22a>
 8005906:	bf00      	nop
 8005908:	00100002 	.word	0x00100002
 800590c:	ffff0000 	.word	0xffff0000
 8005910:	00010002 	.word	0x00010002
 8005914:	00010008 	.word	0x00010008
 8005918:	00010004 	.word	0x00010004
 800591c:	462a      	mov	r2, r5
 800591e:	4639      	mov	r1, r7
 8005920:	4620      	mov	r0, r4
 8005922:	f7ff fc9d 	bl	8005260 <I2C_WaitOnRXNEFlagUntilTimeout>
 8005926:	2800      	cmp	r0, #0
 8005928:	f47f af04 	bne.w	8005734 <HAL_I2C_Master_Receive+0xc8>
 800592c:	6823      	ldr	r3, [r4, #0]
 800592e:	691a      	ldr	r2, [r3, #16]
 8005930:	6a63      	ldr	r3, [r4, #36]	; 0x24
 8005932:	701a      	strb	r2, [r3, #0]
 8005934:	6a62      	ldr	r2, [r4, #36]	; 0x24
 8005936:	1c53      	adds	r3, r2, #1
 8005938:	6263      	str	r3, [r4, #36]	; 0x24
 800593a:	8d23      	ldrh	r3, [r4, #40]	; 0x28
 800593c:	3b01      	subs	r3, #1
 800593e:	8523      	strh	r3, [r4, #40]	; 0x28
 8005940:	8d63      	ldrh	r3, [r4, #42]	; 0x2a
 8005942:	3b01      	subs	r3, #1
 8005944:	b29b      	uxth	r3, r3
 8005946:	8563      	strh	r3, [r4, #42]	; 0x2a
 8005948:	6823      	ldr	r3, [r4, #0]
 800594a:	6959      	ldr	r1, [r3, #20]
 800594c:	0749      	lsls	r1, r1, #29
 800594e:	f57f af62 	bpl.w	8005816 <HAL_I2C_Master_Receive+0x1aa>
 8005952:	e7b8      	b.n	80058c6 <HAL_I2C_Master_Receive+0x25a>

08005954 <HAL_RCC_OscConfig>:
 8005954:	e92d 41f3 	stmdb	sp!, {r0, r1, r4, r5, r6, r7, r8, lr}
 8005958:	4604      	mov	r4, r0
 800595a:	b908      	cbnz	r0, 8005960 <HAL_RCC_OscConfig+0xc>
 800595c:	2001      	movs	r0, #1
 800595e:	e03f      	b.n	80059e0 <HAL_RCC_OscConfig+0x8c>
 8005960:	6803      	ldr	r3, [r0, #0]
 8005962:	07dd      	lsls	r5, r3, #31
 8005964:	d410      	bmi.n	8005988 <HAL_RCC_OscConfig+0x34>
 8005966:	6823      	ldr	r3, [r4, #0]
 8005968:	0798      	lsls	r0, r3, #30
 800596a:	d45a      	bmi.n	8005a22 <HAL_RCC_OscConfig+0xce>
 800596c:	6823      	ldr	r3, [r4, #0]
 800596e:	071a      	lsls	r2, r3, #28
 8005970:	f100 809c 	bmi.w	8005aac <HAL_RCC_OscConfig+0x158>
 8005974:	6823      	ldr	r3, [r4, #0]
 8005976:	075b      	lsls	r3, r3, #29
 8005978:	f100 80ba 	bmi.w	8005af0 <HAL_RCC_OscConfig+0x19c>
 800597c:	69a0      	ldr	r0, [r4, #24]
 800597e:	2800      	cmp	r0, #0
 8005980:	f040 811b 	bne.w	8005bba <HAL_RCC_OscConfig+0x266>
 8005984:	2000      	movs	r0, #0
 8005986:	e02b      	b.n	80059e0 <HAL_RCC_OscConfig+0x8c>
 8005988:	4ba7      	ldr	r3, [pc, #668]	; (8005c28 <HAL_RCC_OscConfig+0x2d4>)
 800598a:	689a      	ldr	r2, [r3, #8]
 800598c:	f002 020c 	and.w	r2, r2, #12
 8005990:	2a04      	cmp	r2, #4
 8005992:	d007      	beq.n	80059a4 <HAL_RCC_OscConfig+0x50>
 8005994:	689a      	ldr	r2, [r3, #8]
 8005996:	f002 020c 	and.w	r2, r2, #12
 800599a:	2a08      	cmp	r2, #8
 800599c:	d10a      	bne.n	80059b4 <HAL_RCC_OscConfig+0x60>
 800599e:	685b      	ldr	r3, [r3, #4]
 80059a0:	0259      	lsls	r1, r3, #9
 80059a2:	d507      	bpl.n	80059b4 <HAL_RCC_OscConfig+0x60>
 80059a4:	4ba0      	ldr	r3, [pc, #640]	; (8005c28 <HAL_RCC_OscConfig+0x2d4>)
 80059a6:	681b      	ldr	r3, [r3, #0]
 80059a8:	039a      	lsls	r2, r3, #14
 80059aa:	d5dc      	bpl.n	8005966 <HAL_RCC_OscConfig+0x12>
 80059ac:	6863      	ldr	r3, [r4, #4]
 80059ae:	2b00      	cmp	r3, #0
 80059b0:	d1d9      	bne.n	8005966 <HAL_RCC_OscConfig+0x12>
 80059b2:	e7d3      	b.n	800595c <HAL_RCC_OscConfig+0x8>
 80059b4:	6863      	ldr	r3, [r4, #4]
 80059b6:	4d9c      	ldr	r5, [pc, #624]	; (8005c28 <HAL_RCC_OscConfig+0x2d4>)
 80059b8:	f5b3 3f80 	cmp.w	r3, #65536	; 0x10000
 80059bc:	d113      	bne.n	80059e6 <HAL_RCC_OscConfig+0x92>
 80059be:	682b      	ldr	r3, [r5, #0]
 80059c0:	f443 3380 	orr.w	r3, r3, #65536	; 0x10000
 80059c4:	602b      	str	r3, [r5, #0]
 80059c6:	f7fe febb 	bl	8004740 <HAL_GetTick>
 80059ca:	4d97      	ldr	r5, [pc, #604]	; (8005c28 <HAL_RCC_OscConfig+0x2d4>)
 80059cc:	4606      	mov	r6, r0
 80059ce:	682b      	ldr	r3, [r5, #0]
 80059d0:	039b      	lsls	r3, r3, #14
 80059d2:	d4c8      	bmi.n	8005966 <HAL_RCC_OscConfig+0x12>
 80059d4:	f7fe feb4 	bl	8004740 <HAL_GetTick>
 80059d8:	1b80      	subs	r0, r0, r6
 80059da:	2864      	cmp	r0, #100	; 0x64
 80059dc:	d9f7      	bls.n	80059ce <HAL_RCC_OscConfig+0x7a>
 80059de:	2003      	movs	r0, #3
 80059e0:	b002      	add	sp, #8
 80059e2:	e8bd 81f0 	ldmia.w	sp!, {r4, r5, r6, r7, r8, pc}
 80059e6:	f5b3 2fa0 	cmp.w	r3, #327680	; 0x50000
 80059ea:	d104      	bne.n	80059f6 <HAL_RCC_OscConfig+0xa2>
 80059ec:	682b      	ldr	r3, [r5, #0]
 80059ee:	f443 2380 	orr.w	r3, r3, #262144	; 0x40000
 80059f2:	602b      	str	r3, [r5, #0]
 80059f4:	e7e3      	b.n	80059be <HAL_RCC_OscConfig+0x6a>
 80059f6:	682a      	ldr	r2, [r5, #0]
 80059f8:	f422 3280 	bic.w	r2, r2, #65536	; 0x10000
 80059fc:	602a      	str	r2, [r5, #0]
 80059fe:	682a      	ldr	r2, [r5, #0]
 8005a00:	f422 2280 	bic.w	r2, r2, #262144	; 0x40000
 8005a04:	602a      	str	r2, [r5, #0]
 8005a06:	2b00      	cmp	r3, #0
 8005a08:	d1dd      	bne.n	80059c6 <HAL_RCC_OscConfig+0x72>
 8005a0a:	f7fe fe99 	bl	8004740 <HAL_GetTick>
 8005a0e:	4606      	mov	r6, r0
 8005a10:	682b      	ldr	r3, [r5, #0]
 8005a12:	039f      	lsls	r7, r3, #14
 8005a14:	d5a7      	bpl.n	8005966 <HAL_RCC_OscConfig+0x12>
 8005a16:	f7fe fe93 	bl	8004740 <HAL_GetTick>
 8005a1a:	1b80      	subs	r0, r0, r6
 8005a1c:	2864      	cmp	r0, #100	; 0x64
 8005a1e:	d9f7      	bls.n	8005a10 <HAL_RCC_OscConfig+0xbc>
 8005a20:	e7dd      	b.n	80059de <HAL_RCC_OscConfig+0x8a>
 8005a22:	4b81      	ldr	r3, [pc, #516]	; (8005c28 <HAL_RCC_OscConfig+0x2d4>)
 8005a24:	689a      	ldr	r2, [r3, #8]
 8005a26:	f012 0f0c 	tst.w	r2, #12
 8005a2a:	d007      	beq.n	8005a3c <HAL_RCC_OscConfig+0xe8>
 8005a2c:	689a      	ldr	r2, [r3, #8]
 8005a2e:	f002 020c 	and.w	r2, r2, #12
 8005a32:	2a08      	cmp	r2, #8
 8005a34:	d111      	bne.n	8005a5a <HAL_RCC_OscConfig+0x106>
 8005a36:	685b      	ldr	r3, [r3, #4]
 8005a38:	025e      	lsls	r6, r3, #9
 8005a3a:	d40e      	bmi.n	8005a5a <HAL_RCC_OscConfig+0x106>
 8005a3c:	4b7a      	ldr	r3, [pc, #488]	; (8005c28 <HAL_RCC_OscConfig+0x2d4>)
 8005a3e:	681a      	ldr	r2, [r3, #0]
 8005a40:	0795      	lsls	r5, r2, #30
 8005a42:	d502      	bpl.n	8005a4a <HAL_RCC_OscConfig+0xf6>
 8005a44:	68e2      	ldr	r2, [r4, #12]
 8005a46:	2a01      	cmp	r2, #1
 8005a48:	d188      	bne.n	800595c <HAL_RCC_OscConfig+0x8>
 8005a4a:	681a      	ldr	r2, [r3, #0]
 8005a4c:	6921      	ldr	r1, [r4, #16]
 8005a4e:	f022 02f8 	bic.w	r2, r2, #248	; 0xf8
 8005a52:	ea42 02c1 	orr.w	r2, r2, r1, lsl #3
 8005a56:	601a      	str	r2, [r3, #0]
 8005a58:	e788      	b.n	800596c <HAL_RCC_OscConfig+0x18>
 8005a5a:	68e2      	ldr	r2, [r4, #12]
 8005a5c:	4b73      	ldr	r3, [pc, #460]	; (8005c2c <HAL_RCC_OscConfig+0x2d8>)
 8005a5e:	b1b2      	cbz	r2, 8005a8e <HAL_RCC_OscConfig+0x13a>
 8005a60:	2201      	movs	r2, #1
 8005a62:	601a      	str	r2, [r3, #0]
 8005a64:	f7fe fe6c 	bl	8004740 <HAL_GetTick>
 8005a68:	4d6f      	ldr	r5, [pc, #444]	; (8005c28 <HAL_RCC_OscConfig+0x2d4>)
 8005a6a:	4606      	mov	r6, r0
 8005a6c:	682b      	ldr	r3, [r5, #0]
 8005a6e:	0798      	lsls	r0, r3, #30
 8005a70:	d507      	bpl.n	8005a82 <HAL_RCC_OscConfig+0x12e>
 8005a72:	682b      	ldr	r3, [r5, #0]
 8005a74:	6922      	ldr	r2, [r4, #16]
 8005a76:	f023 03f8 	bic.w	r3, r3, #248	; 0xf8
 8005a7a:	ea43 03c2 	orr.w	r3, r3, r2, lsl #3
 8005a7e:	602b      	str	r3, [r5, #0]
 8005a80:	e774      	b.n	800596c <HAL_RCC_OscConfig+0x18>
 8005a82:	f7fe fe5d 	bl	8004740 <HAL_GetTick>
 8005a86:	1b80      	subs	r0, r0, r6
 8005a88:	2802      	cmp	r0, #2
 8005a8a:	d9ef      	bls.n	8005a6c <HAL_RCC_OscConfig+0x118>
 8005a8c:	e7a7      	b.n	80059de <HAL_RCC_OscConfig+0x8a>
 8005a8e:	601a      	str	r2, [r3, #0]
 8005a90:	f7fe fe56 	bl	8004740 <HAL_GetTick>
 8005a94:	4d64      	ldr	r5, [pc, #400]	; (8005c28 <HAL_RCC_OscConfig+0x2d4>)
 8005a96:	4606      	mov	r6, r0
 8005a98:	682b      	ldr	r3, [r5, #0]
 8005a9a:	0799      	lsls	r1, r3, #30
 8005a9c:	f57f af66 	bpl.w	800596c <HAL_RCC_OscConfig+0x18>
 8005aa0:	f7fe fe4e 	bl	8004740 <HAL_GetTick>
 8005aa4:	1b80      	subs	r0, r0, r6
 8005aa6:	2802      	cmp	r0, #2
 8005aa8:	d9f6      	bls.n	8005a98 <HAL_RCC_OscConfig+0x144>
 8005aaa:	e798      	b.n	80059de <HAL_RCC_OscConfig+0x8a>
 8005aac:	6962      	ldr	r2, [r4, #20]
 8005aae:	4b60      	ldr	r3, [pc, #384]	; (8005c30 <HAL_RCC_OscConfig+0x2dc>)
 8005ab0:	b17a      	cbz	r2, 8005ad2 <HAL_RCC_OscConfig+0x17e>
 8005ab2:	2201      	movs	r2, #1
 8005ab4:	601a      	str	r2, [r3, #0]
 8005ab6:	f7fe fe43 	bl	8004740 <HAL_GetTick>
 8005aba:	4d5b      	ldr	r5, [pc, #364]	; (8005c28 <HAL_RCC_OscConfig+0x2d4>)
 8005abc:	4606      	mov	r6, r0
 8005abe:	6f6b      	ldr	r3, [r5, #116]	; 0x74
 8005ac0:	079f      	lsls	r7, r3, #30
 8005ac2:	f53f af57 	bmi.w	8005974 <HAL_RCC_OscConfig+0x20>
 8005ac6:	f7fe fe3b 	bl	8004740 <HAL_GetTick>
 8005aca:	1b80      	subs	r0, r0, r6
 8005acc:	2802      	cmp	r0, #2
 8005ace:	d9f6      	bls.n	8005abe <HAL_RCC_OscConfig+0x16a>
 8005ad0:	e785      	b.n	80059de <HAL_RCC_OscConfig+0x8a>
 8005ad2:	601a      	str	r2, [r3, #0]
 8005ad4:	f7fe fe34 	bl	8004740 <HAL_GetTick>
 8005ad8:	4d53      	ldr	r5, [pc, #332]	; (8005c28 <HAL_RCC_OscConfig+0x2d4>)
 8005ada:	4606      	mov	r6, r0
 8005adc:	6f6b      	ldr	r3, [r5, #116]	; 0x74
 8005ade:	0798      	lsls	r0, r3, #30
 8005ae0:	f57f af48 	bpl.w	8005974 <HAL_RCC_OscConfig+0x20>
 8005ae4:	f7fe fe2c 	bl	8004740 <HAL_GetTick>
 8005ae8:	1b80      	subs	r0, r0, r6
 8005aea:	2802      	cmp	r0, #2
 8005aec:	d9f6      	bls.n	8005adc <HAL_RCC_OscConfig+0x188>
 8005aee:	e776      	b.n	80059de <HAL_RCC_OscConfig+0x8a>
 8005af0:	4b4d      	ldr	r3, [pc, #308]	; (8005c28 <HAL_RCC_OscConfig+0x2d4>)
 8005af2:	6c1a      	ldr	r2, [r3, #64]	; 0x40
 8005af4:	f012 5280 	ands.w	r2, r2, #268435456	; 0x10000000
 8005af8:	d128      	bne.n	8005b4c <HAL_RCC_OscConfig+0x1f8>
 8005afa:	9201      	str	r2, [sp, #4]
 8005afc:	6c1a      	ldr	r2, [r3, #64]	; 0x40
 8005afe:	f042 5280 	orr.w	r2, r2, #268435456	; 0x10000000
 8005b02:	641a      	str	r2, [r3, #64]	; 0x40
 8005b04:	6c1b      	ldr	r3, [r3, #64]	; 0x40
 8005b06:	f003 5380 	and.w	r3, r3, #268435456	; 0x10000000
 8005b0a:	9301      	str	r3, [sp, #4]
 8005b0c:	9b01      	ldr	r3, [sp, #4]
 8005b0e:	2601      	movs	r6, #1
 8005b10:	4d48      	ldr	r5, [pc, #288]	; (8005c34 <HAL_RCC_OscConfig+0x2e0>)
 8005b12:	682b      	ldr	r3, [r5, #0]
 8005b14:	05d9      	lsls	r1, r3, #23
 8005b16:	d51b      	bpl.n	8005b50 <HAL_RCC_OscConfig+0x1fc>
 8005b18:	68a3      	ldr	r3, [r4, #8]
 8005b1a:	4d43      	ldr	r5, [pc, #268]	; (8005c28 <HAL_RCC_OscConfig+0x2d4>)
 8005b1c:	2b01      	cmp	r3, #1
 8005b1e:	d127      	bne.n	8005b70 <HAL_RCC_OscConfig+0x21c>
 8005b20:	6f2b      	ldr	r3, [r5, #112]	; 0x70
 8005b22:	f043 0301 	orr.w	r3, r3, #1
 8005b26:	672b      	str	r3, [r5, #112]	; 0x70
 8005b28:	f7fe fe0a 	bl	8004740 <HAL_GetTick>
 8005b2c:	4d3e      	ldr	r5, [pc, #248]	; (8005c28 <HAL_RCC_OscConfig+0x2d4>)
 8005b2e:	4607      	mov	r7, r0
 8005b30:	f241 3888 	movw	r8, #5000	; 0x1388
 8005b34:	6f2b      	ldr	r3, [r5, #112]	; 0x70
 8005b36:	079b      	lsls	r3, r3, #30
 8005b38:	d539      	bpl.n	8005bae <HAL_RCC_OscConfig+0x25a>
 8005b3a:	2e00      	cmp	r6, #0
 8005b3c:	f43f af1e 	beq.w	800597c <HAL_RCC_OscConfig+0x28>
 8005b40:	4a39      	ldr	r2, [pc, #228]	; (8005c28 <HAL_RCC_OscConfig+0x2d4>)
 8005b42:	6c13      	ldr	r3, [r2, #64]	; 0x40
 8005b44:	f023 5380 	bic.w	r3, r3, #268435456	; 0x10000000
 8005b48:	6413      	str	r3, [r2, #64]	; 0x40
 8005b4a:	e717      	b.n	800597c <HAL_RCC_OscConfig+0x28>
 8005b4c:	2600      	movs	r6, #0
 8005b4e:	e7df      	b.n	8005b10 <HAL_RCC_OscConfig+0x1bc>
 8005b50:	682b      	ldr	r3, [r5, #0]
 8005b52:	f443 7380 	orr.w	r3, r3, #256	; 0x100
 8005b56:	602b      	str	r3, [r5, #0]
 8005b58:	f7fe fdf2 	bl	8004740 <HAL_GetTick>
 8005b5c:	4607      	mov	r7, r0
 8005b5e:	682b      	ldr	r3, [r5, #0]
 8005b60:	05da      	lsls	r2, r3, #23
 8005b62:	d4d9      	bmi.n	8005b18 <HAL_RCC_OscConfig+0x1c4>
 8005b64:	f7fe fdec 	bl	8004740 <HAL_GetTick>
 8005b68:	1bc0      	subs	r0, r0, r7
 8005b6a:	2802      	cmp	r0, #2
 8005b6c:	d9f7      	bls.n	8005b5e <HAL_RCC_OscConfig+0x20a>
 8005b6e:	e736      	b.n	80059de <HAL_RCC_OscConfig+0x8a>
 8005b70:	2b05      	cmp	r3, #5
 8005b72:	d104      	bne.n	8005b7e <HAL_RCC_OscConfig+0x22a>
 8005b74:	6f2b      	ldr	r3, [r5, #112]	; 0x70
 8005b76:	f043 0304 	orr.w	r3, r3, #4
 8005b7a:	672b      	str	r3, [r5, #112]	; 0x70
 8005b7c:	e7d0      	b.n	8005b20 <HAL_RCC_OscConfig+0x1cc>
 8005b7e:	6f2a      	ldr	r2, [r5, #112]	; 0x70
 8005b80:	f022 0201 	bic.w	r2, r2, #1
 8005b84:	672a      	str	r2, [r5, #112]	; 0x70
 8005b86:	6f2a      	ldr	r2, [r5, #112]	; 0x70
 8005b88:	f022 0204 	bic.w	r2, r2, #4
 8005b8c:	672a      	str	r2, [r5, #112]	; 0x70
 8005b8e:	2b00      	cmp	r3, #0
 8005b90:	d1ca      	bne.n	8005b28 <HAL_RCC_OscConfig+0x1d4>
 8005b92:	f7fe fdd5 	bl	8004740 <HAL_GetTick>
 8005b96:	f241 3888 	movw	r8, #5000	; 0x1388
 8005b9a:	4607      	mov	r7, r0
 8005b9c:	6f2b      	ldr	r3, [r5, #112]	; 0x70
 8005b9e:	0798      	lsls	r0, r3, #30
 8005ba0:	d5cb      	bpl.n	8005b3a <HAL_RCC_OscConfig+0x1e6>
 8005ba2:	f7fe fdcd 	bl	8004740 <HAL_GetTick>
 8005ba6:	1bc0      	subs	r0, r0, r7
 8005ba8:	4540      	cmp	r0, r8
 8005baa:	d9f7      	bls.n	8005b9c <HAL_RCC_OscConfig+0x248>
 8005bac:	e717      	b.n	80059de <HAL_RCC_OscConfig+0x8a>
 8005bae:	f7fe fdc7 	bl	8004740 <HAL_GetTick>
 8005bb2:	1bc0      	subs	r0, r0, r7
 8005bb4:	4540      	cmp	r0, r8
 8005bb6:	d9bd      	bls.n	8005b34 <HAL_RCC_OscConfig+0x1e0>
 8005bb8:	e711      	b.n	80059de <HAL_RCC_OscConfig+0x8a>
 8005bba:	4d1b      	ldr	r5, [pc, #108]	; (8005c28 <HAL_RCC_OscConfig+0x2d4>)
 8005bbc:	68ab      	ldr	r3, [r5, #8]
 8005bbe:	f003 030c 	and.w	r3, r3, #12
 8005bc2:	2b08      	cmp	r3, #8
 8005bc4:	d047      	beq.n	8005c56 <HAL_RCC_OscConfig+0x302>
 8005bc6:	4e1c      	ldr	r6, [pc, #112]	; (8005c38 <HAL_RCC_OscConfig+0x2e4>)
 8005bc8:	2300      	movs	r3, #0
 8005bca:	2802      	cmp	r0, #2
 8005bcc:	6033      	str	r3, [r6, #0]
 8005bce:	d135      	bne.n	8005c3c <HAL_RCC_OscConfig+0x2e8>
 8005bd0:	f7fe fdb6 	bl	8004740 <HAL_GetTick>
 8005bd4:	4607      	mov	r7, r0
 8005bd6:	682b      	ldr	r3, [r5, #0]
 8005bd8:	0199      	lsls	r1, r3, #6
 8005bda:	d41e      	bmi.n	8005c1a <HAL_RCC_OscConfig+0x2c6>
 8005bdc:	e9d4 3207 	ldrd	r3, r2, [r4, #28]
 8005be0:	4313      	orrs	r3, r2
 8005be2:	6a62      	ldr	r2, [r4, #36]	; 0x24
 8005be4:	ea43 1382 	orr.w	r3, r3, r2, lsl #6
 8005be8:	6ae2      	ldr	r2, [r4, #44]	; 0x2c
 8005bea:	ea43 6302 	orr.w	r3, r3, r2, lsl #24
 8005bee:	6aa2      	ldr	r2, [r4, #40]	; 0x28
 8005bf0:	4c0d      	ldr	r4, [pc, #52]	; (8005c28 <HAL_RCC_OscConfig+0x2d4>)
 8005bf2:	0852      	lsrs	r2, r2, #1
 8005bf4:	3a01      	subs	r2, #1
 8005bf6:	ea43 4302 	orr.w	r3, r3, r2, lsl #16
 8005bfa:	606b      	str	r3, [r5, #4]
 8005bfc:	2301      	movs	r3, #1
 8005bfe:	6033      	str	r3, [r6, #0]
 8005c00:	f7fe fd9e 	bl	8004740 <HAL_GetTick>
 8005c04:	4605      	mov	r5, r0
 8005c06:	6823      	ldr	r3, [r4, #0]
 8005c08:	019a      	lsls	r2, r3, #6
 8005c0a:	f53f aebb 	bmi.w	8005984 <HAL_RCC_OscConfig+0x30>
 8005c0e:	f7fe fd97 	bl	8004740 <HAL_GetTick>
 8005c12:	1b40      	subs	r0, r0, r5
 8005c14:	2802      	cmp	r0, #2
 8005c16:	d9f6      	bls.n	8005c06 <HAL_RCC_OscConfig+0x2b2>
 8005c18:	e6e1      	b.n	80059de <HAL_RCC_OscConfig+0x8a>
 8005c1a:	f7fe fd91 	bl	8004740 <HAL_GetTick>
 8005c1e:	1bc0      	subs	r0, r0, r7
 8005c20:	2802      	cmp	r0, #2
 8005c22:	d9d8      	bls.n	8005bd6 <HAL_RCC_OscConfig+0x282>
 8005c24:	e6db      	b.n	80059de <HAL_RCC_OscConfig+0x8a>
 8005c26:	bf00      	nop
 8005c28:	40023800 	.word	0x40023800
 8005c2c:	42470000 	.word	0x42470000
 8005c30:	42470e80 	.word	0x42470e80
 8005c34:	40007000 	.word	0x40007000
 8005c38:	42470060 	.word	0x42470060
 8005c3c:	f7fe fd80 	bl	8004740 <HAL_GetTick>
 8005c40:	4604      	mov	r4, r0
 8005c42:	682b      	ldr	r3, [r5, #0]
 8005c44:	019b      	lsls	r3, r3, #6
 8005c46:	f57f ae9d 	bpl.w	8005984 <HAL_RCC_OscConfig+0x30>
 8005c4a:	f7fe fd79 	bl	8004740 <HAL_GetTick>
 8005c4e:	1b00      	subs	r0, r0, r4
 8005c50:	2802      	cmp	r0, #2
 8005c52:	d9f6      	bls.n	8005c42 <HAL_RCC_OscConfig+0x2ee>
 8005c54:	e6c3      	b.n	80059de <HAL_RCC_OscConfig+0x8a>
 8005c56:	2801      	cmp	r0, #1
 8005c58:	f43f aec2 	beq.w	80059e0 <HAL_RCC_OscConfig+0x8c>
 8005c5c:	6868      	ldr	r0, [r5, #4]
 8005c5e:	69e3      	ldr	r3, [r4, #28]
 8005c60:	f400 0280 	and.w	r2, r0, #4194304	; 0x400000
 8005c64:	429a      	cmp	r2, r3
 8005c66:	f47f ae79 	bne.w	800595c <HAL_RCC_OscConfig+0x8>
 8005c6a:	6a22      	ldr	r2, [r4, #32]
 8005c6c:	f000 033f 	and.w	r3, r0, #63	; 0x3f
 8005c70:	4293      	cmp	r3, r2
 8005c72:	f47f ae73 	bne.w	800595c <HAL_RCC_OscConfig+0x8>
 8005c76:	6a62      	ldr	r2, [r4, #36]	; 0x24
 8005c78:	f647 73c0 	movw	r3, #32704	; 0x7fc0
 8005c7c:	4003      	ands	r3, r0
 8005c7e:	4293      	cmp	r3, r2
 8005c80:	f47f ae6c 	bne.w	800595c <HAL_RCC_OscConfig+0x8>
 8005c84:	6aa2      	ldr	r2, [r4, #40]	; 0x28
 8005c86:	f400 3340 	and.w	r3, r0, #196608	; 0x30000
 8005c8a:	4293      	cmp	r3, r2
 8005c8c:	f47f ae66 	bne.w	800595c <HAL_RCC_OscConfig+0x8>
 8005c90:	6ae3      	ldr	r3, [r4, #44]	; 0x2c
 8005c92:	f000 6070 	and.w	r0, r0, #251658240	; 0xf000000
 8005c96:	1ac0      	subs	r0, r0, r3
 8005c98:	bf18      	it	ne
 8005c9a:	2001      	movne	r0, #1
 8005c9c:	e6a0      	b.n	80059e0 <HAL_RCC_OscConfig+0x8c>
 8005c9e:	bf00      	nop

08005ca0 <HAL_RCC_GetSysClockFreq>:
 8005ca0:	4913      	ldr	r1, [pc, #76]	; (8005cf0 <HAL_RCC_GetSysClockFreq+0x50>)
 8005ca2:	b508      	push	{r3, lr}
 8005ca4:	688b      	ldr	r3, [r1, #8]
 8005ca6:	f003 030c 	and.w	r3, r3, #12
 8005caa:	2b04      	cmp	r3, #4
 8005cac:	d003      	beq.n	8005cb6 <HAL_RCC_GetSysClockFreq+0x16>
 8005cae:	2b08      	cmp	r3, #8
 8005cb0:	d003      	beq.n	8005cba <HAL_RCC_GetSysClockFreq+0x1a>
 8005cb2:	4810      	ldr	r0, [pc, #64]	; (8005cf4 <HAL_RCC_GetSysClockFreq+0x54>)
 8005cb4:	e000      	b.n	8005cb8 <HAL_RCC_GetSysClockFreq+0x18>
 8005cb6:	4810      	ldr	r0, [pc, #64]	; (8005cf8 <HAL_RCC_GetSysClockFreq+0x58>)
 8005cb8:	bd08      	pop	{r3, pc}
 8005cba:	684a      	ldr	r2, [r1, #4]
 8005cbc:	684b      	ldr	r3, [r1, #4]
 8005cbe:	6849      	ldr	r1, [r1, #4]
 8005cc0:	f413 0380 	ands.w	r3, r3, #4194304	; 0x400000
 8005cc4:	bf14      	ite	ne
 8005cc6:	480c      	ldrne	r0, [pc, #48]	; (8005cf8 <HAL_RCC_GetSysClockFreq+0x58>)
 8005cc8:	480a      	ldreq	r0, [pc, #40]	; (8005cf4 <HAL_RCC_GetSysClockFreq+0x54>)
 8005cca:	f3c1 1188 	ubfx	r1, r1, #6, #9
 8005cce:	bf18      	it	ne
 8005cd0:	2300      	movne	r3, #0
 8005cd2:	f002 023f 	and.w	r2, r2, #63	; 0x3f
 8005cd6:	fba1 0100 	umull	r0, r1, r1, r0
 8005cda:	f7fa fad1 	bl	8000280 <__aeabi_uldivmod>
 8005cde:	4b04      	ldr	r3, [pc, #16]	; (8005cf0 <HAL_RCC_GetSysClockFreq+0x50>)
 8005ce0:	685b      	ldr	r3, [r3, #4]
 8005ce2:	f3c3 4301 	ubfx	r3, r3, #16, #2
 8005ce6:	3301      	adds	r3, #1
 8005ce8:	005b      	lsls	r3, r3, #1
 8005cea:	fbb0 f0f3 	udiv	r0, r0, r3
 8005cee:	e7e3      	b.n	8005cb8 <HAL_RCC_GetSysClockFreq+0x18>
 8005cf0:	40023800 	.word	0x40023800
 8005cf4:	00f42400 	.word	0x00f42400
 8005cf8:	017d7840 	.word	0x017d7840

08005cfc <HAL_RCC_ClockConfig>:
 8005cfc:	e92d 41f0 	stmdb	sp!, {r4, r5, r6, r7, r8, lr}
 8005d00:	460d      	mov	r5, r1
 8005d02:	4604      	mov	r4, r0
 8005d04:	b910      	cbnz	r0, 8005d0c <HAL_RCC_ClockConfig+0x10>
 8005d06:	2001      	movs	r0, #1
 8005d08:	e8bd 81f0 	ldmia.w	sp!, {r4, r5, r6, r7, r8, pc}
 8005d0c:	4b43      	ldr	r3, [pc, #268]	; (8005e1c <HAL_RCC_ClockConfig+0x120>)
 8005d0e:	681a      	ldr	r2, [r3, #0]
 8005d10:	f002 020f 	and.w	r2, r2, #15
 8005d14:	428a      	cmp	r2, r1
 8005d16:	d328      	bcc.n	8005d6a <HAL_RCC_ClockConfig+0x6e>
 8005d18:	6821      	ldr	r1, [r4, #0]
 8005d1a:	078f      	lsls	r7, r1, #30
 8005d1c:	d42d      	bmi.n	8005d7a <HAL_RCC_ClockConfig+0x7e>
 8005d1e:	07c8      	lsls	r0, r1, #31
 8005d20:	d440      	bmi.n	8005da4 <HAL_RCC_ClockConfig+0xa8>
 8005d22:	4b3e      	ldr	r3, [pc, #248]	; (8005e1c <HAL_RCC_ClockConfig+0x120>)
 8005d24:	681a      	ldr	r2, [r3, #0]
 8005d26:	f002 020f 	and.w	r2, r2, #15
 8005d2a:	42aa      	cmp	r2, r5
 8005d2c:	d865      	bhi.n	8005dfa <HAL_RCC_ClockConfig+0xfe>
 8005d2e:	6822      	ldr	r2, [r4, #0]
 8005d30:	0751      	lsls	r1, r2, #29
 8005d32:	d46b      	bmi.n	8005e0c <HAL_RCC_ClockConfig+0x110>
 8005d34:	0713      	lsls	r3, r2, #28
 8005d36:	d507      	bpl.n	8005d48 <HAL_RCC_ClockConfig+0x4c>
 8005d38:	4a39      	ldr	r2, [pc, #228]	; (8005e20 <HAL_RCC_ClockConfig+0x124>)
 8005d3a:	6921      	ldr	r1, [r4, #16]
 8005d3c:	6893      	ldr	r3, [r2, #8]
 8005d3e:	f423 4360 	bic.w	r3, r3, #57344	; 0xe000
 8005d42:	ea43 03c1 	orr.w	r3, r3, r1, lsl #3
 8005d46:	6093      	str	r3, [r2, #8]
 8005d48:	f7ff ffaa 	bl	8005ca0 <HAL_RCC_GetSysClockFreq>
 8005d4c:	4b34      	ldr	r3, [pc, #208]	; (8005e20 <HAL_RCC_ClockConfig+0x124>)
 8005d4e:	4a35      	ldr	r2, [pc, #212]	; (8005e24 <HAL_RCC_ClockConfig+0x128>)
 8005d50:	689b      	ldr	r3, [r3, #8]
 8005d52:	f3c3 1303 	ubfx	r3, r3, #4, #4
 8005d56:	5cd3      	ldrb	r3, [r2, r3]
 8005d58:	40d8      	lsrs	r0, r3
 8005d5a:	4b33      	ldr	r3, [pc, #204]	; (8005e28 <HAL_RCC_ClockConfig+0x12c>)
 8005d5c:	6018      	str	r0, [r3, #0]
 8005d5e:	4b33      	ldr	r3, [pc, #204]	; (8005e2c <HAL_RCC_ClockConfig+0x130>)
 8005d60:	6818      	ldr	r0, [r3, #0]
 8005d62:	f7fe fca3 	bl	80046ac <HAL_InitTick>
 8005d66:	2000      	movs	r0, #0
 8005d68:	e7ce      	b.n	8005d08 <HAL_RCC_ClockConfig+0xc>
 8005d6a:	b2ca      	uxtb	r2, r1
 8005d6c:	701a      	strb	r2, [r3, #0]
 8005d6e:	681b      	ldr	r3, [r3, #0]
 8005d70:	f003 030f 	and.w	r3, r3, #15
 8005d74:	428b      	cmp	r3, r1
 8005d76:	d1c6      	bne.n	8005d06 <HAL_RCC_ClockConfig+0xa>
 8005d78:	e7ce      	b.n	8005d18 <HAL_RCC_ClockConfig+0x1c>
 8005d7a:	4b29      	ldr	r3, [pc, #164]	; (8005e20 <HAL_RCC_ClockConfig+0x124>)
 8005d7c:	f011 0f04 	tst.w	r1, #4
 8005d80:	bf1e      	ittt	ne
 8005d82:	689a      	ldrne	r2, [r3, #8]
 8005d84:	f442 52e0 	orrne.w	r2, r2, #7168	; 0x1c00
 8005d88:	609a      	strne	r2, [r3, #8]
 8005d8a:	070e      	lsls	r6, r1, #28
 8005d8c:	bf42      	ittt	mi
 8005d8e:	689a      	ldrmi	r2, [r3, #8]
 8005d90:	f442 4260 	orrmi.w	r2, r2, #57344	; 0xe000
 8005d94:	609a      	strmi	r2, [r3, #8]
 8005d96:	689a      	ldr	r2, [r3, #8]
 8005d98:	68a0      	ldr	r0, [r4, #8]
 8005d9a:	f022 02f0 	bic.w	r2, r2, #240	; 0xf0
 8005d9e:	4302      	orrs	r2, r0
 8005da0:	609a      	str	r2, [r3, #8]
 8005da2:	e7bc      	b.n	8005d1e <HAL_RCC_ClockConfig+0x22>
 8005da4:	6862      	ldr	r2, [r4, #4]
 8005da6:	4b1e      	ldr	r3, [pc, #120]	; (8005e20 <HAL_RCC_ClockConfig+0x124>)
 8005da8:	2a01      	cmp	r2, #1
 8005daa:	d11c      	bne.n	8005de6 <HAL_RCC_ClockConfig+0xea>
 8005dac:	681b      	ldr	r3, [r3, #0]
 8005dae:	f413 3f00 	tst.w	r3, #131072	; 0x20000
 8005db2:	d0a8      	beq.n	8005d06 <HAL_RCC_ClockConfig+0xa>
 8005db4:	4e1a      	ldr	r6, [pc, #104]	; (8005e20 <HAL_RCC_ClockConfig+0x124>)
 8005db6:	68b3      	ldr	r3, [r6, #8]
 8005db8:	f023 0303 	bic.w	r3, r3, #3
 8005dbc:	4313      	orrs	r3, r2
 8005dbe:	60b3      	str	r3, [r6, #8]
 8005dc0:	f7fe fcbe 	bl	8004740 <HAL_GetTick>
 8005dc4:	f241 3888 	movw	r8, #5000	; 0x1388
 8005dc8:	4607      	mov	r7, r0
 8005dca:	68b3      	ldr	r3, [r6, #8]
 8005dcc:	6862      	ldr	r2, [r4, #4]
 8005dce:	f003 030c 	and.w	r3, r3, #12
 8005dd2:	ebb3 0f82 	cmp.w	r3, r2, lsl #2
 8005dd6:	d0a4      	beq.n	8005d22 <HAL_RCC_ClockConfig+0x26>
 8005dd8:	f7fe fcb2 	bl	8004740 <HAL_GetTick>
 8005ddc:	1bc0      	subs	r0, r0, r7
 8005dde:	4540      	cmp	r0, r8
 8005de0:	d9f3      	bls.n	8005dca <HAL_RCC_ClockConfig+0xce>
 8005de2:	2003      	movs	r0, #3
 8005de4:	e790      	b.n	8005d08 <HAL_RCC_ClockConfig+0xc>
 8005de6:	1e91      	subs	r1, r2, #2
 8005de8:	2901      	cmp	r1, #1
 8005dea:	681b      	ldr	r3, [r3, #0]
 8005dec:	d802      	bhi.n	8005df4 <HAL_RCC_ClockConfig+0xf8>
 8005dee:	f013 7f00 	tst.w	r3, #33554432	; 0x2000000
 8005df2:	e7de      	b.n	8005db2 <HAL_RCC_ClockConfig+0xb6>
 8005df4:	f013 0f02 	tst.w	r3, #2
 8005df8:	e7db      	b.n	8005db2 <HAL_RCC_ClockConfig+0xb6>
 8005dfa:	b2ea      	uxtb	r2, r5
 8005dfc:	701a      	strb	r2, [r3, #0]
 8005dfe:	681b      	ldr	r3, [r3, #0]
 8005e00:	f003 030f 	and.w	r3, r3, #15
 8005e04:	42ab      	cmp	r3, r5
 8005e06:	f47f af7e 	bne.w	8005d06 <HAL_RCC_ClockConfig+0xa>
 8005e0a:	e790      	b.n	8005d2e <HAL_RCC_ClockConfig+0x32>
 8005e0c:	4904      	ldr	r1, [pc, #16]	; (8005e20 <HAL_RCC_ClockConfig+0x124>)
 8005e0e:	68e0      	ldr	r0, [r4, #12]
 8005e10:	688b      	ldr	r3, [r1, #8]
 8005e12:	f423 53e0 	bic.w	r3, r3, #7168	; 0x1c00
 8005e16:	4303      	orrs	r3, r0
 8005e18:	608b      	str	r3, [r1, #8]
 8005e1a:	e78b      	b.n	8005d34 <HAL_RCC_ClockConfig+0x38>
 8005e1c:	40023c00 	.word	0x40023c00
 8005e20:	40023800 	.word	0x40023800
 8005e24:	08007bc6 	.word	0x08007bc6
 8005e28:	20000000 	.word	0x20000000
 8005e2c:	200002c4 	.word	0x200002c4

08005e30 <HAL_RCC_GetPCLK1Freq>:
 8005e30:	4b04      	ldr	r3, [pc, #16]	; (8005e44 <HAL_RCC_GetPCLK1Freq+0x14>)
 8005e32:	4a05      	ldr	r2, [pc, #20]	; (8005e48 <HAL_RCC_GetPCLK1Freq+0x18>)
 8005e34:	689b      	ldr	r3, [r3, #8]
 8005e36:	f3c3 2382 	ubfx	r3, r3, #10, #3
 8005e3a:	5cd3      	ldrb	r3, [r2, r3]
 8005e3c:	4a03      	ldr	r2, [pc, #12]	; (8005e4c <HAL_RCC_GetPCLK1Freq+0x1c>)
 8005e3e:	6810      	ldr	r0, [r2, #0]
 8005e40:	40d8      	lsrs	r0, r3
 8005e42:	4770      	bx	lr
 8005e44:	40023800 	.word	0x40023800
 8005e48:	08007bd6 	.word	0x08007bd6
 8005e4c:	20000000 	.word	0x20000000

08005e50 <HAL_RCC_GetPCLK2Freq>:
 8005e50:	4b04      	ldr	r3, [pc, #16]	; (8005e64 <HAL_RCC_GetPCLK2Freq+0x14>)
 8005e52:	4a05      	ldr	r2, [pc, #20]	; (8005e68 <HAL_RCC_GetPCLK2Freq+0x18>)
 8005e54:	689b      	ldr	r3, [r3, #8]
 8005e56:	f3c3 3342 	ubfx	r3, r3, #13, #3
 8005e5a:	5cd3      	ldrb	r3, [r2, r3]
 8005e5c:	4a03      	ldr	r2, [pc, #12]	; (8005e6c <HAL_RCC_GetPCLK2Freq+0x1c>)
 8005e5e:	6810      	ldr	r0, [r2, #0]
 8005e60:	40d8      	lsrs	r0, r3
 8005e62:	4770      	bx	lr
 8005e64:	40023800 	.word	0x40023800
 8005e68:	08007bd6 	.word	0x08007bd6
 8005e6c:	20000000 	.word	0x20000000

08005e70 <HAL_SPI_Init>:
 8005e70:	b510      	push	{r4, lr}
 8005e72:	4604      	mov	r4, r0
 8005e74:	2800      	cmp	r0, #0
 8005e76:	d036      	beq.n	8005ee6 <HAL_SPI_Init+0x76>
 8005e78:	2300      	movs	r3, #0
 8005e7a:	6283      	str	r3, [r0, #40]	; 0x28
 8005e7c:	f890 3051 	ldrb.w	r3, [r0, #81]	; 0x51
 8005e80:	f003 02ff 	and.w	r2, r3, #255	; 0xff
 8005e84:	b91b      	cbnz	r3, 8005e8e <HAL_SPI_Init+0x1e>
 8005e86:	f880 2050 	strb.w	r2, [r0, #80]	; 0x50
 8005e8a:	f7fb fd51 	bl	8001930 <HAL_SPI_MspInit>
 8005e8e:	6821      	ldr	r1, [r4, #0]
 8005e90:	69a2      	ldr	r2, [r4, #24]
 8005e92:	2302      	movs	r3, #2
 8005e94:	f884 3051 	strb.w	r3, [r4, #81]	; 0x51
 8005e98:	680b      	ldr	r3, [r1, #0]
 8005e9a:	f023 0340 	bic.w	r3, r3, #64	; 0x40
 8005e9e:	600b      	str	r3, [r1, #0]
 8005ea0:	e9d4 3001 	ldrd	r3, r0, [r4, #4]
 8005ea4:	4303      	orrs	r3, r0
 8005ea6:	68e0      	ldr	r0, [r4, #12]
 8005ea8:	4303      	orrs	r3, r0
 8005eaa:	6920      	ldr	r0, [r4, #16]
 8005eac:	4303      	orrs	r3, r0
 8005eae:	6960      	ldr	r0, [r4, #20]
 8005eb0:	4303      	orrs	r3, r0
 8005eb2:	69e0      	ldr	r0, [r4, #28]
 8005eb4:	4303      	orrs	r3, r0
 8005eb6:	6a20      	ldr	r0, [r4, #32]
 8005eb8:	4303      	orrs	r3, r0
 8005eba:	6aa0      	ldr	r0, [r4, #40]	; 0x28
 8005ebc:	4303      	orrs	r3, r0
 8005ebe:	f402 7000 	and.w	r0, r2, #512	; 0x200
 8005ec2:	4303      	orrs	r3, r0
 8005ec4:	600b      	str	r3, [r1, #0]
 8005ec6:	0c12      	lsrs	r2, r2, #16
 8005ec8:	6a63      	ldr	r3, [r4, #36]	; 0x24
 8005eca:	f002 0204 	and.w	r2, r2, #4
 8005ece:	431a      	orrs	r2, r3
 8005ed0:	604a      	str	r2, [r1, #4]
 8005ed2:	69cb      	ldr	r3, [r1, #28]
 8005ed4:	f423 6300 	bic.w	r3, r3, #2048	; 0x800
 8005ed8:	61cb      	str	r3, [r1, #28]
 8005eda:	2000      	movs	r0, #0
 8005edc:	2301      	movs	r3, #1
 8005ede:	6560      	str	r0, [r4, #84]	; 0x54
 8005ee0:	f884 3051 	strb.w	r3, [r4, #81]	; 0x51
 8005ee4:	bd10      	pop	{r4, pc}
 8005ee6:	2001      	movs	r0, #1
 8005ee8:	e7fc      	b.n	8005ee4 <HAL_SPI_Init+0x74>
	...

08005eec <TIM_OC1_SetConfig>:
 8005eec:	6a03      	ldr	r3, [r0, #32]
 8005eee:	f023 0301 	bic.w	r3, r3, #1
 8005ef2:	6203      	str	r3, [r0, #32]
 8005ef4:	6a03      	ldr	r3, [r0, #32]
 8005ef6:	b570      	push	{r4, r5, r6, lr}
 8005ef8:	6844      	ldr	r4, [r0, #4]
 8005efa:	6982      	ldr	r2, [r0, #24]
 8005efc:	680d      	ldr	r5, [r1, #0]
 8005efe:	f022 0273 	bic.w	r2, r2, #115	; 0x73
 8005f02:	432a      	orrs	r2, r5
 8005f04:	688d      	ldr	r5, [r1, #8]
 8005f06:	f023 0302 	bic.w	r3, r3, #2
 8005f0a:	432b      	orrs	r3, r5
 8005f0c:	4d0a      	ldr	r5, [pc, #40]	; (8005f38 <TIM_OC1_SetConfig+0x4c>)
 8005f0e:	42a8      	cmp	r0, r5
 8005f10:	d10b      	bne.n	8005f2a <TIM_OC1_SetConfig+0x3e>
 8005f12:	68cd      	ldr	r5, [r1, #12]
 8005f14:	f023 0308 	bic.w	r3, r3, #8
 8005f18:	432b      	orrs	r3, r5
 8005f1a:	e9d1 5605 	ldrd	r5, r6, [r1, #20]
 8005f1e:	f424 7440 	bic.w	r4, r4, #768	; 0x300
 8005f22:	4335      	orrs	r5, r6
 8005f24:	f023 0304 	bic.w	r3, r3, #4
 8005f28:	432c      	orrs	r4, r5
 8005f2a:	6044      	str	r4, [r0, #4]
 8005f2c:	6182      	str	r2, [r0, #24]
 8005f2e:	684a      	ldr	r2, [r1, #4]
 8005f30:	6342      	str	r2, [r0, #52]	; 0x34
 8005f32:	6203      	str	r3, [r0, #32]
 8005f34:	bd70      	pop	{r4, r5, r6, pc}
 8005f36:	bf00      	nop
 8005f38:	40010000 	.word	0x40010000

08005f3c <TIM_OC3_SetConfig>:
 8005f3c:	6a03      	ldr	r3, [r0, #32]
 8005f3e:	f423 7380 	bic.w	r3, r3, #256	; 0x100
 8005f42:	6203      	str	r3, [r0, #32]
 8005f44:	6a03      	ldr	r3, [r0, #32]
 8005f46:	b570      	push	{r4, r5, r6, lr}
 8005f48:	6844      	ldr	r4, [r0, #4]
 8005f4a:	69c2      	ldr	r2, [r0, #28]
 8005f4c:	680d      	ldr	r5, [r1, #0]
 8005f4e:	f022 0273 	bic.w	r2, r2, #115	; 0x73
 8005f52:	432a      	orrs	r2, r5
 8005f54:	688d      	ldr	r5, [r1, #8]
 8005f56:	f423 7300 	bic.w	r3, r3, #512	; 0x200
 8005f5a:	ea43 2305 	orr.w	r3, r3, r5, lsl #8
 8005f5e:	4d0b      	ldr	r5, [pc, #44]	; (8005f8c <TIM_OC3_SetConfig+0x50>)
 8005f60:	42a8      	cmp	r0, r5
 8005f62:	d10d      	bne.n	8005f80 <TIM_OC3_SetConfig+0x44>
 8005f64:	68cd      	ldr	r5, [r1, #12]
 8005f66:	f423 6300 	bic.w	r3, r3, #2048	; 0x800
 8005f6a:	ea43 2305 	orr.w	r3, r3, r5, lsl #8
 8005f6e:	e9d1 5605 	ldrd	r5, r6, [r1, #20]
 8005f72:	f424 5440 	bic.w	r4, r4, #12288	; 0x3000
 8005f76:	4335      	orrs	r5, r6
 8005f78:	f423 6380 	bic.w	r3, r3, #1024	; 0x400
 8005f7c:	ea44 1405 	orr.w	r4, r4, r5, lsl #4
 8005f80:	6044      	str	r4, [r0, #4]
 8005f82:	61c2      	str	r2, [r0, #28]
 8005f84:	684a      	ldr	r2, [r1, #4]
 8005f86:	63c2      	str	r2, [r0, #60]	; 0x3c
 8005f88:	6203      	str	r3, [r0, #32]
 8005f8a:	bd70      	pop	{r4, r5, r6, pc}
 8005f8c:	40010000 	.word	0x40010000

08005f90 <TIM_OC4_SetConfig>:
 8005f90:	6a03      	ldr	r3, [r0, #32]
 8005f92:	f423 5380 	bic.w	r3, r3, #4096	; 0x1000
 8005f96:	6203      	str	r3, [r0, #32]
 8005f98:	6a03      	ldr	r3, [r0, #32]
 8005f9a:	b530      	push	{r4, r5, lr}
 8005f9c:	6844      	ldr	r4, [r0, #4]
 8005f9e:	69c2      	ldr	r2, [r0, #28]
 8005fa0:	680d      	ldr	r5, [r1, #0]
 8005fa2:	f422 42e6 	bic.w	r2, r2, #29440	; 0x7300
 8005fa6:	ea42 2205 	orr.w	r2, r2, r5, lsl #8
 8005faa:	688d      	ldr	r5, [r1, #8]
 8005fac:	f423 5300 	bic.w	r3, r3, #8192	; 0x2000
 8005fb0:	ea43 3305 	orr.w	r3, r3, r5, lsl #12
 8005fb4:	4d06      	ldr	r5, [pc, #24]	; (8005fd0 <TIM_OC4_SetConfig+0x40>)
 8005fb6:	42a8      	cmp	r0, r5
 8005fb8:	bf02      	ittt	eq
 8005fba:	694d      	ldreq	r5, [r1, #20]
 8005fbc:	f424 4480 	biceq.w	r4, r4, #16384	; 0x4000
 8005fc0:	ea44 1485 	orreq.w	r4, r4, r5, lsl #6
 8005fc4:	6044      	str	r4, [r0, #4]
 8005fc6:	61c2      	str	r2, [r0, #28]
 8005fc8:	684a      	ldr	r2, [r1, #4]
 8005fca:	6402      	str	r2, [r0, #64]	; 0x40
 8005fcc:	6203      	str	r3, [r0, #32]
 8005fce:	bd30      	pop	{r4, r5, pc}
 8005fd0:	40010000 	.word	0x40010000

08005fd4 <HAL_TIM_Base_Start_IT>:
 8005fd4:	6803      	ldr	r3, [r0, #0]
 8005fd6:	68da      	ldr	r2, [r3, #12]
 8005fd8:	f042 0201 	orr.w	r2, r2, #1
 8005fdc:	60da      	str	r2, [r3, #12]
 8005fde:	689a      	ldr	r2, [r3, #8]
 8005fe0:	f002 0207 	and.w	r2, r2, #7
 8005fe4:	2a06      	cmp	r2, #6
 8005fe6:	bf1e      	ittt	ne
 8005fe8:	681a      	ldrne	r2, [r3, #0]
 8005fea:	f042 0201 	orrne.w	r2, r2, #1
 8005fee:	601a      	strne	r2, [r3, #0]
 8005ff0:	2000      	movs	r0, #0
 8005ff2:	4770      	bx	lr

08005ff4 <HAL_TIM_PWM_MspInit>:
 8005ff4:	4770      	bx	lr

08005ff6 <HAL_TIM_Encoder_Start>:
 8005ff6:	6803      	ldr	r3, [r0, #0]
 8005ff8:	b189      	cbz	r1, 800601e <HAL_TIM_Encoder_Start+0x28>
 8005ffa:	2904      	cmp	r1, #4
 8005ffc:	d007      	beq.n	800600e <HAL_TIM_Encoder_Start+0x18>
 8005ffe:	6a1a      	ldr	r2, [r3, #32]
 8006000:	f022 0201 	bic.w	r2, r2, #1
 8006004:	621a      	str	r2, [r3, #32]
 8006006:	6a1a      	ldr	r2, [r3, #32]
 8006008:	f042 0201 	orr.w	r2, r2, #1
 800600c:	621a      	str	r2, [r3, #32]
 800600e:	6a1a      	ldr	r2, [r3, #32]
 8006010:	f022 0210 	bic.w	r2, r2, #16
 8006014:	621a      	str	r2, [r3, #32]
 8006016:	6a1a      	ldr	r2, [r3, #32]
 8006018:	f042 0210 	orr.w	r2, r2, #16
 800601c:	e006      	b.n	800602c <HAL_TIM_Encoder_Start+0x36>
 800601e:	6a1a      	ldr	r2, [r3, #32]
 8006020:	f022 0201 	bic.w	r2, r2, #1
 8006024:	621a      	str	r2, [r3, #32]
 8006026:	6a1a      	ldr	r2, [r3, #32]
 8006028:	f042 0201 	orr.w	r2, r2, #1
 800602c:	621a      	str	r2, [r3, #32]
 800602e:	681a      	ldr	r2, [r3, #0]
 8006030:	f042 0201 	orr.w	r2, r2, #1
 8006034:	601a      	str	r2, [r3, #0]
 8006036:	2000      	movs	r0, #0
 8006038:	4770      	bx	lr

0800603a <HAL_TIM_OC_DelayElapsedCallback>:
 800603a:	4770      	bx	lr

0800603c <HAL_TIM_IC_CaptureCallback>:
 800603c:	4770      	bx	lr

0800603e <HAL_TIM_PWM_PulseFinishedCallback>:
 800603e:	4770      	bx	lr

08006040 <HAL_TIM_TriggerCallback>:
 8006040:	4770      	bx	lr

08006042 <HAL_TIM_IRQHandler>:
 8006042:	6803      	ldr	r3, [r0, #0]
 8006044:	691a      	ldr	r2, [r3, #16]
 8006046:	0791      	lsls	r1, r2, #30
 8006048:	b510      	push	{r4, lr}
 800604a:	4604      	mov	r4, r0
 800604c:	d50e      	bpl.n	800606c <HAL_TIM_IRQHandler+0x2a>
 800604e:	68da      	ldr	r2, [r3, #12]
 8006050:	0792      	lsls	r2, r2, #30
 8006052:	d50b      	bpl.n	800606c <HAL_TIM_IRQHandler+0x2a>
 8006054:	f06f 0202 	mvn.w	r2, #2
 8006058:	611a      	str	r2, [r3, #16]
 800605a:	699b      	ldr	r3, [r3, #24]
 800605c:	2201      	movs	r2, #1
 800605e:	079b      	lsls	r3, r3, #30
 8006060:	7702      	strb	r2, [r0, #28]
 8006062:	d077      	beq.n	8006154 <HAL_TIM_IRQHandler+0x112>
 8006064:	f7ff ffea 	bl	800603c <HAL_TIM_IC_CaptureCallback>
 8006068:	2300      	movs	r3, #0
 800606a:	7723      	strb	r3, [r4, #28]
 800606c:	6823      	ldr	r3, [r4, #0]
 800606e:	691a      	ldr	r2, [r3, #16]
 8006070:	0750      	lsls	r0, r2, #29
 8006072:	d510      	bpl.n	8006096 <HAL_TIM_IRQHandler+0x54>
 8006074:	68da      	ldr	r2, [r3, #12]
 8006076:	0751      	lsls	r1, r2, #29
 8006078:	d50d      	bpl.n	8006096 <HAL_TIM_IRQHandler+0x54>
 800607a:	f06f 0204 	mvn.w	r2, #4
 800607e:	611a      	str	r2, [r3, #16]
 8006080:	699b      	ldr	r3, [r3, #24]
 8006082:	2202      	movs	r2, #2
 8006084:	f413 7f40 	tst.w	r3, #768	; 0x300
 8006088:	7722      	strb	r2, [r4, #28]
 800608a:	4620      	mov	r0, r4
 800608c:	d068      	beq.n	8006160 <HAL_TIM_IRQHandler+0x11e>
 800608e:	f7ff ffd5 	bl	800603c <HAL_TIM_IC_CaptureCallback>
 8006092:	2300      	movs	r3, #0
 8006094:	7723      	strb	r3, [r4, #28]
 8006096:	6823      	ldr	r3, [r4, #0]
 8006098:	691a      	ldr	r2, [r3, #16]
 800609a:	0712      	lsls	r2, r2, #28
 800609c:	d50f      	bpl.n	80060be <HAL_TIM_IRQHandler+0x7c>
 800609e:	68da      	ldr	r2, [r3, #12]
 80060a0:	0710      	lsls	r0, r2, #28
 80060a2:	d50c      	bpl.n	80060be <HAL_TIM_IRQHandler+0x7c>
 80060a4:	f06f 0208 	mvn.w	r2, #8
 80060a8:	611a      	str	r2, [r3, #16]
 80060aa:	69db      	ldr	r3, [r3, #28]
 80060ac:	2204      	movs	r2, #4
 80060ae:	0799      	lsls	r1, r3, #30
 80060b0:	7722      	strb	r2, [r4, #28]
 80060b2:	4620      	mov	r0, r4
 80060b4:	d05a      	beq.n	800616c <HAL_TIM_IRQHandler+0x12a>
 80060b6:	f7ff ffc1 	bl	800603c <HAL_TIM_IC_CaptureCallback>
 80060ba:	2300      	movs	r3, #0
 80060bc:	7723      	strb	r3, [r4, #28]
 80060be:	6823      	ldr	r3, [r4, #0]
 80060c0:	691a      	ldr	r2, [r3, #16]
 80060c2:	06d2      	lsls	r2, r2, #27
 80060c4:	d510      	bpl.n	80060e8 <HAL_TIM_IRQHandler+0xa6>
 80060c6:	68da      	ldr	r2, [r3, #12]
 80060c8:	06d0      	lsls	r0, r2, #27
 80060ca:	d50d      	bpl.n	80060e8 <HAL_TIM_IRQHandler+0xa6>
 80060cc:	f06f 0210 	mvn.w	r2, #16
 80060d0:	611a      	str	r2, [r3, #16]
 80060d2:	69db      	ldr	r3, [r3, #28]
 80060d4:	2208      	movs	r2, #8
 80060d6:	f413 7f40 	tst.w	r3, #768	; 0x300
 80060da:	7722      	strb	r2, [r4, #28]
 80060dc:	4620      	mov	r0, r4
 80060de:	d04b      	beq.n	8006178 <HAL_TIM_IRQHandler+0x136>
 80060e0:	f7ff ffac 	bl	800603c <HAL_TIM_IC_CaptureCallback>
 80060e4:	2300      	movs	r3, #0
 80060e6:	7723      	strb	r3, [r4, #28]
 80060e8:	6823      	ldr	r3, [r4, #0]
 80060ea:	691a      	ldr	r2, [r3, #16]
 80060ec:	07d1      	lsls	r1, r2, #31
 80060ee:	d508      	bpl.n	8006102 <HAL_TIM_IRQHandler+0xc0>
 80060f0:	68da      	ldr	r2, [r3, #12]
 80060f2:	07d2      	lsls	r2, r2, #31
 80060f4:	d505      	bpl.n	8006102 <HAL_TIM_IRQHandler+0xc0>
 80060f6:	f06f 0201 	mvn.w	r2, #1
 80060fa:	611a      	str	r2, [r3, #16]
 80060fc:	4620      	mov	r0, r4
 80060fe:	f7fa fc2b 	bl	8000958 <HAL_TIM_PeriodElapsedCallback>
 8006102:	6823      	ldr	r3, [r4, #0]
 8006104:	691a      	ldr	r2, [r3, #16]
 8006106:	0610      	lsls	r0, r2, #24
 8006108:	d508      	bpl.n	800611c <HAL_TIM_IRQHandler+0xda>
 800610a:	68da      	ldr	r2, [r3, #12]
 800610c:	0611      	lsls	r1, r2, #24
 800610e:	d505      	bpl.n	800611c <HAL_TIM_IRQHandler+0xda>
 8006110:	f06f 0280 	mvn.w	r2, #128	; 0x80
 8006114:	611a      	str	r2, [r3, #16]
 8006116:	4620      	mov	r0, r4
 8006118:	f000 fabd 	bl	8006696 <HAL_TIMEx_BreakCallback>
 800611c:	6823      	ldr	r3, [r4, #0]
 800611e:	691a      	ldr	r2, [r3, #16]
 8006120:	0652      	lsls	r2, r2, #25
 8006122:	d508      	bpl.n	8006136 <HAL_TIM_IRQHandler+0xf4>
 8006124:	68da      	ldr	r2, [r3, #12]
 8006126:	0650      	lsls	r0, r2, #25
 8006128:	d505      	bpl.n	8006136 <HAL_TIM_IRQHandler+0xf4>
 800612a:	f06f 0240 	mvn.w	r2, #64	; 0x40
 800612e:	611a      	str	r2, [r3, #16]
 8006130:	4620      	mov	r0, r4
 8006132:	f7ff ff85 	bl	8006040 <HAL_TIM_TriggerCallback>
 8006136:	6823      	ldr	r3, [r4, #0]
 8006138:	691a      	ldr	r2, [r3, #16]
 800613a:	0691      	lsls	r1, r2, #26
 800613c:	d522      	bpl.n	8006184 <HAL_TIM_IRQHandler+0x142>
 800613e:	68da      	ldr	r2, [r3, #12]
 8006140:	0692      	lsls	r2, r2, #26
 8006142:	d51f      	bpl.n	8006184 <HAL_TIM_IRQHandler+0x142>
 8006144:	f06f 0220 	mvn.w	r2, #32
 8006148:	4620      	mov	r0, r4
 800614a:	611a      	str	r2, [r3, #16]
 800614c:	e8bd 4010 	ldmia.w	sp!, {r4, lr}
 8006150:	f000 baa0 	b.w	8006694 <HAL_TIMEx_CommutCallback>
 8006154:	f7ff ff71 	bl	800603a <HAL_TIM_OC_DelayElapsedCallback>
 8006158:	4620      	mov	r0, r4
 800615a:	f7ff ff70 	bl	800603e <HAL_TIM_PWM_PulseFinishedCallback>
 800615e:	e783      	b.n	8006068 <HAL_TIM_IRQHandler+0x26>
 8006160:	f7ff ff6b 	bl	800603a <HAL_TIM_OC_DelayElapsedCallback>
 8006164:	4620      	mov	r0, r4
 8006166:	f7ff ff6a 	bl	800603e <HAL_TIM_PWM_PulseFinishedCallback>
 800616a:	e792      	b.n	8006092 <HAL_TIM_IRQHandler+0x50>
 800616c:	f7ff ff65 	bl	800603a <HAL_TIM_OC_DelayElapsedCallback>
 8006170:	4620      	mov	r0, r4
 8006172:	f7ff ff64 	bl	800603e <HAL_TIM_PWM_PulseFinishedCallback>
 8006176:	e7a0      	b.n	80060ba <HAL_TIM_IRQHandler+0x78>
 8006178:	f7ff ff5f 	bl	800603a <HAL_TIM_OC_DelayElapsedCallback>
 800617c:	4620      	mov	r0, r4
 800617e:	f7ff ff5e 	bl	800603e <HAL_TIM_PWM_PulseFinishedCallback>
 8006182:	e7af      	b.n	80060e4 <HAL_TIM_IRQHandler+0xa2>
 8006184:	bd10      	pop	{r4, pc}
	...

08006188 <TIM_Base_SetConfig>:
 8006188:	4a24      	ldr	r2, [pc, #144]	; (800621c <TIM_Base_SetConfig+0x94>)
 800618a:	6803      	ldr	r3, [r0, #0]
 800618c:	4290      	cmp	r0, r2
 800618e:	d00e      	beq.n	80061ae <TIM_Base_SetConfig+0x26>
 8006190:	f1b0 4f80 	cmp.w	r0, #1073741824	; 0x40000000
 8006194:	d00b      	beq.n	80061ae <TIM_Base_SetConfig+0x26>
 8006196:	f5a2 427c 	sub.w	r2, r2, #64512	; 0xfc00
 800619a:	4290      	cmp	r0, r2
 800619c:	d007      	beq.n	80061ae <TIM_Base_SetConfig+0x26>
 800619e:	f502 6280 	add.w	r2, r2, #1024	; 0x400
 80061a2:	4290      	cmp	r0, r2
 80061a4:	d003      	beq.n	80061ae <TIM_Base_SetConfig+0x26>
 80061a6:	f502 6280 	add.w	r2, r2, #1024	; 0x400
 80061aa:	4290      	cmp	r0, r2
 80061ac:	d115      	bne.n	80061da <TIM_Base_SetConfig+0x52>
 80061ae:	684a      	ldr	r2, [r1, #4]
 80061b0:	f023 0370 	bic.w	r3, r3, #112	; 0x70
 80061b4:	4313      	orrs	r3, r2
 80061b6:	4a19      	ldr	r2, [pc, #100]	; (800621c <TIM_Base_SetConfig+0x94>)
 80061b8:	4290      	cmp	r0, r2
 80061ba:	d019      	beq.n	80061f0 <TIM_Base_SetConfig+0x68>
 80061bc:	f1b0 4f80 	cmp.w	r0, #1073741824	; 0x40000000
 80061c0:	d016      	beq.n	80061f0 <TIM_Base_SetConfig+0x68>
 80061c2:	f5a2 427c 	sub.w	r2, r2, #64512	; 0xfc00
 80061c6:	4290      	cmp	r0, r2
 80061c8:	d012      	beq.n	80061f0 <TIM_Base_SetConfig+0x68>
 80061ca:	f502 6280 	add.w	r2, r2, #1024	; 0x400
 80061ce:	4290      	cmp	r0, r2
 80061d0:	d00e      	beq.n	80061f0 <TIM_Base_SetConfig+0x68>
 80061d2:	f502 6280 	add.w	r2, r2, #1024	; 0x400
 80061d6:	4290      	cmp	r0, r2
 80061d8:	d00a      	beq.n	80061f0 <TIM_Base_SetConfig+0x68>
 80061da:	4a11      	ldr	r2, [pc, #68]	; (8006220 <TIM_Base_SetConfig+0x98>)
 80061dc:	4290      	cmp	r0, r2
 80061de:	d007      	beq.n	80061f0 <TIM_Base_SetConfig+0x68>
 80061e0:	f502 6280 	add.w	r2, r2, #1024	; 0x400
 80061e4:	4290      	cmp	r0, r2
 80061e6:	d003      	beq.n	80061f0 <TIM_Base_SetConfig+0x68>
 80061e8:	f502 6280 	add.w	r2, r2, #1024	; 0x400
 80061ec:	4290      	cmp	r0, r2
 80061ee:	d103      	bne.n	80061f8 <TIM_Base_SetConfig+0x70>
 80061f0:	68ca      	ldr	r2, [r1, #12]
 80061f2:	f423 7340 	bic.w	r3, r3, #768	; 0x300
 80061f6:	4313      	orrs	r3, r2
 80061f8:	694a      	ldr	r2, [r1, #20]
 80061fa:	f023 0380 	bic.w	r3, r3, #128	; 0x80
 80061fe:	4313      	orrs	r3, r2
 8006200:	6003      	str	r3, [r0, #0]
 8006202:	688b      	ldr	r3, [r1, #8]
 8006204:	62c3      	str	r3, [r0, #44]	; 0x2c
 8006206:	680b      	ldr	r3, [r1, #0]
 8006208:	6283      	str	r3, [r0, #40]	; 0x28
 800620a:	4b04      	ldr	r3, [pc, #16]	; (800621c <TIM_Base_SetConfig+0x94>)
 800620c:	4298      	cmp	r0, r3
 800620e:	bf04      	itt	eq
 8006210:	690b      	ldreq	r3, [r1, #16]
 8006212:	6303      	streq	r3, [r0, #48]	; 0x30
 8006214:	2301      	movs	r3, #1
 8006216:	6143      	str	r3, [r0, #20]
 8006218:	4770      	bx	lr
 800621a:	bf00      	nop
 800621c:	40010000 	.word	0x40010000
 8006220:	40014000 	.word	0x40014000

08006224 <HAL_TIM_Base_Init>:
 8006224:	b510      	push	{r4, lr}
 8006226:	4604      	mov	r4, r0
 8006228:	b1a0      	cbz	r0, 8006254 <HAL_TIM_Base_Init+0x30>
 800622a:	f890 303d 	ldrb.w	r3, [r0, #61]	; 0x3d
 800622e:	f003 02ff 	and.w	r2, r3, #255	; 0xff
 8006232:	b91b      	cbnz	r3, 800623c <HAL_TIM_Base_Init+0x18>
 8006234:	f880 203c 	strb.w	r2, [r0, #60]	; 0x3c
 8006238:	f7fb fbb0 	bl	800199c <HAL_TIM_Base_MspInit>
 800623c:	2302      	movs	r3, #2
 800623e:	f884 303d 	strb.w	r3, [r4, #61]	; 0x3d
 8006242:	6820      	ldr	r0, [r4, #0]
 8006244:	1d21      	adds	r1, r4, #4
 8006246:	f7ff ff9f 	bl	8006188 <TIM_Base_SetConfig>
 800624a:	2301      	movs	r3, #1
 800624c:	f884 303d 	strb.w	r3, [r4, #61]	; 0x3d
 8006250:	2000      	movs	r0, #0
 8006252:	bd10      	pop	{r4, pc}
 8006254:	2001      	movs	r0, #1
 8006256:	e7fc      	b.n	8006252 <HAL_TIM_Base_Init+0x2e>

08006258 <HAL_TIM_PWM_Init>:
 8006258:	b510      	push	{r4, lr}
 800625a:	4604      	mov	r4, r0
 800625c:	b1a0      	cbz	r0, 8006288 <HAL_TIM_PWM_Init+0x30>
 800625e:	f890 303d 	ldrb.w	r3, [r0, #61]	; 0x3d
 8006262:	f003 02ff 	and.w	r2, r3, #255	; 0xff
 8006266:	b91b      	cbnz	r3, 8006270 <HAL_TIM_PWM_Init+0x18>
 8006268:	f880 203c 	strb.w	r2, [r0, #60]	; 0x3c
 800626c:	f7ff fec2 	bl	8005ff4 <HAL_TIM_PWM_MspInit>
 8006270:	2302      	movs	r3, #2
 8006272:	f884 303d 	strb.w	r3, [r4, #61]	; 0x3d
 8006276:	6820      	ldr	r0, [r4, #0]
 8006278:	1d21      	adds	r1, r4, #4
 800627a:	f7ff ff85 	bl	8006188 <TIM_Base_SetConfig>
 800627e:	2301      	movs	r3, #1
 8006280:	f884 303d 	strb.w	r3, [r4, #61]	; 0x3d
 8006284:	2000      	movs	r0, #0
 8006286:	bd10      	pop	{r4, pc}
 8006288:	2001      	movs	r0, #1
 800628a:	e7fc      	b.n	8006286 <HAL_TIM_PWM_Init+0x2e>

0800628c <HAL_TIM_Encoder_Init>:
 800628c:	b5f8      	push	{r3, r4, r5, r6, r7, lr}
 800628e:	460c      	mov	r4, r1
 8006290:	4605      	mov	r5, r0
 8006292:	2800      	cmp	r0, #0
 8006294:	d043      	beq.n	800631e <HAL_TIM_Encoder_Init+0x92>
 8006296:	f890 303d 	ldrb.w	r3, [r0, #61]	; 0x3d
 800629a:	f003 02ff 	and.w	r2, r3, #255	; 0xff
 800629e:	b91b      	cbnz	r3, 80062a8 <HAL_TIM_Encoder_Init+0x1c>
 80062a0:	f880 203c 	strb.w	r2, [r0, #60]	; 0x3c
 80062a4:	f7fb fbce 	bl	8001a44 <HAL_TIM_Encoder_MspInit>
 80062a8:	4629      	mov	r1, r5
 80062aa:	2302      	movs	r3, #2
 80062ac:	f851 0b04 	ldr.w	r0, [r1], #4
 80062b0:	f885 303d 	strb.w	r3, [r5, #61]	; 0x3d
 80062b4:	6883      	ldr	r3, [r0, #8]
 80062b6:	f423 4380 	bic.w	r3, r3, #16384	; 0x4000
 80062ba:	f023 0307 	bic.w	r3, r3, #7
 80062be:	6083      	str	r3, [r0, #8]
 80062c0:	f7ff ff62 	bl	8006188 <TIM_Base_SetConfig>
 80062c4:	6828      	ldr	r0, [r5, #0]
 80062c6:	6823      	ldr	r3, [r4, #0]
 80062c8:	6886      	ldr	r6, [r0, #8]
 80062ca:	6982      	ldr	r2, [r0, #24]
 80062cc:	68a1      	ldr	r1, [r4, #8]
 80062ce:	6a07      	ldr	r7, [r0, #32]
 80062d0:	431e      	orrs	r6, r3
 80062d2:	69a3      	ldr	r3, [r4, #24]
 80062d4:	f422 7240 	bic.w	r2, r2, #768	; 0x300
 80062d8:	f022 0203 	bic.w	r2, r2, #3
 80062dc:	ea41 2303 	orr.w	r3, r1, r3, lsl #8
 80062e0:	4313      	orrs	r3, r2
 80062e2:	f423 427c 	bic.w	r2, r3, #64512	; 0xfc00
 80062e6:	6923      	ldr	r3, [r4, #16]
 80062e8:	69e1      	ldr	r1, [r4, #28]
 80062ea:	011b      	lsls	r3, r3, #4
 80062ec:	ea43 2301 	orr.w	r3, r3, r1, lsl #8
 80062f0:	68e1      	ldr	r1, [r4, #12]
 80062f2:	430b      	orrs	r3, r1
 80062f4:	6a21      	ldr	r1, [r4, #32]
 80062f6:	f022 02fc 	bic.w	r2, r2, #252	; 0xfc
 80062fa:	ea43 3301 	orr.w	r3, r3, r1, lsl #12
 80062fe:	4313      	orrs	r3, r2
 8006300:	6961      	ldr	r1, [r4, #20]
 8006302:	f027 02aa 	bic.w	r2, r7, #170	; 0xaa
 8006306:	6867      	ldr	r7, [r4, #4]
 8006308:	6086      	str	r6, [r0, #8]
 800630a:	ea47 1701 	orr.w	r7, r7, r1, lsl #4
 800630e:	6183      	str	r3, [r0, #24]
 8006310:	4317      	orrs	r7, r2
 8006312:	2301      	movs	r3, #1
 8006314:	6207      	str	r7, [r0, #32]
 8006316:	f885 303d 	strb.w	r3, [r5, #61]	; 0x3d
 800631a:	2000      	movs	r0, #0
 800631c:	bdf8      	pop	{r3, r4, r5, r6, r7, pc}
 800631e:	2001      	movs	r0, #1
 8006320:	e7fc      	b.n	800631c <HAL_TIM_Encoder_Init+0x90>
	...

08006324 <TIM_OC2_SetConfig>:
 8006324:	6a03      	ldr	r3, [r0, #32]
 8006326:	f023 0310 	bic.w	r3, r3, #16
 800632a:	6203      	str	r3, [r0, #32]
 800632c:	6a03      	ldr	r3, [r0, #32]
 800632e:	b570      	push	{r4, r5, r6, lr}
 8006330:	6844      	ldr	r4, [r0, #4]
 8006332:	6982      	ldr	r2, [r0, #24]
 8006334:	680d      	ldr	r5, [r1, #0]
 8006336:	f422 42e6 	bic.w	r2, r2, #29440	; 0x7300
 800633a:	ea42 2205 	orr.w	r2, r2, r5, lsl #8
 800633e:	688d      	ldr	r5, [r1, #8]
 8006340:	f023 0320 	bic.w	r3, r3, #32
 8006344:	ea43 1305 	orr.w	r3, r3, r5, lsl #4
 8006348:	4d0b      	ldr	r5, [pc, #44]	; (8006378 <TIM_OC2_SetConfig+0x54>)
 800634a:	42a8      	cmp	r0, r5
 800634c:	d10d      	bne.n	800636a <TIM_OC2_SetConfig+0x46>
 800634e:	68cd      	ldr	r5, [r1, #12]
 8006350:	f023 0380 	bic.w	r3, r3, #128	; 0x80
 8006354:	ea43 1305 	orr.w	r3, r3, r5, lsl #4
 8006358:	e9d1 5605 	ldrd	r5, r6, [r1, #20]
 800635c:	f424 6440 	bic.w	r4, r4, #3072	; 0xc00
 8006360:	4335      	orrs	r5, r6
 8006362:	f023 0340 	bic.w	r3, r3, #64	; 0x40
 8006366:	ea44 0485 	orr.w	r4, r4, r5, lsl #2
 800636a:	6044      	str	r4, [r0, #4]
 800636c:	6182      	str	r2, [r0, #24]
 800636e:	684a      	ldr	r2, [r1, #4]
 8006370:	6382      	str	r2, [r0, #56]	; 0x38
 8006372:	6203      	str	r3, [r0, #32]
 8006374:	bd70      	pop	{r4, r5, r6, pc}
 8006376:	bf00      	nop
 8006378:	40010000 	.word	0x40010000

0800637c <HAL_TIM_PWM_ConfigChannel>:
 800637c:	b538      	push	{r3, r4, r5, lr}
 800637e:	f890 303c 	ldrb.w	r3, [r0, #60]	; 0x3c
 8006382:	2b01      	cmp	r3, #1
 8006384:	4604      	mov	r4, r0
 8006386:	f04f 0002 	mov.w	r0, #2
 800638a:	d025      	beq.n	80063d8 <HAL_TIM_PWM_ConfigChannel+0x5c>
 800638c:	2301      	movs	r3, #1
 800638e:	f884 303c 	strb.w	r3, [r4, #60]	; 0x3c
 8006392:	f884 003d 	strb.w	r0, [r4, #61]	; 0x3d
 8006396:	2a0c      	cmp	r2, #12
 8006398:	d818      	bhi.n	80063cc <HAL_TIM_PWM_ConfigChannel+0x50>
 800639a:	e8df f002 	tbb	[pc, r2]
 800639e:	1707      	.short	0x1707
 80063a0:	171e1717 	.word	0x171e1717
 80063a4:	172f1717 	.word	0x172f1717
 80063a8:	1717      	.short	0x1717
 80063aa:	40          	.byte	0x40
 80063ab:	00          	.byte	0x00
 80063ac:	6820      	ldr	r0, [r4, #0]
 80063ae:	f7ff fd9d 	bl	8005eec <TIM_OC1_SetConfig>
 80063b2:	6823      	ldr	r3, [r4, #0]
 80063b4:	6909      	ldr	r1, [r1, #16]
 80063b6:	699a      	ldr	r2, [r3, #24]
 80063b8:	f042 0208 	orr.w	r2, r2, #8
 80063bc:	619a      	str	r2, [r3, #24]
 80063be:	699a      	ldr	r2, [r3, #24]
 80063c0:	f022 0204 	bic.w	r2, r2, #4
 80063c4:	619a      	str	r2, [r3, #24]
 80063c6:	699a      	ldr	r2, [r3, #24]
 80063c8:	430a      	orrs	r2, r1
 80063ca:	619a      	str	r2, [r3, #24]
 80063cc:	2301      	movs	r3, #1
 80063ce:	2000      	movs	r0, #0
 80063d0:	f884 303d 	strb.w	r3, [r4, #61]	; 0x3d
 80063d4:	f884 003c 	strb.w	r0, [r4, #60]	; 0x3c
 80063d8:	bd38      	pop	{r3, r4, r5, pc}
 80063da:	6820      	ldr	r0, [r4, #0]
 80063dc:	f7ff ffa2 	bl	8006324 <TIM_OC2_SetConfig>
 80063e0:	6823      	ldr	r3, [r4, #0]
 80063e2:	6909      	ldr	r1, [r1, #16]
 80063e4:	699a      	ldr	r2, [r3, #24]
 80063e6:	f442 6200 	orr.w	r2, r2, #2048	; 0x800
 80063ea:	619a      	str	r2, [r3, #24]
 80063ec:	699a      	ldr	r2, [r3, #24]
 80063ee:	f422 6280 	bic.w	r2, r2, #1024	; 0x400
 80063f2:	619a      	str	r2, [r3, #24]
 80063f4:	699a      	ldr	r2, [r3, #24]
 80063f6:	ea42 2201 	orr.w	r2, r2, r1, lsl #8
 80063fa:	e7e6      	b.n	80063ca <HAL_TIM_PWM_ConfigChannel+0x4e>
 80063fc:	6820      	ldr	r0, [r4, #0]
 80063fe:	f7ff fd9d 	bl	8005f3c <TIM_OC3_SetConfig>
 8006402:	6823      	ldr	r3, [r4, #0]
 8006404:	6909      	ldr	r1, [r1, #16]
 8006406:	69da      	ldr	r2, [r3, #28]
 8006408:	f042 0208 	orr.w	r2, r2, #8
 800640c:	61da      	str	r2, [r3, #28]
 800640e:	69da      	ldr	r2, [r3, #28]
 8006410:	f022 0204 	bic.w	r2, r2, #4
 8006414:	61da      	str	r2, [r3, #28]
 8006416:	69da      	ldr	r2, [r3, #28]
 8006418:	430a      	orrs	r2, r1
 800641a:	61da      	str	r2, [r3, #28]
 800641c:	e7d6      	b.n	80063cc <HAL_TIM_PWM_ConfigChannel+0x50>
 800641e:	6820      	ldr	r0, [r4, #0]
 8006420:	f7ff fdb6 	bl	8005f90 <TIM_OC4_SetConfig>
 8006424:	6823      	ldr	r3, [r4, #0]
 8006426:	6909      	ldr	r1, [r1, #16]
 8006428:	69da      	ldr	r2, [r3, #28]
 800642a:	f442 6200 	orr.w	r2, r2, #2048	; 0x800
 800642e:	61da      	str	r2, [r3, #28]
 8006430:	69da      	ldr	r2, [r3, #28]
 8006432:	f422 6280 	bic.w	r2, r2, #1024	; 0x400
 8006436:	61da      	str	r2, [r3, #28]
 8006438:	69da      	ldr	r2, [r3, #28]
 800643a:	ea42 2201 	orr.w	r2, r2, r1, lsl #8
 800643e:	e7ec      	b.n	800641a <HAL_TIM_PWM_ConfigChannel+0x9e>

08006440 <TIM_ETR_SetConfig>:
 8006440:	b510      	push	{r4, lr}
 8006442:	6884      	ldr	r4, [r0, #8]
 8006444:	430a      	orrs	r2, r1
 8006446:	f424 447f 	bic.w	r4, r4, #65280	; 0xff00
 800644a:	ea42 2303 	orr.w	r3, r2, r3, lsl #8
 800644e:	4323      	orrs	r3, r4
 8006450:	6083      	str	r3, [r0, #8]
 8006452:	bd10      	pop	{r4, pc}

08006454 <HAL_TIM_ConfigClockSource>:
 8006454:	f890 303c 	ldrb.w	r3, [r0, #60]	; 0x3c
 8006458:	2b01      	cmp	r3, #1
 800645a:	b570      	push	{r4, r5, r6, lr}
 800645c:	4604      	mov	r4, r0
 800645e:	f04f 0002 	mov.w	r0, #2
 8006462:	d019      	beq.n	8006498 <HAL_TIM_ConfigClockSource+0x44>
 8006464:	f884 003d 	strb.w	r0, [r4, #61]	; 0x3d
 8006468:	6820      	ldr	r0, [r4, #0]
 800646a:	2301      	movs	r3, #1
 800646c:	f884 303c 	strb.w	r3, [r4, #60]	; 0x3c
 8006470:	6883      	ldr	r3, [r0, #8]
 8006472:	f423 437f 	bic.w	r3, r3, #65280	; 0xff00
 8006476:	f023 0377 	bic.w	r3, r3, #119	; 0x77
 800647a:	6083      	str	r3, [r0, #8]
 800647c:	680b      	ldr	r3, [r1, #0]
 800647e:	2b40      	cmp	r3, #64	; 0x40
 8006480:	d065      	beq.n	800654e <HAL_TIM_ConfigClockSource+0xfa>
 8006482:	d815      	bhi.n	80064b0 <HAL_TIM_ConfigClockSource+0x5c>
 8006484:	2b10      	cmp	r3, #16
 8006486:	d00c      	beq.n	80064a2 <HAL_TIM_ConfigClockSource+0x4e>
 8006488:	d807      	bhi.n	800649a <HAL_TIM_ConfigClockSource+0x46>
 800648a:	b153      	cbz	r3, 80064a2 <HAL_TIM_ConfigClockSource+0x4e>
 800648c:	2301      	movs	r3, #1
 800648e:	2000      	movs	r0, #0
 8006490:	f884 303d 	strb.w	r3, [r4, #61]	; 0x3d
 8006494:	f884 003c 	strb.w	r0, [r4, #60]	; 0x3c
 8006498:	bd70      	pop	{r4, r5, r6, pc}
 800649a:	2b20      	cmp	r3, #32
 800649c:	d001      	beq.n	80064a2 <HAL_TIM_ConfigClockSource+0x4e>
 800649e:	2b30      	cmp	r3, #48	; 0x30
 80064a0:	d1f4      	bne.n	800648c <HAL_TIM_ConfigClockSource+0x38>
 80064a2:	6882      	ldr	r2, [r0, #8]
 80064a4:	f043 0307 	orr.w	r3, r3, #7
 80064a8:	f022 0270 	bic.w	r2, r2, #112	; 0x70
 80064ac:	4313      	orrs	r3, r2
 80064ae:	e01a      	b.n	80064e6 <HAL_TIM_ConfigClockSource+0x92>
 80064b0:	2b60      	cmp	r3, #96	; 0x60
 80064b2:	d034      	beq.n	800651e <HAL_TIM_ConfigClockSource+0xca>
 80064b4:	d819      	bhi.n	80064ea <HAL_TIM_ConfigClockSource+0x96>
 80064b6:	2b50      	cmp	r3, #80	; 0x50
 80064b8:	d1e8      	bne.n	800648c <HAL_TIM_ConfigClockSource+0x38>
 80064ba:	684a      	ldr	r2, [r1, #4]
 80064bc:	68ce      	ldr	r6, [r1, #12]
 80064be:	6a01      	ldr	r1, [r0, #32]
 80064c0:	6a05      	ldr	r5, [r0, #32]
 80064c2:	f025 0501 	bic.w	r5, r5, #1
 80064c6:	6205      	str	r5, [r0, #32]
 80064c8:	6983      	ldr	r3, [r0, #24]
 80064ca:	f021 010a 	bic.w	r1, r1, #10
 80064ce:	f023 03f0 	bic.w	r3, r3, #240	; 0xf0
 80064d2:	ea43 1306 	orr.w	r3, r3, r6, lsl #4
 80064d6:	430a      	orrs	r2, r1
 80064d8:	6183      	str	r3, [r0, #24]
 80064da:	6202      	str	r2, [r0, #32]
 80064dc:	6883      	ldr	r3, [r0, #8]
 80064de:	f023 0370 	bic.w	r3, r3, #112	; 0x70
 80064e2:	f043 0357 	orr.w	r3, r3, #87	; 0x57
 80064e6:	6083      	str	r3, [r0, #8]
 80064e8:	e7d0      	b.n	800648c <HAL_TIM_ConfigClockSource+0x38>
 80064ea:	2b70      	cmp	r3, #112	; 0x70
 80064ec:	d00c      	beq.n	8006508 <HAL_TIM_ConfigClockSource+0xb4>
 80064ee:	f5b3 5f00 	cmp.w	r3, #8192	; 0x2000
 80064f2:	d1cb      	bne.n	800648c <HAL_TIM_ConfigClockSource+0x38>
 80064f4:	68cb      	ldr	r3, [r1, #12]
 80064f6:	e9d1 2101 	ldrd	r2, r1, [r1, #4]
 80064fa:	f7ff ffa1 	bl	8006440 <TIM_ETR_SetConfig>
 80064fe:	6822      	ldr	r2, [r4, #0]
 8006500:	6893      	ldr	r3, [r2, #8]
 8006502:	f443 4380 	orr.w	r3, r3, #16384	; 0x4000
 8006506:	e008      	b.n	800651a <HAL_TIM_ConfigClockSource+0xc6>
 8006508:	68cb      	ldr	r3, [r1, #12]
 800650a:	e9d1 2101 	ldrd	r2, r1, [r1, #4]
 800650e:	f7ff ff97 	bl	8006440 <TIM_ETR_SetConfig>
 8006512:	6822      	ldr	r2, [r4, #0]
 8006514:	6893      	ldr	r3, [r2, #8]
 8006516:	f043 0377 	orr.w	r3, r3, #119	; 0x77
 800651a:	6093      	str	r3, [r2, #8]
 800651c:	e7b6      	b.n	800648c <HAL_TIM_ConfigClockSource+0x38>
 800651e:	684d      	ldr	r5, [r1, #4]
 8006520:	68ce      	ldr	r6, [r1, #12]
 8006522:	6a01      	ldr	r1, [r0, #32]
 8006524:	f021 0110 	bic.w	r1, r1, #16
 8006528:	6201      	str	r1, [r0, #32]
 800652a:	6982      	ldr	r2, [r0, #24]
 800652c:	6a03      	ldr	r3, [r0, #32]
 800652e:	f422 4270 	bic.w	r2, r2, #61440	; 0xf000
 8006532:	f023 03a0 	bic.w	r3, r3, #160	; 0xa0
 8006536:	ea43 1305 	orr.w	r3, r3, r5, lsl #4
 800653a:	ea42 3206 	orr.w	r2, r2, r6, lsl #12
 800653e:	6182      	str	r2, [r0, #24]
 8006540:	6203      	str	r3, [r0, #32]
 8006542:	6883      	ldr	r3, [r0, #8]
 8006544:	f023 0370 	bic.w	r3, r3, #112	; 0x70
 8006548:	f043 0367 	orr.w	r3, r3, #103	; 0x67
 800654c:	e7cb      	b.n	80064e6 <HAL_TIM_ConfigClockSource+0x92>
 800654e:	684a      	ldr	r2, [r1, #4]
 8006550:	68ce      	ldr	r6, [r1, #12]
 8006552:	6a01      	ldr	r1, [r0, #32]
 8006554:	6a05      	ldr	r5, [r0, #32]
 8006556:	f025 0501 	bic.w	r5, r5, #1
 800655a:	6205      	str	r5, [r0, #32]
 800655c:	6983      	ldr	r3, [r0, #24]
 800655e:	f021 010a 	bic.w	r1, r1, #10
 8006562:	f023 03f0 	bic.w	r3, r3, #240	; 0xf0
 8006566:	ea43 1306 	orr.w	r3, r3, r6, lsl #4
 800656a:	430a      	orrs	r2, r1
 800656c:	6183      	str	r3, [r0, #24]
 800656e:	6202      	str	r2, [r0, #32]
 8006570:	6883      	ldr	r3, [r0, #8]
 8006572:	f023 0370 	bic.w	r3, r3, #112	; 0x70
 8006576:	f043 0347 	orr.w	r3, r3, #71	; 0x47
 800657a:	e7b4      	b.n	80064e6 <HAL_TIM_ConfigClockSource+0x92>

0800657c <TIM_CCxChannelCmd>:
 800657c:	6a03      	ldr	r3, [r0, #32]
 800657e:	f001 011f 	and.w	r1, r1, #31
 8006582:	b510      	push	{r4, lr}
 8006584:	2401      	movs	r4, #1
 8006586:	408c      	lsls	r4, r1
 8006588:	ea23 0304 	bic.w	r3, r3, r4
 800658c:	6203      	str	r3, [r0, #32]
 800658e:	6a03      	ldr	r3, [r0, #32]
 8006590:	408a      	lsls	r2, r1
 8006592:	431a      	orrs	r2, r3
 8006594:	6202      	str	r2, [r0, #32]
 8006596:	bd10      	pop	{r4, pc}

08006598 <HAL_TIM_OC_Start>:
 8006598:	b510      	push	{r4, lr}
 800659a:	4604      	mov	r4, r0
 800659c:	2201      	movs	r2, #1
 800659e:	6800      	ldr	r0, [r0, #0]
 80065a0:	f7ff ffec 	bl	800657c <TIM_CCxChannelCmd>
 80065a4:	6823      	ldr	r3, [r4, #0]
 80065a6:	4a09      	ldr	r2, [pc, #36]	; (80065cc <HAL_TIM_OC_Start+0x34>)
 80065a8:	4293      	cmp	r3, r2
 80065aa:	bf02      	ittt	eq
 80065ac:	6c5a      	ldreq	r2, [r3, #68]	; 0x44
 80065ae:	f442 4200 	orreq.w	r2, r2, #32768	; 0x8000
 80065b2:	645a      	streq	r2, [r3, #68]	; 0x44
 80065b4:	689a      	ldr	r2, [r3, #8]
 80065b6:	f002 0207 	and.w	r2, r2, #7
 80065ba:	2a06      	cmp	r2, #6
 80065bc:	bf1e      	ittt	ne
 80065be:	681a      	ldrne	r2, [r3, #0]
 80065c0:	f042 0201 	orrne.w	r2, r2, #1
 80065c4:	601a      	strne	r2, [r3, #0]
 80065c6:	2000      	movs	r0, #0
 80065c8:	bd10      	pop	{r4, pc}
 80065ca:	bf00      	nop
 80065cc:	40010000 	.word	0x40010000

080065d0 <HAL_TIM_PWM_Start>:
 80065d0:	f7ff bfe2 	b.w	8006598 <HAL_TIM_OC_Start>

080065d4 <HAL_TIMEx_MasterConfigSynchronization>:
 80065d4:	f890 303c 	ldrb.w	r3, [r0, #60]	; 0x3c
 80065d8:	2b01      	cmp	r3, #1
 80065da:	b530      	push	{r4, r5, lr}
 80065dc:	f04f 0302 	mov.w	r3, #2
 80065e0:	d02d      	beq.n	800663e <HAL_TIMEx_MasterConfigSynchronization+0x6a>
 80065e2:	f880 303d 	strb.w	r3, [r0, #61]	; 0x3d
 80065e6:	6803      	ldr	r3, [r0, #0]
 80065e8:	680d      	ldr	r5, [r1, #0]
 80065ea:	685c      	ldr	r4, [r3, #4]
 80065ec:	f024 0470 	bic.w	r4, r4, #112	; 0x70
 80065f0:	2201      	movs	r2, #1
 80065f2:	432c      	orrs	r4, r5
 80065f4:	f880 203c 	strb.w	r2, [r0, #60]	; 0x3c
 80065f8:	689a      	ldr	r2, [r3, #8]
 80065fa:	605c      	str	r4, [r3, #4]
 80065fc:	4c11      	ldr	r4, [pc, #68]	; (8006644 <HAL_TIMEx_MasterConfigSynchronization+0x70>)
 80065fe:	42a3      	cmp	r3, r4
 8006600:	d012      	beq.n	8006628 <HAL_TIMEx_MasterConfigSynchronization+0x54>
 8006602:	f1b3 4f80 	cmp.w	r3, #1073741824	; 0x40000000
 8006606:	d00f      	beq.n	8006628 <HAL_TIMEx_MasterConfigSynchronization+0x54>
 8006608:	f5a4 447c 	sub.w	r4, r4, #64512	; 0xfc00
 800660c:	42a3      	cmp	r3, r4
 800660e:	d00b      	beq.n	8006628 <HAL_TIMEx_MasterConfigSynchronization+0x54>
 8006610:	f504 6480 	add.w	r4, r4, #1024	; 0x400
 8006614:	42a3      	cmp	r3, r4
 8006616:	d007      	beq.n	8006628 <HAL_TIMEx_MasterConfigSynchronization+0x54>
 8006618:	f504 6480 	add.w	r4, r4, #1024	; 0x400
 800661c:	42a3      	cmp	r3, r4
 800661e:	d003      	beq.n	8006628 <HAL_TIMEx_MasterConfigSynchronization+0x54>
 8006620:	f504 349a 	add.w	r4, r4, #78848	; 0x13400
 8006624:	42a3      	cmp	r3, r4
 8006626:	d104      	bne.n	8006632 <HAL_TIMEx_MasterConfigSynchronization+0x5e>
 8006628:	6849      	ldr	r1, [r1, #4]
 800662a:	f022 0280 	bic.w	r2, r2, #128	; 0x80
 800662e:	430a      	orrs	r2, r1
 8006630:	609a      	str	r2, [r3, #8]
 8006632:	2301      	movs	r3, #1
 8006634:	f880 303d 	strb.w	r3, [r0, #61]	; 0x3d
 8006638:	2300      	movs	r3, #0
 800663a:	f880 303c 	strb.w	r3, [r0, #60]	; 0x3c
 800663e:	4618      	mov	r0, r3
 8006640:	bd30      	pop	{r4, r5, pc}
 8006642:	bf00      	nop
 8006644:	40010000 	.word	0x40010000

08006648 <HAL_TIMEx_ConfigBreakDeadTime>:
 8006648:	f890 303c 	ldrb.w	r3, [r0, #60]	; 0x3c
 800664c:	2b01      	cmp	r3, #1
 800664e:	d01f      	beq.n	8006690 <HAL_TIMEx_ConfigBreakDeadTime+0x48>
 8006650:	68cb      	ldr	r3, [r1, #12]
 8006652:	688a      	ldr	r2, [r1, #8]
 8006654:	f423 7340 	bic.w	r3, r3, #768	; 0x300
 8006658:	4313      	orrs	r3, r2
 800665a:	684a      	ldr	r2, [r1, #4]
 800665c:	f423 6380 	bic.w	r3, r3, #1024	; 0x400
 8006660:	4313      	orrs	r3, r2
 8006662:	680a      	ldr	r2, [r1, #0]
 8006664:	f423 6300 	bic.w	r3, r3, #2048	; 0x800
 8006668:	4313      	orrs	r3, r2
 800666a:	690a      	ldr	r2, [r1, #16]
 800666c:	f423 5380 	bic.w	r3, r3, #4096	; 0x1000
 8006670:	4313      	orrs	r3, r2
 8006672:	694a      	ldr	r2, [r1, #20]
 8006674:	f423 5300 	bic.w	r3, r3, #8192	; 0x2000
 8006678:	4313      	orrs	r3, r2
 800667a:	69ca      	ldr	r2, [r1, #28]
 800667c:	f423 4380 	bic.w	r3, r3, #16384	; 0x4000
 8006680:	4313      	orrs	r3, r2
 8006682:	6802      	ldr	r2, [r0, #0]
 8006684:	6453      	str	r3, [r2, #68]	; 0x44
 8006686:	2300      	movs	r3, #0
 8006688:	f880 303c 	strb.w	r3, [r0, #60]	; 0x3c
 800668c:	4618      	mov	r0, r3
 800668e:	4770      	bx	lr
 8006690:	2002      	movs	r0, #2
 8006692:	4770      	bx	lr

08006694 <HAL_TIMEx_CommutCallback>:
 8006694:	4770      	bx	lr

08006696 <HAL_TIMEx_BreakCallback>:
 8006696:	4770      	bx	lr

08006698 <UART_EndRxTransfer>:
 8006698:	6803      	ldr	r3, [r0, #0]
 800669a:	68da      	ldr	r2, [r3, #12]
 800669c:	f422 7290 	bic.w	r2, r2, #288	; 0x120
 80066a0:	60da      	str	r2, [r3, #12]
 80066a2:	695a      	ldr	r2, [r3, #20]
 80066a4:	f022 0201 	bic.w	r2, r2, #1
 80066a8:	615a      	str	r2, [r3, #20]
 80066aa:	2320      	movs	r3, #32
 80066ac:	f880 303a 	strb.w	r3, [r0, #58]	; 0x3a
 80066b0:	4770      	bx	lr
	...

080066b4 <UART_SetConfig>:
 80066b4:	6803      	ldr	r3, [r0, #0]
 80066b6:	68c1      	ldr	r1, [r0, #12]
 80066b8:	691a      	ldr	r2, [r3, #16]
 80066ba:	b570      	push	{r4, r5, r6, lr}
 80066bc:	f422 5240 	bic.w	r2, r2, #12288	; 0x3000
 80066c0:	4604      	mov	r4, r0
 80066c2:	430a      	orrs	r2, r1
 80066c4:	611a      	str	r2, [r3, #16]
 80066c6:	6925      	ldr	r5, [r4, #16]
 80066c8:	68a2      	ldr	r2, [r4, #8]
 80066ca:	68d9      	ldr	r1, [r3, #12]
 80066cc:	69c0      	ldr	r0, [r0, #28]
 80066ce:	432a      	orrs	r2, r5
 80066d0:	6965      	ldr	r5, [r4, #20]
 80066d2:	f421 4116 	bic.w	r1, r1, #38400	; 0x9600
 80066d6:	432a      	orrs	r2, r5
 80066d8:	f021 010c 	bic.w	r1, r1, #12
 80066dc:	4302      	orrs	r2, r0
 80066de:	430a      	orrs	r2, r1
 80066e0:	60da      	str	r2, [r3, #12]
 80066e2:	695a      	ldr	r2, [r3, #20]
 80066e4:	69a1      	ldr	r1, [r4, #24]
 80066e6:	f422 7240 	bic.w	r2, r2, #768	; 0x300
 80066ea:	430a      	orrs	r2, r1
 80066ec:	f5b0 4f00 	cmp.w	r0, #32768	; 0x8000
 80066f0:	615a      	str	r2, [r3, #20]
 80066f2:	4a26      	ldr	r2, [pc, #152]	; (800678c <UART_SetConfig+0xd8>)
 80066f4:	d129      	bne.n	800674a <UART_SetConfig+0x96>
 80066f6:	4293      	cmp	r3, r2
 80066f8:	d003      	beq.n	8006702 <UART_SetConfig+0x4e>
 80066fa:	f502 6280 	add.w	r2, r2, #1024	; 0x400
 80066fe:	4293      	cmp	r3, r2
 8006700:	d120      	bne.n	8006744 <UART_SetConfig+0x90>
 8006702:	f7ff fba5 	bl	8005e50 <HAL_RCC_GetPCLK2Freq>
 8006706:	6862      	ldr	r2, [r4, #4]
 8006708:	2600      	movs	r6, #0
 800670a:	1892      	adds	r2, r2, r2
 800670c:	f04f 0119 	mov.w	r1, #25
 8006710:	eb46 0306 	adc.w	r3, r6, r6
 8006714:	fba0 0101 	umull	r0, r1, r0, r1
 8006718:	f7f9 fdb2 	bl	8000280 <__aeabi_uldivmod>
 800671c:	2164      	movs	r1, #100	; 0x64
 800671e:	fbb0 f5f1 	udiv	r5, r0, r1
 8006722:	fb01 0315 	mls	r3, r1, r5, r0
 8006726:	00db      	lsls	r3, r3, #3
 8006728:	3332      	adds	r3, #50	; 0x32
 800672a:	fbb3 f3f1 	udiv	r3, r3, r1
 800672e:	f003 0207 	and.w	r2, r3, #7
 8006732:	005b      	lsls	r3, r3, #1
 8006734:	6821      	ldr	r1, [r4, #0]
 8006736:	eb02 1205 	add.w	r2, r2, r5, lsl #4
 800673a:	f403 73f8 	and.w	r3, r3, #496	; 0x1f0
 800673e:	4413      	add	r3, r2
 8006740:	608b      	str	r3, [r1, #8]
 8006742:	bd70      	pop	{r4, r5, r6, pc}
 8006744:	f7ff fb74 	bl	8005e30 <HAL_RCC_GetPCLK1Freq>
 8006748:	e7dd      	b.n	8006706 <UART_SetConfig+0x52>
 800674a:	4293      	cmp	r3, r2
 800674c:	d002      	beq.n	8006754 <UART_SetConfig+0xa0>
 800674e:	4a10      	ldr	r2, [pc, #64]	; (8006790 <UART_SetConfig+0xdc>)
 8006750:	4293      	cmp	r3, r2
 8006752:	d117      	bne.n	8006784 <UART_SetConfig+0xd0>
 8006754:	f7ff fb7c 	bl	8005e50 <HAL_RCC_GetPCLK2Freq>
 8006758:	6863      	ldr	r3, [r4, #4]
 800675a:	2119      	movs	r1, #25
 800675c:	009a      	lsls	r2, r3, #2
 800675e:	fba0 0101 	umull	r0, r1, r0, r1
 8006762:	0f9b      	lsrs	r3, r3, #30
 8006764:	f7f9 fd8c 	bl	8000280 <__aeabi_uldivmod>
 8006768:	2264      	movs	r2, #100	; 0x64
 800676a:	fbb0 f1f2 	udiv	r1, r0, r2
 800676e:	fb02 0311 	mls	r3, r2, r1, r0
 8006772:	6824      	ldr	r4, [r4, #0]
 8006774:	011b      	lsls	r3, r3, #4
 8006776:	3332      	adds	r3, #50	; 0x32
 8006778:	fbb3 f3f2 	udiv	r3, r3, r2
 800677c:	eb03 1301 	add.w	r3, r3, r1, lsl #4
 8006780:	60a3      	str	r3, [r4, #8]
 8006782:	e7de      	b.n	8006742 <UART_SetConfig+0x8e>
 8006784:	f7ff fb54 	bl	8005e30 <HAL_RCC_GetPCLK1Freq>
 8006788:	e7e6      	b.n	8006758 <UART_SetConfig+0xa4>
 800678a:	bf00      	nop
 800678c:	40011000 	.word	0x40011000
 8006790:	40011400 	.word	0x40011400

08006794 <UART_WaitOnFlagUntilTimeout.constprop.3>:
 8006794:	b5f8      	push	{r3, r4, r5, r6, r7, lr}
 8006796:	4604      	mov	r4, r0
 8006798:	460e      	mov	r6, r1
 800679a:	4617      	mov	r7, r2
 800679c:	461d      	mov	r5, r3
 800679e:	6821      	ldr	r1, [r4, #0]
 80067a0:	680b      	ldr	r3, [r1, #0]
 80067a2:	ea36 0303 	bics.w	r3, r6, r3
 80067a6:	d101      	bne.n	80067ac <UART_WaitOnFlagUntilTimeout.constprop.3+0x18>
 80067a8:	2000      	movs	r0, #0
 80067aa:	e014      	b.n	80067d6 <UART_WaitOnFlagUntilTimeout.constprop.3+0x42>
 80067ac:	1c6b      	adds	r3, r5, #1
 80067ae:	d0f7      	beq.n	80067a0 <UART_WaitOnFlagUntilTimeout.constprop.3+0xc>
 80067b0:	b995      	cbnz	r5, 80067d8 <UART_WaitOnFlagUntilTimeout.constprop.3+0x44>
 80067b2:	6823      	ldr	r3, [r4, #0]
 80067b4:	68da      	ldr	r2, [r3, #12]
 80067b6:	f422 72d0 	bic.w	r2, r2, #416	; 0x1a0
 80067ba:	60da      	str	r2, [r3, #12]
 80067bc:	695a      	ldr	r2, [r3, #20]
 80067be:	f022 0201 	bic.w	r2, r2, #1
 80067c2:	615a      	str	r2, [r3, #20]
 80067c4:	2320      	movs	r3, #32
 80067c6:	f884 3039 	strb.w	r3, [r4, #57]	; 0x39
 80067ca:	f884 303a 	strb.w	r3, [r4, #58]	; 0x3a
 80067ce:	2300      	movs	r3, #0
 80067d0:	f884 3038 	strb.w	r3, [r4, #56]	; 0x38
 80067d4:	2003      	movs	r0, #3
 80067d6:	bdf8      	pop	{r3, r4, r5, r6, r7, pc}
 80067d8:	f7fd ffb2 	bl	8004740 <HAL_GetTick>
 80067dc:	1bc0      	subs	r0, r0, r7
 80067de:	4285      	cmp	r5, r0
 80067e0:	d2dd      	bcs.n	800679e <UART_WaitOnFlagUntilTimeout.constprop.3+0xa>
 80067e2:	e7e6      	b.n	80067b2 <UART_WaitOnFlagUntilTimeout.constprop.3+0x1e>

080067e4 <HAL_UART_Init>:
 80067e4:	b510      	push	{r4, lr}
 80067e6:	4604      	mov	r4, r0
 80067e8:	b340      	cbz	r0, 800683c <HAL_UART_Init+0x58>
 80067ea:	f890 3039 	ldrb.w	r3, [r0, #57]	; 0x39
 80067ee:	f003 02ff 	and.w	r2, r3, #255	; 0xff
 80067f2:	b91b      	cbnz	r3, 80067fc <HAL_UART_Init+0x18>
 80067f4:	f880 2038 	strb.w	r2, [r0, #56]	; 0x38
 80067f8:	f7fb f9b2 	bl	8001b60 <HAL_UART_MspInit>
 80067fc:	6822      	ldr	r2, [r4, #0]
 80067fe:	2324      	movs	r3, #36	; 0x24
 8006800:	f884 3039 	strb.w	r3, [r4, #57]	; 0x39
 8006804:	68d3      	ldr	r3, [r2, #12]
 8006806:	f423 5300 	bic.w	r3, r3, #8192	; 0x2000
 800680a:	60d3      	str	r3, [r2, #12]
 800680c:	4620      	mov	r0, r4
 800680e:	f7ff ff51 	bl	80066b4 <UART_SetConfig>
 8006812:	6823      	ldr	r3, [r4, #0]
 8006814:	691a      	ldr	r2, [r3, #16]
 8006816:	f422 4290 	bic.w	r2, r2, #18432	; 0x4800
 800681a:	611a      	str	r2, [r3, #16]
 800681c:	695a      	ldr	r2, [r3, #20]
 800681e:	f022 022a 	bic.w	r2, r2, #42	; 0x2a
 8006822:	615a      	str	r2, [r3, #20]
 8006824:	68da      	ldr	r2, [r3, #12]
 8006826:	f442 5200 	orr.w	r2, r2, #8192	; 0x2000
 800682a:	60da      	str	r2, [r3, #12]
 800682c:	2000      	movs	r0, #0
 800682e:	2320      	movs	r3, #32
 8006830:	63e0      	str	r0, [r4, #60]	; 0x3c
 8006832:	f884 3039 	strb.w	r3, [r4, #57]	; 0x39
 8006836:	f884 303a 	strb.w	r3, [r4, #58]	; 0x3a
 800683a:	bd10      	pop	{r4, pc}
 800683c:	2001      	movs	r0, #1
 800683e:	e7fc      	b.n	800683a <HAL_UART_Init+0x56>

08006840 <HAL_UART_Transmit>:
 8006840:	e92d 43f8 	stmdb	sp!, {r3, r4, r5, r6, r7, r8, r9, lr}
 8006844:	461f      	mov	r7, r3
 8006846:	f890 3039 	ldrb.w	r3, [r0, #57]	; 0x39
 800684a:	2b20      	cmp	r3, #32
 800684c:	4604      	mov	r4, r0
 800684e:	460d      	mov	r5, r1
 8006850:	4690      	mov	r8, r2
 8006852:	d14f      	bne.n	80068f4 <HAL_UART_Transmit+0xb4>
 8006854:	2900      	cmp	r1, #0
 8006856:	d04b      	beq.n	80068f0 <HAL_UART_Transmit+0xb0>
 8006858:	2a00      	cmp	r2, #0
 800685a:	d049      	beq.n	80068f0 <HAL_UART_Transmit+0xb0>
 800685c:	f890 3038 	ldrb.w	r3, [r0, #56]	; 0x38
 8006860:	2b01      	cmp	r3, #1
 8006862:	d047      	beq.n	80068f4 <HAL_UART_Transmit+0xb4>
 8006864:	2301      	movs	r3, #1
 8006866:	f880 3038 	strb.w	r3, [r0, #56]	; 0x38
 800686a:	f04f 0900 	mov.w	r9, #0
 800686e:	2321      	movs	r3, #33	; 0x21
 8006870:	f8c0 903c 	str.w	r9, [r0, #60]	; 0x3c
 8006874:	f880 3039 	strb.w	r3, [r0, #57]	; 0x39
 8006878:	f7fd ff62 	bl	8004740 <HAL_GetTick>
 800687c:	f8a4 8024 	strh.w	r8, [r4, #36]	; 0x24
 8006880:	4606      	mov	r6, r0
 8006882:	f8a4 8026 	strh.w	r8, [r4, #38]	; 0x26
 8006886:	f884 9038 	strb.w	r9, [r4, #56]	; 0x38
 800688a:	8ce3      	ldrh	r3, [r4, #38]	; 0x26
 800688c:	b29b      	uxth	r3, r3
 800688e:	b953      	cbnz	r3, 80068a6 <HAL_UART_Transmit+0x66>
 8006890:	463b      	mov	r3, r7
 8006892:	4632      	mov	r2, r6
 8006894:	2140      	movs	r1, #64	; 0x40
 8006896:	4620      	mov	r0, r4
 8006898:	f7ff ff7c 	bl	8006794 <UART_WaitOnFlagUntilTimeout.constprop.3>
 800689c:	b998      	cbnz	r0, 80068c6 <HAL_UART_Transmit+0x86>
 800689e:	2320      	movs	r3, #32
 80068a0:	f884 3039 	strb.w	r3, [r4, #57]	; 0x39
 80068a4:	e010      	b.n	80068c8 <HAL_UART_Transmit+0x88>
 80068a6:	8ce3      	ldrh	r3, [r4, #38]	; 0x26
 80068a8:	3b01      	subs	r3, #1
 80068aa:	b29b      	uxth	r3, r3
 80068ac:	84e3      	strh	r3, [r4, #38]	; 0x26
 80068ae:	68a3      	ldr	r3, [r4, #8]
 80068b0:	f5b3 5f80 	cmp.w	r3, #4096	; 0x1000
 80068b4:	4632      	mov	r2, r6
 80068b6:	463b      	mov	r3, r7
 80068b8:	f04f 0180 	mov.w	r1, #128	; 0x80
 80068bc:	4620      	mov	r0, r4
 80068be:	d10e      	bne.n	80068de <HAL_UART_Transmit+0x9e>
 80068c0:	f7ff ff68 	bl	8006794 <UART_WaitOnFlagUntilTimeout.constprop.3>
 80068c4:	b110      	cbz	r0, 80068cc <HAL_UART_Transmit+0x8c>
 80068c6:	2003      	movs	r0, #3
 80068c8:	e8bd 83f8 	ldmia.w	sp!, {r3, r4, r5, r6, r7, r8, r9, pc}
 80068cc:	882b      	ldrh	r3, [r5, #0]
 80068ce:	6822      	ldr	r2, [r4, #0]
 80068d0:	f3c3 0308 	ubfx	r3, r3, #0, #9
 80068d4:	6053      	str	r3, [r2, #4]
 80068d6:	6923      	ldr	r3, [r4, #16]
 80068d8:	b943      	cbnz	r3, 80068ec <HAL_UART_Transmit+0xac>
 80068da:	3502      	adds	r5, #2
 80068dc:	e7d5      	b.n	800688a <HAL_UART_Transmit+0x4a>
 80068de:	f7ff ff59 	bl	8006794 <UART_WaitOnFlagUntilTimeout.constprop.3>
 80068e2:	2800      	cmp	r0, #0
 80068e4:	d1ef      	bne.n	80068c6 <HAL_UART_Transmit+0x86>
 80068e6:	6823      	ldr	r3, [r4, #0]
 80068e8:	782a      	ldrb	r2, [r5, #0]
 80068ea:	605a      	str	r2, [r3, #4]
 80068ec:	3501      	adds	r5, #1
 80068ee:	e7cc      	b.n	800688a <HAL_UART_Transmit+0x4a>
 80068f0:	2001      	movs	r0, #1
 80068f2:	e7e9      	b.n	80068c8 <HAL_UART_Transmit+0x88>
 80068f4:	2002      	movs	r0, #2
 80068f6:	e7e7      	b.n	80068c8 <HAL_UART_Transmit+0x88>

080068f8 <HAL_UART_Receive_IT>:
 80068f8:	f890 303a 	ldrb.w	r3, [r0, #58]	; 0x3a
 80068fc:	2b20      	cmp	r3, #32
 80068fe:	d120      	bne.n	8006942 <HAL_UART_Receive_IT+0x4a>
 8006900:	b1e9      	cbz	r1, 800693e <HAL_UART_Receive_IT+0x46>
 8006902:	b1e2      	cbz	r2, 800693e <HAL_UART_Receive_IT+0x46>
 8006904:	f890 3038 	ldrb.w	r3, [r0, #56]	; 0x38
 8006908:	2b01      	cmp	r3, #1
 800690a:	d01a      	beq.n	8006942 <HAL_UART_Receive_IT+0x4a>
 800690c:	85c2      	strh	r2, [r0, #46]	; 0x2e
 800690e:	8582      	strh	r2, [r0, #44]	; 0x2c
 8006910:	2300      	movs	r3, #0
 8006912:	2222      	movs	r2, #34	; 0x22
 8006914:	63c3      	str	r3, [r0, #60]	; 0x3c
 8006916:	f880 203a 	strb.w	r2, [r0, #58]	; 0x3a
 800691a:	6802      	ldr	r2, [r0, #0]
 800691c:	6281      	str	r1, [r0, #40]	; 0x28
 800691e:	68d1      	ldr	r1, [r2, #12]
 8006920:	f880 3038 	strb.w	r3, [r0, #56]	; 0x38
 8006924:	f441 7180 	orr.w	r1, r1, #256	; 0x100
 8006928:	60d1      	str	r1, [r2, #12]
 800692a:	6951      	ldr	r1, [r2, #20]
 800692c:	f041 0101 	orr.w	r1, r1, #1
 8006930:	6151      	str	r1, [r2, #20]
 8006932:	68d1      	ldr	r1, [r2, #12]
 8006934:	f041 0120 	orr.w	r1, r1, #32
 8006938:	60d1      	str	r1, [r2, #12]
 800693a:	4618      	mov	r0, r3
 800693c:	4770      	bx	lr
 800693e:	2001      	movs	r0, #1
 8006940:	4770      	bx	lr
 8006942:	2002      	movs	r0, #2
 8006944:	4770      	bx	lr

08006946 <UART_Receive_IT>:
 8006946:	f890 303a 	ldrb.w	r3, [r0, #58]	; 0x3a
 800694a:	2b22      	cmp	r3, #34	; 0x22
 800694c:	b510      	push	{r4, lr}
 800694e:	d133      	bne.n	80069b8 <UART_Receive_IT+0x72>
 8006950:	6881      	ldr	r1, [r0, #8]
 8006952:	6904      	ldr	r4, [r0, #16]
 8006954:	6a83      	ldr	r3, [r0, #40]	; 0x28
 8006956:	6802      	ldr	r2, [r0, #0]
 8006958:	f5b1 5f80 	cmp.w	r1, #4096	; 0x1000
 800695c:	d123      	bne.n	80069a6 <UART_Receive_IT+0x60>
 800695e:	6852      	ldr	r2, [r2, #4]
 8006960:	b9ec      	cbnz	r4, 800699e <UART_Receive_IT+0x58>
 8006962:	f3c2 0208 	ubfx	r2, r2, #0, #9
 8006966:	f823 2b02 	strh.w	r2, [r3], #2
 800696a:	6283      	str	r3, [r0, #40]	; 0x28
 800696c:	8dc4      	ldrh	r4, [r0, #46]	; 0x2e
 800696e:	3c01      	subs	r4, #1
 8006970:	b2a4      	uxth	r4, r4
 8006972:	85c4      	strh	r4, [r0, #46]	; 0x2e
 8006974:	b98c      	cbnz	r4, 800699a <UART_Receive_IT+0x54>
 8006976:	6803      	ldr	r3, [r0, #0]
 8006978:	68da      	ldr	r2, [r3, #12]
 800697a:	f022 0220 	bic.w	r2, r2, #32
 800697e:	60da      	str	r2, [r3, #12]
 8006980:	68da      	ldr	r2, [r3, #12]
 8006982:	f422 7280 	bic.w	r2, r2, #256	; 0x100
 8006986:	60da      	str	r2, [r3, #12]
 8006988:	695a      	ldr	r2, [r3, #20]
 800698a:	f022 0201 	bic.w	r2, r2, #1
 800698e:	615a      	str	r2, [r3, #20]
 8006990:	2320      	movs	r3, #32
 8006992:	f880 303a 	strb.w	r3, [r0, #58]	; 0x3a
 8006996:	f7f9 ff39 	bl	800080c <HAL_UART_RxCpltCallback>
 800699a:	2000      	movs	r0, #0
 800699c:	e00d      	b.n	80069ba <UART_Receive_IT+0x74>
 800699e:	b2d2      	uxtb	r2, r2
 80069a0:	f823 2b01 	strh.w	r2, [r3], #1
 80069a4:	e7e1      	b.n	800696a <UART_Receive_IT+0x24>
 80069a6:	1c59      	adds	r1, r3, #1
 80069a8:	6852      	ldr	r2, [r2, #4]
 80069aa:	6281      	str	r1, [r0, #40]	; 0x28
 80069ac:	b90c      	cbnz	r4, 80069b2 <UART_Receive_IT+0x6c>
 80069ae:	701a      	strb	r2, [r3, #0]
 80069b0:	e7dc      	b.n	800696c <UART_Receive_IT+0x26>
 80069b2:	f002 027f 	and.w	r2, r2, #127	; 0x7f
 80069b6:	e7fa      	b.n	80069ae <UART_Receive_IT+0x68>
 80069b8:	2002      	movs	r0, #2
 80069ba:	bd10      	pop	{r4, pc}

080069bc <HAL_UART_IRQHandler>:
 80069bc:	6803      	ldr	r3, [r0, #0]
 80069be:	681a      	ldr	r2, [r3, #0]
 80069c0:	68d9      	ldr	r1, [r3, #12]
 80069c2:	b570      	push	{r4, r5, r6, lr}
 80069c4:	0716      	lsls	r6, r2, #28
 80069c6:	4604      	mov	r4, r0
 80069c8:	695d      	ldr	r5, [r3, #20]
 80069ca:	d107      	bne.n	80069dc <HAL_UART_IRQHandler+0x20>
 80069cc:	0696      	lsls	r6, r2, #26
 80069ce:	d55a      	bpl.n	8006a86 <HAL_UART_IRQHandler+0xca>
 80069d0:	068d      	lsls	r5, r1, #26
 80069d2:	d558      	bpl.n	8006a86 <HAL_UART_IRQHandler+0xca>
 80069d4:	e8bd 4070 	ldmia.w	sp!, {r4, r5, r6, lr}
 80069d8:	f7ff bfb5 	b.w	8006946 <UART_Receive_IT>
 80069dc:	f015 0501 	ands.w	r5, r5, #1
 80069e0:	d102      	bne.n	80069e8 <HAL_UART_IRQHandler+0x2c>
 80069e2:	f411 7f90 	tst.w	r1, #288	; 0x120
 80069e6:	d04e      	beq.n	8006a86 <HAL_UART_IRQHandler+0xca>
 80069e8:	07d0      	lsls	r0, r2, #31
 80069ea:	d505      	bpl.n	80069f8 <HAL_UART_IRQHandler+0x3c>
 80069ec:	05cb      	lsls	r3, r1, #23
 80069ee:	bf42      	ittt	mi
 80069f0:	6be3      	ldrmi	r3, [r4, #60]	; 0x3c
 80069f2:	f043 0301 	orrmi.w	r3, r3, #1
 80069f6:	63e3      	strmi	r3, [r4, #60]	; 0x3c
 80069f8:	0756      	lsls	r6, r2, #29
 80069fa:	d504      	bpl.n	8006a06 <HAL_UART_IRQHandler+0x4a>
 80069fc:	b11d      	cbz	r5, 8006a06 <HAL_UART_IRQHandler+0x4a>
 80069fe:	6be3      	ldr	r3, [r4, #60]	; 0x3c
 8006a00:	f043 0302 	orr.w	r3, r3, #2
 8006a04:	63e3      	str	r3, [r4, #60]	; 0x3c
 8006a06:	0790      	lsls	r0, r2, #30
 8006a08:	d504      	bpl.n	8006a14 <HAL_UART_IRQHandler+0x58>
 8006a0a:	b11d      	cbz	r5, 8006a14 <HAL_UART_IRQHandler+0x58>
 8006a0c:	6be3      	ldr	r3, [r4, #60]	; 0x3c
 8006a0e:	f043 0304 	orr.w	r3, r3, #4
 8006a12:	63e3      	str	r3, [r4, #60]	; 0x3c
 8006a14:	0713      	lsls	r3, r2, #28
 8006a16:	d506      	bpl.n	8006a26 <HAL_UART_IRQHandler+0x6a>
 8006a18:	068e      	lsls	r6, r1, #26
 8006a1a:	d400      	bmi.n	8006a1e <HAL_UART_IRQHandler+0x62>
 8006a1c:	b11d      	cbz	r5, 8006a26 <HAL_UART_IRQHandler+0x6a>
 8006a1e:	6be3      	ldr	r3, [r4, #60]	; 0x3c
 8006a20:	f043 0308 	orr.w	r3, r3, #8
 8006a24:	63e3      	str	r3, [r4, #60]	; 0x3c
 8006a26:	6be3      	ldr	r3, [r4, #60]	; 0x3c
 8006a28:	b343      	cbz	r3, 8006a7c <HAL_UART_IRQHandler+0xc0>
 8006a2a:	0695      	lsls	r5, r2, #26
 8006a2c:	d504      	bpl.n	8006a38 <HAL_UART_IRQHandler+0x7c>
 8006a2e:	0688      	lsls	r0, r1, #26
 8006a30:	d502      	bpl.n	8006a38 <HAL_UART_IRQHandler+0x7c>
 8006a32:	4620      	mov	r0, r4
 8006a34:	f7ff ff87 	bl	8006946 <UART_Receive_IT>
 8006a38:	6823      	ldr	r3, [r4, #0]
 8006a3a:	695d      	ldr	r5, [r3, #20]
 8006a3c:	6be2      	ldr	r2, [r4, #60]	; 0x3c
 8006a3e:	0711      	lsls	r1, r2, #28
 8006a40:	4620      	mov	r0, r4
 8006a42:	d402      	bmi.n	8006a4a <HAL_UART_IRQHandler+0x8e>
 8006a44:	f015 0540 	ands.w	r5, r5, #64	; 0x40
 8006a48:	d019      	beq.n	8006a7e <HAL_UART_IRQHandler+0xc2>
 8006a4a:	f7ff fe25 	bl	8006698 <UART_EndRxTransfer>
 8006a4e:	6823      	ldr	r3, [r4, #0]
 8006a50:	695a      	ldr	r2, [r3, #20]
 8006a52:	0652      	lsls	r2, r2, #25
 8006a54:	d50f      	bpl.n	8006a76 <HAL_UART_IRQHandler+0xba>
 8006a56:	695a      	ldr	r2, [r3, #20]
 8006a58:	6b60      	ldr	r0, [r4, #52]	; 0x34
 8006a5a:	f022 0240 	bic.w	r2, r2, #64	; 0x40
 8006a5e:	615a      	str	r2, [r3, #20]
 8006a60:	b148      	cbz	r0, 8006a76 <HAL_UART_IRQHandler+0xba>
 8006a62:	4b26      	ldr	r3, [pc, #152]	; (8006afc <HAL_UART_IRQHandler+0x140>)
 8006a64:	6503      	str	r3, [r0, #80]	; 0x50
 8006a66:	f7fe f9cb 	bl	8004e00 <HAL_DMA_Abort_IT>
 8006a6a:	b138      	cbz	r0, 8006a7c <HAL_UART_IRQHandler+0xc0>
 8006a6c:	6b60      	ldr	r0, [r4, #52]	; 0x34
 8006a6e:	e8bd 4070 	ldmia.w	sp!, {r4, r5, r6, lr}
 8006a72:	6d03      	ldr	r3, [r0, #80]	; 0x50
 8006a74:	4718      	bx	r3
 8006a76:	4620      	mov	r0, r4
 8006a78:	f7f9 fec6 	bl	8000808 <HAL_UART_ErrorCallback>
 8006a7c:	bd70      	pop	{r4, r5, r6, pc}
 8006a7e:	f7f9 fec3 	bl	8000808 <HAL_UART_ErrorCallback>
 8006a82:	63e5      	str	r5, [r4, #60]	; 0x3c
 8006a84:	e7fa      	b.n	8006a7c <HAL_UART_IRQHandler+0xc0>
 8006a86:	0616      	lsls	r6, r2, #24
 8006a88:	d528      	bpl.n	8006adc <HAL_UART_IRQHandler+0x120>
 8006a8a:	060d      	lsls	r5, r1, #24
 8006a8c:	d526      	bpl.n	8006adc <HAL_UART_IRQHandler+0x120>
 8006a8e:	f894 2039 	ldrb.w	r2, [r4, #57]	; 0x39
 8006a92:	2a21      	cmp	r2, #33	; 0x21
 8006a94:	d1f2      	bne.n	8006a7c <HAL_UART_IRQHandler+0xc0>
 8006a96:	68a1      	ldr	r1, [r4, #8]
 8006a98:	6a22      	ldr	r2, [r4, #32]
 8006a9a:	f5b1 5f80 	cmp.w	r1, #4096	; 0x1000
 8006a9e:	d118      	bne.n	8006ad2 <HAL_UART_IRQHandler+0x116>
 8006aa0:	8811      	ldrh	r1, [r2, #0]
 8006aa2:	f3c1 0108 	ubfx	r1, r1, #0, #9
 8006aa6:	6059      	str	r1, [r3, #4]
 8006aa8:	6921      	ldr	r1, [r4, #16]
 8006aaa:	b981      	cbnz	r1, 8006ace <HAL_UART_IRQHandler+0x112>
 8006aac:	3202      	adds	r2, #2
 8006aae:	6222      	str	r2, [r4, #32]
 8006ab0:	8ce2      	ldrh	r2, [r4, #38]	; 0x26
 8006ab2:	3a01      	subs	r2, #1
 8006ab4:	b292      	uxth	r2, r2
 8006ab6:	84e2      	strh	r2, [r4, #38]	; 0x26
 8006ab8:	2a00      	cmp	r2, #0
 8006aba:	d1df      	bne.n	8006a7c <HAL_UART_IRQHandler+0xc0>
 8006abc:	68da      	ldr	r2, [r3, #12]
 8006abe:	f022 0280 	bic.w	r2, r2, #128	; 0x80
 8006ac2:	60da      	str	r2, [r3, #12]
 8006ac4:	68da      	ldr	r2, [r3, #12]
 8006ac6:	f042 0240 	orr.w	r2, r2, #64	; 0x40
 8006aca:	60da      	str	r2, [r3, #12]
 8006acc:	e7d6      	b.n	8006a7c <HAL_UART_IRQHandler+0xc0>
 8006ace:	3201      	adds	r2, #1
 8006ad0:	e7ed      	b.n	8006aae <HAL_UART_IRQHandler+0xf2>
 8006ad2:	1c51      	adds	r1, r2, #1
 8006ad4:	6221      	str	r1, [r4, #32]
 8006ad6:	7812      	ldrb	r2, [r2, #0]
 8006ad8:	605a      	str	r2, [r3, #4]
 8006ada:	e7e9      	b.n	8006ab0 <HAL_UART_IRQHandler+0xf4>
 8006adc:	0650      	lsls	r0, r2, #25
 8006ade:	d5cd      	bpl.n	8006a7c <HAL_UART_IRQHandler+0xc0>
 8006ae0:	064a      	lsls	r2, r1, #25
 8006ae2:	d5cb      	bpl.n	8006a7c <HAL_UART_IRQHandler+0xc0>
 8006ae4:	68da      	ldr	r2, [r3, #12]
 8006ae6:	f022 0240 	bic.w	r2, r2, #64	; 0x40
 8006aea:	60da      	str	r2, [r3, #12]
 8006aec:	2320      	movs	r3, #32
 8006aee:	f884 3039 	strb.w	r3, [r4, #57]	; 0x39
 8006af2:	4620      	mov	r0, r4
 8006af4:	f7f9 fe7e 	bl	80007f4 <HAL_UART_TxCpltCallback>
 8006af8:	e7c0      	b.n	8006a7c <HAL_UART_IRQHandler+0xc0>
 8006afa:	bf00      	nop
 8006afc:	08006b01 	.word	0x08006b01

08006b00 <UART_DMAAbortOnError>:
 8006b00:	b508      	push	{r3, lr}
 8006b02:	6b80      	ldr	r0, [r0, #56]	; 0x38
 8006b04:	2300      	movs	r3, #0
 8006b06:	85c3      	strh	r3, [r0, #46]	; 0x2e
 8006b08:	84c3      	strh	r3, [r0, #38]	; 0x26
 8006b0a:	f7f9 fe7d 	bl	8000808 <HAL_UART_ErrorCallback>
 8006b0e:	bd08      	pop	{r3, pc}

08006b10 <__errno>:
 8006b10:	4b01      	ldr	r3, [pc, #4]	; (8006b18 <__errno+0x8>)
 8006b12:	6818      	ldr	r0, [r3, #0]
 8006b14:	4770      	bx	lr
 8006b16:	bf00      	nop
 8006b18:	200002c8 	.word	0x200002c8

08006b1c <__sflush_r>:
 8006b1c:	898a      	ldrh	r2, [r1, #12]
 8006b1e:	e92d 41f0 	stmdb	sp!, {r4, r5, r6, r7, r8, lr}
 8006b22:	4605      	mov	r5, r0
 8006b24:	0710      	lsls	r0, r2, #28
 8006b26:	460c      	mov	r4, r1
 8006b28:	d458      	bmi.n	8006bdc <__sflush_r+0xc0>
 8006b2a:	684b      	ldr	r3, [r1, #4]
 8006b2c:	2b00      	cmp	r3, #0
 8006b2e:	dc05      	bgt.n	8006b3c <__sflush_r+0x20>
 8006b30:	6c0b      	ldr	r3, [r1, #64]	; 0x40
 8006b32:	2b00      	cmp	r3, #0
 8006b34:	dc02      	bgt.n	8006b3c <__sflush_r+0x20>
 8006b36:	2000      	movs	r0, #0
 8006b38:	e8bd 81f0 	ldmia.w	sp!, {r4, r5, r6, r7, r8, pc}
 8006b3c:	6ae6      	ldr	r6, [r4, #44]	; 0x2c
 8006b3e:	2e00      	cmp	r6, #0
 8006b40:	d0f9      	beq.n	8006b36 <__sflush_r+0x1a>
 8006b42:	2300      	movs	r3, #0
 8006b44:	f412 5280 	ands.w	r2, r2, #4096	; 0x1000
 8006b48:	682f      	ldr	r7, [r5, #0]
 8006b4a:	6a21      	ldr	r1, [r4, #32]
 8006b4c:	602b      	str	r3, [r5, #0]
 8006b4e:	d032      	beq.n	8006bb6 <__sflush_r+0x9a>
 8006b50:	6d60      	ldr	r0, [r4, #84]	; 0x54
 8006b52:	89a3      	ldrh	r3, [r4, #12]
 8006b54:	075a      	lsls	r2, r3, #29
 8006b56:	d505      	bpl.n	8006b64 <__sflush_r+0x48>
 8006b58:	6863      	ldr	r3, [r4, #4]
 8006b5a:	1ac0      	subs	r0, r0, r3
 8006b5c:	6b63      	ldr	r3, [r4, #52]	; 0x34
 8006b5e:	b10b      	cbz	r3, 8006b64 <__sflush_r+0x48>
 8006b60:	6c23      	ldr	r3, [r4, #64]	; 0x40
 8006b62:	1ac0      	subs	r0, r0, r3
 8006b64:	2300      	movs	r3, #0
 8006b66:	4602      	mov	r2, r0
 8006b68:	6ae6      	ldr	r6, [r4, #44]	; 0x2c
 8006b6a:	6a21      	ldr	r1, [r4, #32]
 8006b6c:	4628      	mov	r0, r5
 8006b6e:	47b0      	blx	r6
 8006b70:	1c43      	adds	r3, r0, #1
 8006b72:	89a3      	ldrh	r3, [r4, #12]
 8006b74:	d106      	bne.n	8006b84 <__sflush_r+0x68>
 8006b76:	6829      	ldr	r1, [r5, #0]
 8006b78:	291d      	cmp	r1, #29
 8006b7a:	d848      	bhi.n	8006c0e <__sflush_r+0xf2>
 8006b7c:	4a29      	ldr	r2, [pc, #164]	; (8006c24 <__sflush_r+0x108>)
 8006b7e:	40ca      	lsrs	r2, r1
 8006b80:	07d6      	lsls	r6, r2, #31
 8006b82:	d544      	bpl.n	8006c0e <__sflush_r+0xf2>
 8006b84:	2200      	movs	r2, #0
 8006b86:	6062      	str	r2, [r4, #4]
 8006b88:	04d9      	lsls	r1, r3, #19
 8006b8a:	6922      	ldr	r2, [r4, #16]
 8006b8c:	6022      	str	r2, [r4, #0]
 8006b8e:	d504      	bpl.n	8006b9a <__sflush_r+0x7e>
 8006b90:	1c42      	adds	r2, r0, #1
 8006b92:	d101      	bne.n	8006b98 <__sflush_r+0x7c>
 8006b94:	682b      	ldr	r3, [r5, #0]
 8006b96:	b903      	cbnz	r3, 8006b9a <__sflush_r+0x7e>
 8006b98:	6560      	str	r0, [r4, #84]	; 0x54
 8006b9a:	6b61      	ldr	r1, [r4, #52]	; 0x34
 8006b9c:	602f      	str	r7, [r5, #0]
 8006b9e:	2900      	cmp	r1, #0
 8006ba0:	d0c9      	beq.n	8006b36 <__sflush_r+0x1a>
 8006ba2:	f104 0344 	add.w	r3, r4, #68	; 0x44
 8006ba6:	4299      	cmp	r1, r3
 8006ba8:	d002      	beq.n	8006bb0 <__sflush_r+0x94>
 8006baa:	4628      	mov	r0, r5
 8006bac:	f000 f9cc 	bl	8006f48 <_free_r>
 8006bb0:	2000      	movs	r0, #0
 8006bb2:	6360      	str	r0, [r4, #52]	; 0x34
 8006bb4:	e7c0      	b.n	8006b38 <__sflush_r+0x1c>
 8006bb6:	2301      	movs	r3, #1
 8006bb8:	4628      	mov	r0, r5
 8006bba:	47b0      	blx	r6
 8006bbc:	1c41      	adds	r1, r0, #1
 8006bbe:	d1c8      	bne.n	8006b52 <__sflush_r+0x36>
 8006bc0:	682b      	ldr	r3, [r5, #0]
 8006bc2:	2b00      	cmp	r3, #0
 8006bc4:	d0c5      	beq.n	8006b52 <__sflush_r+0x36>
 8006bc6:	2b1d      	cmp	r3, #29
 8006bc8:	d001      	beq.n	8006bce <__sflush_r+0xb2>
 8006bca:	2b16      	cmp	r3, #22
 8006bcc:	d101      	bne.n	8006bd2 <__sflush_r+0xb6>
 8006bce:	602f      	str	r7, [r5, #0]
 8006bd0:	e7b1      	b.n	8006b36 <__sflush_r+0x1a>
 8006bd2:	89a3      	ldrh	r3, [r4, #12]
 8006bd4:	f043 0340 	orr.w	r3, r3, #64	; 0x40
 8006bd8:	81a3      	strh	r3, [r4, #12]
 8006bda:	e7ad      	b.n	8006b38 <__sflush_r+0x1c>
 8006bdc:	690f      	ldr	r7, [r1, #16]
 8006bde:	2f00      	cmp	r7, #0
 8006be0:	d0a9      	beq.n	8006b36 <__sflush_r+0x1a>
 8006be2:	0793      	lsls	r3, r2, #30
 8006be4:	680e      	ldr	r6, [r1, #0]
 8006be6:	bf08      	it	eq
 8006be8:	694b      	ldreq	r3, [r1, #20]
 8006bea:	600f      	str	r7, [r1, #0]
 8006bec:	bf18      	it	ne
 8006bee:	2300      	movne	r3, #0
 8006bf0:	eba6 0807 	sub.w	r8, r6, r7
 8006bf4:	608b      	str	r3, [r1, #8]
 8006bf6:	f1b8 0f00 	cmp.w	r8, #0
 8006bfa:	dd9c      	ble.n	8006b36 <__sflush_r+0x1a>
 8006bfc:	4643      	mov	r3, r8
 8006bfe:	463a      	mov	r2, r7
 8006c00:	6a21      	ldr	r1, [r4, #32]
 8006c02:	6aa6      	ldr	r6, [r4, #40]	; 0x28
 8006c04:	4628      	mov	r0, r5
 8006c06:	47b0      	blx	r6
 8006c08:	2800      	cmp	r0, #0
 8006c0a:	dc06      	bgt.n	8006c1a <__sflush_r+0xfe>
 8006c0c:	89a3      	ldrh	r3, [r4, #12]
 8006c0e:	f043 0340 	orr.w	r3, r3, #64	; 0x40
 8006c12:	81a3      	strh	r3, [r4, #12]
 8006c14:	f04f 30ff 	mov.w	r0, #4294967295
 8006c18:	e78e      	b.n	8006b38 <__sflush_r+0x1c>
 8006c1a:	4407      	add	r7, r0
 8006c1c:	eba8 0800 	sub.w	r8, r8, r0
 8006c20:	e7e9      	b.n	8006bf6 <__sflush_r+0xda>
 8006c22:	bf00      	nop
 8006c24:	20400001 	.word	0x20400001

08006c28 <_fflush_r>:
 8006c28:	b538      	push	{r3, r4, r5, lr}
 8006c2a:	690b      	ldr	r3, [r1, #16]
 8006c2c:	4605      	mov	r5, r0
 8006c2e:	460c      	mov	r4, r1
 8006c30:	b1db      	cbz	r3, 8006c6a <_fflush_r+0x42>
 8006c32:	b118      	cbz	r0, 8006c3c <_fflush_r+0x14>
 8006c34:	6983      	ldr	r3, [r0, #24]
 8006c36:	b90b      	cbnz	r3, 8006c3c <_fflush_r+0x14>
 8006c38:	f000 f860 	bl	8006cfc <__sinit>
 8006c3c:	4b0c      	ldr	r3, [pc, #48]	; (8006c70 <_fflush_r+0x48>)
 8006c3e:	429c      	cmp	r4, r3
 8006c40:	d109      	bne.n	8006c56 <_fflush_r+0x2e>
 8006c42:	686c      	ldr	r4, [r5, #4]
 8006c44:	f9b4 300c 	ldrsh.w	r3, [r4, #12]
 8006c48:	b17b      	cbz	r3, 8006c6a <_fflush_r+0x42>
 8006c4a:	4621      	mov	r1, r4
 8006c4c:	4628      	mov	r0, r5
 8006c4e:	e8bd 4038 	ldmia.w	sp!, {r3, r4, r5, lr}
 8006c52:	f7ff bf63 	b.w	8006b1c <__sflush_r>
 8006c56:	4b07      	ldr	r3, [pc, #28]	; (8006c74 <_fflush_r+0x4c>)
 8006c58:	429c      	cmp	r4, r3
 8006c5a:	d101      	bne.n	8006c60 <_fflush_r+0x38>
 8006c5c:	68ac      	ldr	r4, [r5, #8]
 8006c5e:	e7f1      	b.n	8006c44 <_fflush_r+0x1c>
 8006c60:	4b05      	ldr	r3, [pc, #20]	; (8006c78 <_fflush_r+0x50>)
 8006c62:	429c      	cmp	r4, r3
 8006c64:	bf08      	it	eq
 8006c66:	68ec      	ldreq	r4, [r5, #12]
 8006c68:	e7ec      	b.n	8006c44 <_fflush_r+0x1c>
 8006c6a:	2000      	movs	r0, #0
 8006c6c:	bd38      	pop	{r3, r4, r5, pc}
 8006c6e:	bf00      	nop
 8006c70:	08007c08 	.word	0x08007c08
 8006c74:	08007c28 	.word	0x08007c28
 8006c78:	08007be8 	.word	0x08007be8

08006c7c <std>:
 8006c7c:	2300      	movs	r3, #0
 8006c7e:	b510      	push	{r4, lr}
 8006c80:	4604      	mov	r4, r0
 8006c82:	e9c0 3300 	strd	r3, r3, [r0]
 8006c86:	6083      	str	r3, [r0, #8]
 8006c88:	8181      	strh	r1, [r0, #12]
 8006c8a:	6643      	str	r3, [r0, #100]	; 0x64
 8006c8c:	81c2      	strh	r2, [r0, #14]
 8006c8e:	e9c0 3304 	strd	r3, r3, [r0, #16]
 8006c92:	6183      	str	r3, [r0, #24]
 8006c94:	4619      	mov	r1, r3
 8006c96:	2208      	movs	r2, #8
 8006c98:	305c      	adds	r0, #92	; 0x5c
 8006c9a:	f000 f94c 	bl	8006f36 <memset>
 8006c9e:	4b05      	ldr	r3, [pc, #20]	; (8006cb4 <std+0x38>)
 8006ca0:	6263      	str	r3, [r4, #36]	; 0x24
 8006ca2:	4b05      	ldr	r3, [pc, #20]	; (8006cb8 <std+0x3c>)
 8006ca4:	62a3      	str	r3, [r4, #40]	; 0x28
 8006ca6:	4b05      	ldr	r3, [pc, #20]	; (8006cbc <std+0x40>)
 8006ca8:	62e3      	str	r3, [r4, #44]	; 0x2c
 8006caa:	4b05      	ldr	r3, [pc, #20]	; (8006cc0 <std+0x44>)
 8006cac:	6224      	str	r4, [r4, #32]
 8006cae:	6323      	str	r3, [r4, #48]	; 0x30
 8006cb0:	bd10      	pop	{r4, pc}
 8006cb2:	bf00      	nop
 8006cb4:	08007741 	.word	0x08007741
 8006cb8:	08007763 	.word	0x08007763
 8006cbc:	0800779b 	.word	0x0800779b
 8006cc0:	080077bf 	.word	0x080077bf

08006cc4 <_cleanup_r>:
 8006cc4:	4901      	ldr	r1, [pc, #4]	; (8006ccc <_cleanup_r+0x8>)
 8006cc6:	f000 b885 	b.w	8006dd4 <_fwalk_reent>
 8006cca:	bf00      	nop
 8006ccc:	08006c29 	.word	0x08006c29

08006cd0 <__sfmoreglue>:
 8006cd0:	b570      	push	{r4, r5, r6, lr}
 8006cd2:	1e4a      	subs	r2, r1, #1
 8006cd4:	2568      	movs	r5, #104	; 0x68
 8006cd6:	4355      	muls	r5, r2
 8006cd8:	460e      	mov	r6, r1
 8006cda:	f105 0174 	add.w	r1, r5, #116	; 0x74
 8006cde:	f000 f981 	bl	8006fe4 <_malloc_r>
 8006ce2:	4604      	mov	r4, r0
 8006ce4:	b140      	cbz	r0, 8006cf8 <__sfmoreglue+0x28>
 8006ce6:	2100      	movs	r1, #0
 8006ce8:	e9c0 1600 	strd	r1, r6, [r0]
 8006cec:	300c      	adds	r0, #12
 8006cee:	60a0      	str	r0, [r4, #8]
 8006cf0:	f105 0268 	add.w	r2, r5, #104	; 0x68
 8006cf4:	f000 f91f 	bl	8006f36 <memset>
 8006cf8:	4620      	mov	r0, r4
 8006cfa:	bd70      	pop	{r4, r5, r6, pc}

08006cfc <__sinit>:
 8006cfc:	6983      	ldr	r3, [r0, #24]
 8006cfe:	b510      	push	{r4, lr}
 8006d00:	4604      	mov	r4, r0
 8006d02:	bb33      	cbnz	r3, 8006d52 <__sinit+0x56>
 8006d04:	e9c0 3312 	strd	r3, r3, [r0, #72]	; 0x48
 8006d08:	6503      	str	r3, [r0, #80]	; 0x50
 8006d0a:	4b12      	ldr	r3, [pc, #72]	; (8006d54 <__sinit+0x58>)
 8006d0c:	4a12      	ldr	r2, [pc, #72]	; (8006d58 <__sinit+0x5c>)
 8006d0e:	681b      	ldr	r3, [r3, #0]
 8006d10:	6282      	str	r2, [r0, #40]	; 0x28
 8006d12:	4298      	cmp	r0, r3
 8006d14:	bf04      	itt	eq
 8006d16:	2301      	moveq	r3, #1
 8006d18:	6183      	streq	r3, [r0, #24]
 8006d1a:	f000 f81f 	bl	8006d5c <__sfp>
 8006d1e:	6060      	str	r0, [r4, #4]
 8006d20:	4620      	mov	r0, r4
 8006d22:	f000 f81b 	bl	8006d5c <__sfp>
 8006d26:	60a0      	str	r0, [r4, #8]
 8006d28:	4620      	mov	r0, r4
 8006d2a:	f000 f817 	bl	8006d5c <__sfp>
 8006d2e:	2200      	movs	r2, #0
 8006d30:	60e0      	str	r0, [r4, #12]
 8006d32:	2104      	movs	r1, #4
 8006d34:	6860      	ldr	r0, [r4, #4]
 8006d36:	f7ff ffa1 	bl	8006c7c <std>
 8006d3a:	2201      	movs	r2, #1
 8006d3c:	2109      	movs	r1, #9
 8006d3e:	68a0      	ldr	r0, [r4, #8]
 8006d40:	f7ff ff9c 	bl	8006c7c <std>
 8006d44:	2202      	movs	r2, #2
 8006d46:	2112      	movs	r1, #18
 8006d48:	68e0      	ldr	r0, [r4, #12]
 8006d4a:	f7ff ff97 	bl	8006c7c <std>
 8006d4e:	2301      	movs	r3, #1
 8006d50:	61a3      	str	r3, [r4, #24]
 8006d52:	bd10      	pop	{r4, pc}
 8006d54:	08007c48 	.word	0x08007c48
 8006d58:	08006cc5 	.word	0x08006cc5

08006d5c <__sfp>:
 8006d5c:	b5f8      	push	{r3, r4, r5, r6, r7, lr}
 8006d5e:	4b1b      	ldr	r3, [pc, #108]	; (8006dcc <__sfp+0x70>)
 8006d60:	681e      	ldr	r6, [r3, #0]
 8006d62:	69b3      	ldr	r3, [r6, #24]
 8006d64:	4607      	mov	r7, r0
 8006d66:	b913      	cbnz	r3, 8006d6e <__sfp+0x12>
 8006d68:	4630      	mov	r0, r6
 8006d6a:	f7ff ffc7 	bl	8006cfc <__sinit>
 8006d6e:	3648      	adds	r6, #72	; 0x48
 8006d70:	e9d6 3401 	ldrd	r3, r4, [r6, #4]
 8006d74:	3b01      	subs	r3, #1
 8006d76:	d503      	bpl.n	8006d80 <__sfp+0x24>
 8006d78:	6833      	ldr	r3, [r6, #0]
 8006d7a:	b133      	cbz	r3, 8006d8a <__sfp+0x2e>
 8006d7c:	6836      	ldr	r6, [r6, #0]
 8006d7e:	e7f7      	b.n	8006d70 <__sfp+0x14>
 8006d80:	f9b4 500c 	ldrsh.w	r5, [r4, #12]
 8006d84:	b16d      	cbz	r5, 8006da2 <__sfp+0x46>
 8006d86:	3468      	adds	r4, #104	; 0x68
 8006d88:	e7f4      	b.n	8006d74 <__sfp+0x18>
 8006d8a:	2104      	movs	r1, #4
 8006d8c:	4638      	mov	r0, r7
 8006d8e:	f7ff ff9f 	bl	8006cd0 <__sfmoreglue>
 8006d92:	6030      	str	r0, [r6, #0]
 8006d94:	2800      	cmp	r0, #0
 8006d96:	d1f1      	bne.n	8006d7c <__sfp+0x20>
 8006d98:	230c      	movs	r3, #12
 8006d9a:	603b      	str	r3, [r7, #0]
 8006d9c:	4604      	mov	r4, r0
 8006d9e:	4620      	mov	r0, r4
 8006da0:	bdf8      	pop	{r3, r4, r5, r6, r7, pc}
 8006da2:	4b0b      	ldr	r3, [pc, #44]	; (8006dd0 <__sfp+0x74>)
 8006da4:	6665      	str	r5, [r4, #100]	; 0x64
 8006da6:	e9c4 5500 	strd	r5, r5, [r4]
 8006daa:	60a5      	str	r5, [r4, #8]
 8006dac:	e9c4 3503 	strd	r3, r5, [r4, #12]
 8006db0:	e9c4 5505 	strd	r5, r5, [r4, #20]
 8006db4:	2208      	movs	r2, #8
 8006db6:	4629      	mov	r1, r5
 8006db8:	f104 005c 	add.w	r0, r4, #92	; 0x5c
 8006dbc:	f000 f8bb 	bl	8006f36 <memset>
 8006dc0:	e9c4 550d 	strd	r5, r5, [r4, #52]	; 0x34
 8006dc4:	e9c4 5512 	strd	r5, r5, [r4, #72]	; 0x48
 8006dc8:	e7e9      	b.n	8006d9e <__sfp+0x42>
 8006dca:	bf00      	nop
 8006dcc:	08007c48 	.word	0x08007c48
 8006dd0:	ffff0001 	.word	0xffff0001

08006dd4 <_fwalk_reent>:
 8006dd4:	e92d 43f8 	stmdb	sp!, {r3, r4, r5, r6, r7, r8, r9, lr}
 8006dd8:	4680      	mov	r8, r0
 8006dda:	4689      	mov	r9, r1
 8006ddc:	f100 0448 	add.w	r4, r0, #72	; 0x48
 8006de0:	2600      	movs	r6, #0
 8006de2:	b914      	cbnz	r4, 8006dea <_fwalk_reent+0x16>
 8006de4:	4630      	mov	r0, r6
 8006de6:	e8bd 83f8 	ldmia.w	sp!, {r3, r4, r5, r6, r7, r8, r9, pc}
 8006dea:	e9d4 7501 	ldrd	r7, r5, [r4, #4]
 8006dee:	3f01      	subs	r7, #1
 8006df0:	d501      	bpl.n	8006df6 <_fwalk_reent+0x22>
 8006df2:	6824      	ldr	r4, [r4, #0]
 8006df4:	e7f5      	b.n	8006de2 <_fwalk_reent+0xe>
 8006df6:	89ab      	ldrh	r3, [r5, #12]
 8006df8:	2b01      	cmp	r3, #1
 8006dfa:	d907      	bls.n	8006e0c <_fwalk_reent+0x38>
 8006dfc:	f9b5 300e 	ldrsh.w	r3, [r5, #14]
 8006e00:	3301      	adds	r3, #1
 8006e02:	d003      	beq.n	8006e0c <_fwalk_reent+0x38>
 8006e04:	4629      	mov	r1, r5
 8006e06:	4640      	mov	r0, r8
 8006e08:	47c8      	blx	r9
 8006e0a:	4306      	orrs	r6, r0
 8006e0c:	3568      	adds	r5, #104	; 0x68
 8006e0e:	e7ee      	b.n	8006dee <_fwalk_reent+0x1a>

08006e10 <__libc_init_array>:
 8006e10:	b570      	push	{r4, r5, r6, lr}
 8006e12:	4e0d      	ldr	r6, [pc, #52]	; (8006e48 <__libc_init_array+0x38>)
 8006e14:	4c0d      	ldr	r4, [pc, #52]	; (8006e4c <__libc_init_array+0x3c>)
 8006e16:	1ba4      	subs	r4, r4, r6
 8006e18:	10a4      	asrs	r4, r4, #2
 8006e1a:	2500      	movs	r5, #0
 8006e1c:	42a5      	cmp	r5, r4
 8006e1e:	d109      	bne.n	8006e34 <__libc_init_array+0x24>
 8006e20:	4e0b      	ldr	r6, [pc, #44]	; (8006e50 <__libc_init_array+0x40>)
 8006e22:	4c0c      	ldr	r4, [pc, #48]	; (8006e54 <__libc_init_array+0x44>)
 8006e24:	f000 fe02 	bl	8007a2c <_init>
 8006e28:	1ba4      	subs	r4, r4, r6
 8006e2a:	10a4      	asrs	r4, r4, #2
 8006e2c:	2500      	movs	r5, #0
 8006e2e:	42a5      	cmp	r5, r4
 8006e30:	d105      	bne.n	8006e3e <__libc_init_array+0x2e>
 8006e32:	bd70      	pop	{r4, r5, r6, pc}
 8006e34:	f856 3025 	ldr.w	r3, [r6, r5, lsl #2]
 8006e38:	4798      	blx	r3
 8006e3a:	3501      	adds	r5, #1
 8006e3c:	e7ee      	b.n	8006e1c <__libc_init_array+0xc>
 8006e3e:	f856 3025 	ldr.w	r3, [r6, r5, lsl #2]
 8006e42:	4798      	blx	r3
 8006e44:	3501      	adds	r5, #1
 8006e46:	e7f2      	b.n	8006e2e <__libc_init_array+0x1e>
 8006e48:	08007c88 	.word	0x08007c88
 8006e4c:	08007c88 	.word	0x08007c88
 8006e50:	08007c88 	.word	0x08007c88
 8006e54:	08007c8c 	.word	0x08007c8c

08006e58 <__swhatbuf_r>:
 8006e58:	b570      	push	{r4, r5, r6, lr}
 8006e5a:	460e      	mov	r6, r1
 8006e5c:	f9b1 100e 	ldrsh.w	r1, [r1, #14]
 8006e60:	2900      	cmp	r1, #0
 8006e62:	b096      	sub	sp, #88	; 0x58
 8006e64:	4614      	mov	r4, r2
 8006e66:	461d      	mov	r5, r3
 8006e68:	da07      	bge.n	8006e7a <__swhatbuf_r+0x22>
 8006e6a:	2300      	movs	r3, #0
 8006e6c:	602b      	str	r3, [r5, #0]
 8006e6e:	89b3      	ldrh	r3, [r6, #12]
 8006e70:	061a      	lsls	r2, r3, #24
 8006e72:	d410      	bmi.n	8006e96 <__swhatbuf_r+0x3e>
 8006e74:	f44f 6380 	mov.w	r3, #1024	; 0x400
 8006e78:	e00e      	b.n	8006e98 <__swhatbuf_r+0x40>
 8006e7a:	466a      	mov	r2, sp
 8006e7c:	f000 fd8e 	bl	800799c <_fstat_r>
 8006e80:	2800      	cmp	r0, #0
 8006e82:	dbf2      	blt.n	8006e6a <__swhatbuf_r+0x12>
 8006e84:	9a01      	ldr	r2, [sp, #4]
 8006e86:	f402 4270 	and.w	r2, r2, #61440	; 0xf000
 8006e8a:	f5a2 5300 	sub.w	r3, r2, #8192	; 0x2000
 8006e8e:	425a      	negs	r2, r3
 8006e90:	415a      	adcs	r2, r3
 8006e92:	602a      	str	r2, [r5, #0]
 8006e94:	e7ee      	b.n	8006e74 <__swhatbuf_r+0x1c>
 8006e96:	2340      	movs	r3, #64	; 0x40
 8006e98:	2000      	movs	r0, #0
 8006e9a:	6023      	str	r3, [r4, #0]
 8006e9c:	b016      	add	sp, #88	; 0x58
 8006e9e:	bd70      	pop	{r4, r5, r6, pc}

08006ea0 <__smakebuf_r>:
 8006ea0:	898b      	ldrh	r3, [r1, #12]
 8006ea2:	b573      	push	{r0, r1, r4, r5, r6, lr}
 8006ea4:	079d      	lsls	r5, r3, #30
 8006ea6:	4606      	mov	r6, r0
 8006ea8:	460c      	mov	r4, r1
 8006eaa:	d507      	bpl.n	8006ebc <__smakebuf_r+0x1c>
 8006eac:	f104 0347 	add.w	r3, r4, #71	; 0x47
 8006eb0:	6023      	str	r3, [r4, #0]
 8006eb2:	6123      	str	r3, [r4, #16]
 8006eb4:	2301      	movs	r3, #1
 8006eb6:	6163      	str	r3, [r4, #20]
 8006eb8:	b002      	add	sp, #8
 8006eba:	bd70      	pop	{r4, r5, r6, pc}
 8006ebc:	ab01      	add	r3, sp, #4
 8006ebe:	466a      	mov	r2, sp
 8006ec0:	f7ff ffca 	bl	8006e58 <__swhatbuf_r>
 8006ec4:	9900      	ldr	r1, [sp, #0]
 8006ec6:	4605      	mov	r5, r0
 8006ec8:	4630      	mov	r0, r6
 8006eca:	f000 f88b 	bl	8006fe4 <_malloc_r>
 8006ece:	b948      	cbnz	r0, 8006ee4 <__smakebuf_r+0x44>
 8006ed0:	f9b4 300c 	ldrsh.w	r3, [r4, #12]
 8006ed4:	059a      	lsls	r2, r3, #22
 8006ed6:	d4ef      	bmi.n	8006eb8 <__smakebuf_r+0x18>
 8006ed8:	f023 0303 	bic.w	r3, r3, #3
 8006edc:	f043 0302 	orr.w	r3, r3, #2
 8006ee0:	81a3      	strh	r3, [r4, #12]
 8006ee2:	e7e3      	b.n	8006eac <__smakebuf_r+0xc>
 8006ee4:	4b0d      	ldr	r3, [pc, #52]	; (8006f1c <__smakebuf_r+0x7c>)
 8006ee6:	62b3      	str	r3, [r6, #40]	; 0x28
 8006ee8:	89a3      	ldrh	r3, [r4, #12]
 8006eea:	6020      	str	r0, [r4, #0]
 8006eec:	f043 0380 	orr.w	r3, r3, #128	; 0x80
 8006ef0:	81a3      	strh	r3, [r4, #12]
 8006ef2:	9b00      	ldr	r3, [sp, #0]
 8006ef4:	6163      	str	r3, [r4, #20]
 8006ef6:	9b01      	ldr	r3, [sp, #4]
 8006ef8:	6120      	str	r0, [r4, #16]
 8006efa:	b15b      	cbz	r3, 8006f14 <__smakebuf_r+0x74>
 8006efc:	f9b4 100e 	ldrsh.w	r1, [r4, #14]
 8006f00:	4630      	mov	r0, r6
 8006f02:	f000 fd5d 	bl	80079c0 <_isatty_r>
 8006f06:	b128      	cbz	r0, 8006f14 <__smakebuf_r+0x74>
 8006f08:	89a3      	ldrh	r3, [r4, #12]
 8006f0a:	f023 0303 	bic.w	r3, r3, #3
 8006f0e:	f043 0301 	orr.w	r3, r3, #1
 8006f12:	81a3      	strh	r3, [r4, #12]
 8006f14:	89a3      	ldrh	r3, [r4, #12]
 8006f16:	431d      	orrs	r5, r3
 8006f18:	81a5      	strh	r5, [r4, #12]
 8006f1a:	e7cd      	b.n	8006eb8 <__smakebuf_r+0x18>
 8006f1c:	08006cc5 	.word	0x08006cc5

08006f20 <memcpy>:
 8006f20:	b510      	push	{r4, lr}
 8006f22:	1e43      	subs	r3, r0, #1
 8006f24:	440a      	add	r2, r1
 8006f26:	4291      	cmp	r1, r2
 8006f28:	d100      	bne.n	8006f2c <memcpy+0xc>
 8006f2a:	bd10      	pop	{r4, pc}
 8006f2c:	f811 4b01 	ldrb.w	r4, [r1], #1
 8006f30:	f803 4f01 	strb.w	r4, [r3, #1]!
 8006f34:	e7f7      	b.n	8006f26 <memcpy+0x6>

08006f36 <memset>:
 8006f36:	4402      	add	r2, r0
 8006f38:	4603      	mov	r3, r0
 8006f3a:	4293      	cmp	r3, r2
 8006f3c:	d100      	bne.n	8006f40 <memset+0xa>
 8006f3e:	4770      	bx	lr
 8006f40:	f803 1b01 	strb.w	r1, [r3], #1
 8006f44:	e7f9      	b.n	8006f3a <memset+0x4>
	...

08006f48 <_free_r>:
 8006f48:	b538      	push	{r3, r4, r5, lr}
 8006f4a:	4605      	mov	r5, r0
 8006f4c:	2900      	cmp	r1, #0
 8006f4e:	d045      	beq.n	8006fdc <_free_r+0x94>
 8006f50:	f851 3c04 	ldr.w	r3, [r1, #-4]
 8006f54:	1f0c      	subs	r4, r1, #4
 8006f56:	2b00      	cmp	r3, #0
 8006f58:	bfb8      	it	lt
 8006f5a:	18e4      	addlt	r4, r4, r3
 8006f5c:	f000 fd52 	bl	8007a04 <__malloc_lock>
 8006f60:	4a1f      	ldr	r2, [pc, #124]	; (8006fe0 <_free_r+0x98>)
 8006f62:	6813      	ldr	r3, [r2, #0]
 8006f64:	4610      	mov	r0, r2
 8006f66:	b933      	cbnz	r3, 8006f76 <_free_r+0x2e>
 8006f68:	6063      	str	r3, [r4, #4]
 8006f6a:	6014      	str	r4, [r2, #0]
 8006f6c:	4628      	mov	r0, r5
 8006f6e:	e8bd 4038 	ldmia.w	sp!, {r3, r4, r5, lr}
 8006f72:	f000 bd48 	b.w	8007a06 <__malloc_unlock>
 8006f76:	42a3      	cmp	r3, r4
 8006f78:	d90c      	bls.n	8006f94 <_free_r+0x4c>
 8006f7a:	6821      	ldr	r1, [r4, #0]
 8006f7c:	1862      	adds	r2, r4, r1
 8006f7e:	4293      	cmp	r3, r2
 8006f80:	bf04      	itt	eq
 8006f82:	681a      	ldreq	r2, [r3, #0]
 8006f84:	685b      	ldreq	r3, [r3, #4]
 8006f86:	6063      	str	r3, [r4, #4]
 8006f88:	bf04      	itt	eq
 8006f8a:	1852      	addeq	r2, r2, r1
 8006f8c:	6022      	streq	r2, [r4, #0]
 8006f8e:	6004      	str	r4, [r0, #0]
 8006f90:	e7ec      	b.n	8006f6c <_free_r+0x24>
 8006f92:	4613      	mov	r3, r2
 8006f94:	685a      	ldr	r2, [r3, #4]
 8006f96:	b10a      	cbz	r2, 8006f9c <_free_r+0x54>
 8006f98:	42a2      	cmp	r2, r4
 8006f9a:	d9fa      	bls.n	8006f92 <_free_r+0x4a>
 8006f9c:	6819      	ldr	r1, [r3, #0]
 8006f9e:	1858      	adds	r0, r3, r1
 8006fa0:	42a0      	cmp	r0, r4
 8006fa2:	d10b      	bne.n	8006fbc <_free_r+0x74>
 8006fa4:	6820      	ldr	r0, [r4, #0]
 8006fa6:	4401      	add	r1, r0
 8006fa8:	1858      	adds	r0, r3, r1
 8006faa:	4282      	cmp	r2, r0
 8006fac:	6019      	str	r1, [r3, #0]
 8006fae:	d1dd      	bne.n	8006f6c <_free_r+0x24>
 8006fb0:	6810      	ldr	r0, [r2, #0]
 8006fb2:	6852      	ldr	r2, [r2, #4]
 8006fb4:	605a      	str	r2, [r3, #4]
 8006fb6:	4401      	add	r1, r0
 8006fb8:	6019      	str	r1, [r3, #0]
 8006fba:	e7d7      	b.n	8006f6c <_free_r+0x24>
 8006fbc:	d902      	bls.n	8006fc4 <_free_r+0x7c>
 8006fbe:	230c      	movs	r3, #12
 8006fc0:	602b      	str	r3, [r5, #0]
 8006fc2:	e7d3      	b.n	8006f6c <_free_r+0x24>
 8006fc4:	6820      	ldr	r0, [r4, #0]
 8006fc6:	1821      	adds	r1, r4, r0
 8006fc8:	428a      	cmp	r2, r1
 8006fca:	bf04      	itt	eq
 8006fcc:	6811      	ldreq	r1, [r2, #0]
 8006fce:	6852      	ldreq	r2, [r2, #4]
 8006fd0:	6062      	str	r2, [r4, #4]
 8006fd2:	bf04      	itt	eq
 8006fd4:	1809      	addeq	r1, r1, r0
 8006fd6:	6021      	streq	r1, [r4, #0]
 8006fd8:	605c      	str	r4, [r3, #4]
 8006fda:	e7c7      	b.n	8006f6c <_free_r+0x24>
 8006fdc:	bd38      	pop	{r3, r4, r5, pc}
 8006fde:	bf00      	nop
 8006fe0:	20000370 	.word	0x20000370

08006fe4 <_malloc_r>:
 8006fe4:	b570      	push	{r4, r5, r6, lr}
 8006fe6:	1ccd      	adds	r5, r1, #3
 8006fe8:	f025 0503 	bic.w	r5, r5, #3
 8006fec:	3508      	adds	r5, #8
 8006fee:	2d0c      	cmp	r5, #12
 8006ff0:	bf38      	it	cc
 8006ff2:	250c      	movcc	r5, #12
 8006ff4:	2d00      	cmp	r5, #0
 8006ff6:	4606      	mov	r6, r0
 8006ff8:	db01      	blt.n	8006ffe <_malloc_r+0x1a>
 8006ffa:	42a9      	cmp	r1, r5
 8006ffc:	d903      	bls.n	8007006 <_malloc_r+0x22>
 8006ffe:	230c      	movs	r3, #12
 8007000:	6033      	str	r3, [r6, #0]
 8007002:	2000      	movs	r0, #0
 8007004:	bd70      	pop	{r4, r5, r6, pc}
 8007006:	f000 fcfd 	bl	8007a04 <__malloc_lock>
 800700a:	4a21      	ldr	r2, [pc, #132]	; (8007090 <_malloc_r+0xac>)
 800700c:	6814      	ldr	r4, [r2, #0]
 800700e:	4621      	mov	r1, r4
 8007010:	b991      	cbnz	r1, 8007038 <_malloc_r+0x54>
 8007012:	4c20      	ldr	r4, [pc, #128]	; (8007094 <_malloc_r+0xb0>)
 8007014:	6823      	ldr	r3, [r4, #0]
 8007016:	b91b      	cbnz	r3, 8007020 <_malloc_r+0x3c>
 8007018:	4630      	mov	r0, r6
 800701a:	f000 fb81 	bl	8007720 <_sbrk_r>
 800701e:	6020      	str	r0, [r4, #0]
 8007020:	4629      	mov	r1, r5
 8007022:	4630      	mov	r0, r6
 8007024:	f000 fb7c 	bl	8007720 <_sbrk_r>
 8007028:	1c43      	adds	r3, r0, #1
 800702a:	d124      	bne.n	8007076 <_malloc_r+0x92>
 800702c:	230c      	movs	r3, #12
 800702e:	6033      	str	r3, [r6, #0]
 8007030:	4630      	mov	r0, r6
 8007032:	f000 fce8 	bl	8007a06 <__malloc_unlock>
 8007036:	e7e4      	b.n	8007002 <_malloc_r+0x1e>
 8007038:	680b      	ldr	r3, [r1, #0]
 800703a:	1b5b      	subs	r3, r3, r5
 800703c:	d418      	bmi.n	8007070 <_malloc_r+0x8c>
 800703e:	2b0b      	cmp	r3, #11
 8007040:	d90f      	bls.n	8007062 <_malloc_r+0x7e>
 8007042:	600b      	str	r3, [r1, #0]
 8007044:	50cd      	str	r5, [r1, r3]
 8007046:	18cc      	adds	r4, r1, r3
 8007048:	4630      	mov	r0, r6
 800704a:	f000 fcdc 	bl	8007a06 <__malloc_unlock>
 800704e:	f104 000b 	add.w	r0, r4, #11
 8007052:	1d23      	adds	r3, r4, #4
 8007054:	f020 0007 	bic.w	r0, r0, #7
 8007058:	1ac3      	subs	r3, r0, r3
 800705a:	d0d3      	beq.n	8007004 <_malloc_r+0x20>
 800705c:	425a      	negs	r2, r3
 800705e:	50e2      	str	r2, [r4, r3]
 8007060:	e7d0      	b.n	8007004 <_malloc_r+0x20>
 8007062:	428c      	cmp	r4, r1
 8007064:	684b      	ldr	r3, [r1, #4]
 8007066:	bf16      	itet	ne
 8007068:	6063      	strne	r3, [r4, #4]
 800706a:	6013      	streq	r3, [r2, #0]
 800706c:	460c      	movne	r4, r1
 800706e:	e7eb      	b.n	8007048 <_malloc_r+0x64>
 8007070:	460c      	mov	r4, r1
 8007072:	6849      	ldr	r1, [r1, #4]
 8007074:	e7cc      	b.n	8007010 <_malloc_r+0x2c>
 8007076:	1cc4      	adds	r4, r0, #3
 8007078:	f024 0403 	bic.w	r4, r4, #3
 800707c:	42a0      	cmp	r0, r4
 800707e:	d005      	beq.n	800708c <_malloc_r+0xa8>
 8007080:	1a21      	subs	r1, r4, r0
 8007082:	4630      	mov	r0, r6
 8007084:	f000 fb4c 	bl	8007720 <_sbrk_r>
 8007088:	3001      	adds	r0, #1
 800708a:	d0cf      	beq.n	800702c <_malloc_r+0x48>
 800708c:	6025      	str	r5, [r4, #0]
 800708e:	e7db      	b.n	8007048 <_malloc_r+0x64>
 8007090:	20000370 	.word	0x20000370
 8007094:	20000374 	.word	0x20000374

08007098 <__sfputc_r>:
 8007098:	6893      	ldr	r3, [r2, #8]
 800709a:	3b01      	subs	r3, #1
 800709c:	2b00      	cmp	r3, #0
 800709e:	b410      	push	{r4}
 80070a0:	6093      	str	r3, [r2, #8]
 80070a2:	da08      	bge.n	80070b6 <__sfputc_r+0x1e>
 80070a4:	6994      	ldr	r4, [r2, #24]
 80070a6:	42a3      	cmp	r3, r4
 80070a8:	db01      	blt.n	80070ae <__sfputc_r+0x16>
 80070aa:	290a      	cmp	r1, #10
 80070ac:	d103      	bne.n	80070b6 <__sfputc_r+0x1e>
 80070ae:	f85d 4b04 	ldr.w	r4, [sp], #4
 80070b2:	f000 bb91 	b.w	80077d8 <__swbuf_r>
 80070b6:	6813      	ldr	r3, [r2, #0]
 80070b8:	1c58      	adds	r0, r3, #1
 80070ba:	6010      	str	r0, [r2, #0]
 80070bc:	7019      	strb	r1, [r3, #0]
 80070be:	4608      	mov	r0, r1
 80070c0:	f85d 4b04 	ldr.w	r4, [sp], #4
 80070c4:	4770      	bx	lr

080070c6 <__sfputs_r>:
 80070c6:	b5f8      	push	{r3, r4, r5, r6, r7, lr}
 80070c8:	4606      	mov	r6, r0
 80070ca:	460f      	mov	r7, r1
 80070cc:	4614      	mov	r4, r2
 80070ce:	18d5      	adds	r5, r2, r3
 80070d0:	42ac      	cmp	r4, r5
 80070d2:	d101      	bne.n	80070d8 <__sfputs_r+0x12>
 80070d4:	2000      	movs	r0, #0
 80070d6:	e007      	b.n	80070e8 <__sfputs_r+0x22>
 80070d8:	463a      	mov	r2, r7
 80070da:	f814 1b01 	ldrb.w	r1, [r4], #1
 80070de:	4630      	mov	r0, r6
 80070e0:	f7ff ffda 	bl	8007098 <__sfputc_r>
 80070e4:	1c43      	adds	r3, r0, #1
 80070e6:	d1f3      	bne.n	80070d0 <__sfputs_r+0xa>
 80070e8:	bdf8      	pop	{r3, r4, r5, r6, r7, pc}
	...

080070ec <_vfiprintf_r>:
 80070ec:	e92d 4ff0 	stmdb	sp!, {r4, r5, r6, r7, r8, r9, sl, fp, lr}
 80070f0:	460c      	mov	r4, r1
 80070f2:	b09d      	sub	sp, #116	; 0x74
 80070f4:	4617      	mov	r7, r2
 80070f6:	461d      	mov	r5, r3
 80070f8:	4606      	mov	r6, r0
 80070fa:	b118      	cbz	r0, 8007104 <_vfiprintf_r+0x18>
 80070fc:	6983      	ldr	r3, [r0, #24]
 80070fe:	b90b      	cbnz	r3, 8007104 <_vfiprintf_r+0x18>
 8007100:	f7ff fdfc 	bl	8006cfc <__sinit>
 8007104:	4b7c      	ldr	r3, [pc, #496]	; (80072f8 <_vfiprintf_r+0x20c>)
 8007106:	429c      	cmp	r4, r3
 8007108:	d158      	bne.n	80071bc <_vfiprintf_r+0xd0>
 800710a:	6874      	ldr	r4, [r6, #4]
 800710c:	89a3      	ldrh	r3, [r4, #12]
 800710e:	0718      	lsls	r0, r3, #28
 8007110:	d55e      	bpl.n	80071d0 <_vfiprintf_r+0xe4>
 8007112:	6923      	ldr	r3, [r4, #16]
 8007114:	2b00      	cmp	r3, #0
 8007116:	d05b      	beq.n	80071d0 <_vfiprintf_r+0xe4>
 8007118:	2300      	movs	r3, #0
 800711a:	9309      	str	r3, [sp, #36]	; 0x24
 800711c:	2320      	movs	r3, #32
 800711e:	f88d 3029 	strb.w	r3, [sp, #41]	; 0x29
 8007122:	2330      	movs	r3, #48	; 0x30
 8007124:	f88d 302a 	strb.w	r3, [sp, #42]	; 0x2a
 8007128:	9503      	str	r5, [sp, #12]
 800712a:	f04f 0b01 	mov.w	fp, #1
 800712e:	46b8      	mov	r8, r7
 8007130:	4645      	mov	r5, r8
 8007132:	f815 3b01 	ldrb.w	r3, [r5], #1
 8007136:	b10b      	cbz	r3, 800713c <_vfiprintf_r+0x50>
 8007138:	2b25      	cmp	r3, #37	; 0x25
 800713a:	d154      	bne.n	80071e6 <_vfiprintf_r+0xfa>
 800713c:	ebb8 0a07 	subs.w	sl, r8, r7
 8007140:	d00b      	beq.n	800715a <_vfiprintf_r+0x6e>
 8007142:	4653      	mov	r3, sl
 8007144:	463a      	mov	r2, r7
 8007146:	4621      	mov	r1, r4
 8007148:	4630      	mov	r0, r6
 800714a:	f7ff ffbc 	bl	80070c6 <__sfputs_r>
 800714e:	3001      	adds	r0, #1
 8007150:	f000 80c2 	beq.w	80072d8 <_vfiprintf_r+0x1ec>
 8007154:	9b09      	ldr	r3, [sp, #36]	; 0x24
 8007156:	4453      	add	r3, sl
 8007158:	9309      	str	r3, [sp, #36]	; 0x24
 800715a:	f898 3000 	ldrb.w	r3, [r8]
 800715e:	2b00      	cmp	r3, #0
 8007160:	f000 80ba 	beq.w	80072d8 <_vfiprintf_r+0x1ec>
 8007164:	2300      	movs	r3, #0
 8007166:	f04f 32ff 	mov.w	r2, #4294967295
 800716a:	e9cd 2305 	strd	r2, r3, [sp, #20]
 800716e:	9304      	str	r3, [sp, #16]
 8007170:	9307      	str	r3, [sp, #28]
 8007172:	f88d 3053 	strb.w	r3, [sp, #83]	; 0x53
 8007176:	931a      	str	r3, [sp, #104]	; 0x68
 8007178:	46a8      	mov	r8, r5
 800717a:	2205      	movs	r2, #5
 800717c:	f818 1b01 	ldrb.w	r1, [r8], #1
 8007180:	485e      	ldr	r0, [pc, #376]	; (80072fc <_vfiprintf_r+0x210>)
 8007182:	f7f9 f82d 	bl	80001e0 <memchr>
 8007186:	9b04      	ldr	r3, [sp, #16]
 8007188:	bb78      	cbnz	r0, 80071ea <_vfiprintf_r+0xfe>
 800718a:	06d9      	lsls	r1, r3, #27
 800718c:	bf44      	itt	mi
 800718e:	2220      	movmi	r2, #32
 8007190:	f88d 2053 	strbmi.w	r2, [sp, #83]	; 0x53
 8007194:	071a      	lsls	r2, r3, #28
 8007196:	bf44      	itt	mi
 8007198:	222b      	movmi	r2, #43	; 0x2b
 800719a:	f88d 2053 	strbmi.w	r2, [sp, #83]	; 0x53
 800719e:	782a      	ldrb	r2, [r5, #0]
 80071a0:	2a2a      	cmp	r2, #42	; 0x2a
 80071a2:	d02a      	beq.n	80071fa <_vfiprintf_r+0x10e>
 80071a4:	9a07      	ldr	r2, [sp, #28]
 80071a6:	46a8      	mov	r8, r5
 80071a8:	2000      	movs	r0, #0
 80071aa:	250a      	movs	r5, #10
 80071ac:	4641      	mov	r1, r8
 80071ae:	f811 3b01 	ldrb.w	r3, [r1], #1
 80071b2:	3b30      	subs	r3, #48	; 0x30
 80071b4:	2b09      	cmp	r3, #9
 80071b6:	d969      	bls.n	800728c <_vfiprintf_r+0x1a0>
 80071b8:	b360      	cbz	r0, 8007214 <_vfiprintf_r+0x128>
 80071ba:	e024      	b.n	8007206 <_vfiprintf_r+0x11a>
 80071bc:	4b50      	ldr	r3, [pc, #320]	; (8007300 <_vfiprintf_r+0x214>)
 80071be:	429c      	cmp	r4, r3
 80071c0:	d101      	bne.n	80071c6 <_vfiprintf_r+0xda>
 80071c2:	68b4      	ldr	r4, [r6, #8]
 80071c4:	e7a2      	b.n	800710c <_vfiprintf_r+0x20>
 80071c6:	4b4f      	ldr	r3, [pc, #316]	; (8007304 <_vfiprintf_r+0x218>)
 80071c8:	429c      	cmp	r4, r3
 80071ca:	bf08      	it	eq
 80071cc:	68f4      	ldreq	r4, [r6, #12]
 80071ce:	e79d      	b.n	800710c <_vfiprintf_r+0x20>
 80071d0:	4621      	mov	r1, r4
 80071d2:	4630      	mov	r0, r6
 80071d4:	f000 fb64 	bl	80078a0 <__swsetup_r>
 80071d8:	2800      	cmp	r0, #0
 80071da:	d09d      	beq.n	8007118 <_vfiprintf_r+0x2c>
 80071dc:	f04f 30ff 	mov.w	r0, #4294967295
 80071e0:	b01d      	add	sp, #116	; 0x74
 80071e2:	e8bd 8ff0 	ldmia.w	sp!, {r4, r5, r6, r7, r8, r9, sl, fp, pc}
 80071e6:	46a8      	mov	r8, r5
 80071e8:	e7a2      	b.n	8007130 <_vfiprintf_r+0x44>
 80071ea:	4a44      	ldr	r2, [pc, #272]	; (80072fc <_vfiprintf_r+0x210>)
 80071ec:	1a80      	subs	r0, r0, r2
 80071ee:	fa0b f000 	lsl.w	r0, fp, r0
 80071f2:	4318      	orrs	r0, r3
 80071f4:	9004      	str	r0, [sp, #16]
 80071f6:	4645      	mov	r5, r8
 80071f8:	e7be      	b.n	8007178 <_vfiprintf_r+0x8c>
 80071fa:	9a03      	ldr	r2, [sp, #12]
 80071fc:	1d11      	adds	r1, r2, #4
 80071fe:	6812      	ldr	r2, [r2, #0]
 8007200:	9103      	str	r1, [sp, #12]
 8007202:	2a00      	cmp	r2, #0
 8007204:	db01      	blt.n	800720a <_vfiprintf_r+0x11e>
 8007206:	9207      	str	r2, [sp, #28]
 8007208:	e004      	b.n	8007214 <_vfiprintf_r+0x128>
 800720a:	4252      	negs	r2, r2
 800720c:	f043 0302 	orr.w	r3, r3, #2
 8007210:	9207      	str	r2, [sp, #28]
 8007212:	9304      	str	r3, [sp, #16]
 8007214:	f898 3000 	ldrb.w	r3, [r8]
 8007218:	2b2e      	cmp	r3, #46	; 0x2e
 800721a:	d10e      	bne.n	800723a <_vfiprintf_r+0x14e>
 800721c:	f898 3001 	ldrb.w	r3, [r8, #1]
 8007220:	2b2a      	cmp	r3, #42	; 0x2a
 8007222:	d138      	bne.n	8007296 <_vfiprintf_r+0x1aa>
 8007224:	9b03      	ldr	r3, [sp, #12]
 8007226:	1d1a      	adds	r2, r3, #4
 8007228:	681b      	ldr	r3, [r3, #0]
 800722a:	9203      	str	r2, [sp, #12]
 800722c:	2b00      	cmp	r3, #0
 800722e:	bfb8      	it	lt
 8007230:	f04f 33ff 	movlt.w	r3, #4294967295
 8007234:	f108 0802 	add.w	r8, r8, #2
 8007238:	9305      	str	r3, [sp, #20]
 800723a:	4d33      	ldr	r5, [pc, #204]	; (8007308 <_vfiprintf_r+0x21c>)
 800723c:	f898 1000 	ldrb.w	r1, [r8]
 8007240:	2203      	movs	r2, #3
 8007242:	4628      	mov	r0, r5
 8007244:	f7f8 ffcc 	bl	80001e0 <memchr>
 8007248:	b140      	cbz	r0, 800725c <_vfiprintf_r+0x170>
 800724a:	2340      	movs	r3, #64	; 0x40
 800724c:	1b40      	subs	r0, r0, r5
 800724e:	fa03 f000 	lsl.w	r0, r3, r0
 8007252:	9b04      	ldr	r3, [sp, #16]
 8007254:	4303      	orrs	r3, r0
 8007256:	f108 0801 	add.w	r8, r8, #1
 800725a:	9304      	str	r3, [sp, #16]
 800725c:	f898 1000 	ldrb.w	r1, [r8]
 8007260:	482a      	ldr	r0, [pc, #168]	; (800730c <_vfiprintf_r+0x220>)
 8007262:	f88d 1028 	strb.w	r1, [sp, #40]	; 0x28
 8007266:	2206      	movs	r2, #6
 8007268:	f108 0701 	add.w	r7, r8, #1
 800726c:	f7f8 ffb8 	bl	80001e0 <memchr>
 8007270:	2800      	cmp	r0, #0
 8007272:	d037      	beq.n	80072e4 <_vfiprintf_r+0x1f8>
 8007274:	4b26      	ldr	r3, [pc, #152]	; (8007310 <_vfiprintf_r+0x224>)
 8007276:	bb1b      	cbnz	r3, 80072c0 <_vfiprintf_r+0x1d4>
 8007278:	9b03      	ldr	r3, [sp, #12]
 800727a:	3307      	adds	r3, #7
 800727c:	f023 0307 	bic.w	r3, r3, #7
 8007280:	3308      	adds	r3, #8
 8007282:	9303      	str	r3, [sp, #12]
 8007284:	9b09      	ldr	r3, [sp, #36]	; 0x24
 8007286:	444b      	add	r3, r9
 8007288:	9309      	str	r3, [sp, #36]	; 0x24
 800728a:	e750      	b.n	800712e <_vfiprintf_r+0x42>
 800728c:	fb05 3202 	mla	r2, r5, r2, r3
 8007290:	2001      	movs	r0, #1
 8007292:	4688      	mov	r8, r1
 8007294:	e78a      	b.n	80071ac <_vfiprintf_r+0xc0>
 8007296:	2300      	movs	r3, #0
 8007298:	f108 0801 	add.w	r8, r8, #1
 800729c:	9305      	str	r3, [sp, #20]
 800729e:	4619      	mov	r1, r3
 80072a0:	250a      	movs	r5, #10
 80072a2:	4640      	mov	r0, r8
 80072a4:	f810 2b01 	ldrb.w	r2, [r0], #1
 80072a8:	3a30      	subs	r2, #48	; 0x30
 80072aa:	2a09      	cmp	r2, #9
 80072ac:	d903      	bls.n	80072b6 <_vfiprintf_r+0x1ca>
 80072ae:	2b00      	cmp	r3, #0
 80072b0:	d0c3      	beq.n	800723a <_vfiprintf_r+0x14e>
 80072b2:	9105      	str	r1, [sp, #20]
 80072b4:	e7c1      	b.n	800723a <_vfiprintf_r+0x14e>
 80072b6:	fb05 2101 	mla	r1, r5, r1, r2
 80072ba:	2301      	movs	r3, #1
 80072bc:	4680      	mov	r8, r0
 80072be:	e7f0      	b.n	80072a2 <_vfiprintf_r+0x1b6>
 80072c0:	ab03      	add	r3, sp, #12
 80072c2:	9300      	str	r3, [sp, #0]
 80072c4:	4622      	mov	r2, r4
 80072c6:	4b13      	ldr	r3, [pc, #76]	; (8007314 <_vfiprintf_r+0x228>)
 80072c8:	a904      	add	r1, sp, #16
 80072ca:	4630      	mov	r0, r6
 80072cc:	f3af 8000 	nop.w
 80072d0:	f1b0 3fff 	cmp.w	r0, #4294967295
 80072d4:	4681      	mov	r9, r0
 80072d6:	d1d5      	bne.n	8007284 <_vfiprintf_r+0x198>
 80072d8:	89a3      	ldrh	r3, [r4, #12]
 80072da:	065b      	lsls	r3, r3, #25
 80072dc:	f53f af7e 	bmi.w	80071dc <_vfiprintf_r+0xf0>
 80072e0:	9809      	ldr	r0, [sp, #36]	; 0x24
 80072e2:	e77d      	b.n	80071e0 <_vfiprintf_r+0xf4>
 80072e4:	ab03      	add	r3, sp, #12
 80072e6:	9300      	str	r3, [sp, #0]
 80072e8:	4622      	mov	r2, r4
 80072ea:	4b0a      	ldr	r3, [pc, #40]	; (8007314 <_vfiprintf_r+0x228>)
 80072ec:	a904      	add	r1, sp, #16
 80072ee:	4630      	mov	r0, r6
 80072f0:	f000 f888 	bl	8007404 <_printf_i>
 80072f4:	e7ec      	b.n	80072d0 <_vfiprintf_r+0x1e4>
 80072f6:	bf00      	nop
 80072f8:	08007c08 	.word	0x08007c08
 80072fc:	08007c4c 	.word	0x08007c4c
 8007300:	08007c28 	.word	0x08007c28
 8007304:	08007be8 	.word	0x08007be8
 8007308:	08007c52 	.word	0x08007c52
 800730c:	08007c56 	.word	0x08007c56
 8007310:	00000000 	.word	0x00000000
 8007314:	080070c7 	.word	0x080070c7

08007318 <_printf_common>:
 8007318:	e92d 47f0 	stmdb	sp!, {r4, r5, r6, r7, r8, r9, sl, lr}
 800731c:	4691      	mov	r9, r2
 800731e:	461f      	mov	r7, r3
 8007320:	688a      	ldr	r2, [r1, #8]
 8007322:	690b      	ldr	r3, [r1, #16]
 8007324:	f8dd 8020 	ldr.w	r8, [sp, #32]
 8007328:	4293      	cmp	r3, r2
 800732a:	bfb8      	it	lt
 800732c:	4613      	movlt	r3, r2
 800732e:	f8c9 3000 	str.w	r3, [r9]
 8007332:	f891 2043 	ldrb.w	r2, [r1, #67]	; 0x43
 8007336:	4606      	mov	r6, r0
 8007338:	460c      	mov	r4, r1
 800733a:	b112      	cbz	r2, 8007342 <_printf_common+0x2a>
 800733c:	3301      	adds	r3, #1
 800733e:	f8c9 3000 	str.w	r3, [r9]
 8007342:	6823      	ldr	r3, [r4, #0]
 8007344:	0699      	lsls	r1, r3, #26
 8007346:	bf42      	ittt	mi
 8007348:	f8d9 3000 	ldrmi.w	r3, [r9]
 800734c:	3302      	addmi	r3, #2
 800734e:	f8c9 3000 	strmi.w	r3, [r9]
 8007352:	6825      	ldr	r5, [r4, #0]
 8007354:	f015 0506 	ands.w	r5, r5, #6
 8007358:	d107      	bne.n	800736a <_printf_common+0x52>
 800735a:	f104 0a19 	add.w	sl, r4, #25
 800735e:	68e3      	ldr	r3, [r4, #12]
 8007360:	f8d9 2000 	ldr.w	r2, [r9]
 8007364:	1a9b      	subs	r3, r3, r2
 8007366:	42ab      	cmp	r3, r5
 8007368:	dc28      	bgt.n	80073bc <_printf_common+0xa4>
 800736a:	f894 3043 	ldrb.w	r3, [r4, #67]	; 0x43
 800736e:	6822      	ldr	r2, [r4, #0]
 8007370:	3300      	adds	r3, #0
 8007372:	bf18      	it	ne
 8007374:	2301      	movne	r3, #1
 8007376:	0692      	lsls	r2, r2, #26
 8007378:	d42d      	bmi.n	80073d6 <_printf_common+0xbe>
 800737a:	f104 0243 	add.w	r2, r4, #67	; 0x43
 800737e:	4639      	mov	r1, r7
 8007380:	4630      	mov	r0, r6
 8007382:	47c0      	blx	r8
 8007384:	3001      	adds	r0, #1
 8007386:	d020      	beq.n	80073ca <_printf_common+0xb2>
 8007388:	6823      	ldr	r3, [r4, #0]
 800738a:	68e5      	ldr	r5, [r4, #12]
 800738c:	f8d9 2000 	ldr.w	r2, [r9]
 8007390:	f003 0306 	and.w	r3, r3, #6
 8007394:	2b04      	cmp	r3, #4
 8007396:	bf08      	it	eq
 8007398:	1aad      	subeq	r5, r5, r2
 800739a:	68a3      	ldr	r3, [r4, #8]
 800739c:	6922      	ldr	r2, [r4, #16]
 800739e:	bf0c      	ite	eq
 80073a0:	ea25 75e5 	biceq.w	r5, r5, r5, asr #31
 80073a4:	2500      	movne	r5, #0
 80073a6:	4293      	cmp	r3, r2
 80073a8:	bfc4      	itt	gt
 80073aa:	1a9b      	subgt	r3, r3, r2
 80073ac:	18ed      	addgt	r5, r5, r3
 80073ae:	f04f 0900 	mov.w	r9, #0
 80073b2:	341a      	adds	r4, #26
 80073b4:	454d      	cmp	r5, r9
 80073b6:	d11a      	bne.n	80073ee <_printf_common+0xd6>
 80073b8:	2000      	movs	r0, #0
 80073ba:	e008      	b.n	80073ce <_printf_common+0xb6>
 80073bc:	2301      	movs	r3, #1
 80073be:	4652      	mov	r2, sl
 80073c0:	4639      	mov	r1, r7
 80073c2:	4630      	mov	r0, r6
 80073c4:	47c0      	blx	r8
 80073c6:	3001      	adds	r0, #1
 80073c8:	d103      	bne.n	80073d2 <_printf_common+0xba>
 80073ca:	f04f 30ff 	mov.w	r0, #4294967295
 80073ce:	e8bd 87f0 	ldmia.w	sp!, {r4, r5, r6, r7, r8, r9, sl, pc}
 80073d2:	3501      	adds	r5, #1
 80073d4:	e7c3      	b.n	800735e <_printf_common+0x46>
 80073d6:	18e1      	adds	r1, r4, r3
 80073d8:	1c5a      	adds	r2, r3, #1
 80073da:	2030      	movs	r0, #48	; 0x30
 80073dc:	f881 0043 	strb.w	r0, [r1, #67]	; 0x43
 80073e0:	4422      	add	r2, r4
 80073e2:	f894 1045 	ldrb.w	r1, [r4, #69]	; 0x45
 80073e6:	f882 1043 	strb.w	r1, [r2, #67]	; 0x43
 80073ea:	3302      	adds	r3, #2
 80073ec:	e7c5      	b.n	800737a <_printf_common+0x62>
 80073ee:	2301      	movs	r3, #1
 80073f0:	4622      	mov	r2, r4
 80073f2:	4639      	mov	r1, r7
 80073f4:	4630      	mov	r0, r6
 80073f6:	47c0      	blx	r8
 80073f8:	3001      	adds	r0, #1
 80073fa:	d0e6      	beq.n	80073ca <_printf_common+0xb2>
 80073fc:	f109 0901 	add.w	r9, r9, #1
 8007400:	e7d8      	b.n	80073b4 <_printf_common+0x9c>
	...

08007404 <_printf_i>:
 8007404:	e92d 43f0 	stmdb	sp!, {r4, r5, r6, r7, r8, r9, lr}
 8007408:	f101 0c43 	add.w	ip, r1, #67	; 0x43
 800740c:	460c      	mov	r4, r1
 800740e:	7e09      	ldrb	r1, [r1, #24]
 8007410:	b085      	sub	sp, #20
 8007412:	296e      	cmp	r1, #110	; 0x6e
 8007414:	4617      	mov	r7, r2
 8007416:	4606      	mov	r6, r0
 8007418:	4698      	mov	r8, r3
 800741a:	9a0c      	ldr	r2, [sp, #48]	; 0x30
 800741c:	f000 80b3 	beq.w	8007586 <_printf_i+0x182>
 8007420:	d822      	bhi.n	8007468 <_printf_i+0x64>
 8007422:	2963      	cmp	r1, #99	; 0x63
 8007424:	d036      	beq.n	8007494 <_printf_i+0x90>
 8007426:	d80a      	bhi.n	800743e <_printf_i+0x3a>
 8007428:	2900      	cmp	r1, #0
 800742a:	f000 80b9 	beq.w	80075a0 <_printf_i+0x19c>
 800742e:	2958      	cmp	r1, #88	; 0x58
 8007430:	f000 8083 	beq.w	800753a <_printf_i+0x136>
 8007434:	f104 0542 	add.w	r5, r4, #66	; 0x42
 8007438:	f884 1042 	strb.w	r1, [r4, #66]	; 0x42
 800743c:	e032      	b.n	80074a4 <_printf_i+0xa0>
 800743e:	2964      	cmp	r1, #100	; 0x64
 8007440:	d001      	beq.n	8007446 <_printf_i+0x42>
 8007442:	2969      	cmp	r1, #105	; 0x69
 8007444:	d1f6      	bne.n	8007434 <_printf_i+0x30>
 8007446:	6820      	ldr	r0, [r4, #0]
 8007448:	6813      	ldr	r3, [r2, #0]
 800744a:	0605      	lsls	r5, r0, #24
 800744c:	f103 0104 	add.w	r1, r3, #4
 8007450:	d52a      	bpl.n	80074a8 <_printf_i+0xa4>
 8007452:	681b      	ldr	r3, [r3, #0]
 8007454:	6011      	str	r1, [r2, #0]
 8007456:	2b00      	cmp	r3, #0
 8007458:	da03      	bge.n	8007462 <_printf_i+0x5e>
 800745a:	222d      	movs	r2, #45	; 0x2d
 800745c:	425b      	negs	r3, r3
 800745e:	f884 2043 	strb.w	r2, [r4, #67]	; 0x43
 8007462:	486f      	ldr	r0, [pc, #444]	; (8007620 <_printf_i+0x21c>)
 8007464:	220a      	movs	r2, #10
 8007466:	e039      	b.n	80074dc <_printf_i+0xd8>
 8007468:	2973      	cmp	r1, #115	; 0x73
 800746a:	f000 809d 	beq.w	80075a8 <_printf_i+0x1a4>
 800746e:	d808      	bhi.n	8007482 <_printf_i+0x7e>
 8007470:	296f      	cmp	r1, #111	; 0x6f
 8007472:	d020      	beq.n	80074b6 <_printf_i+0xb2>
 8007474:	2970      	cmp	r1, #112	; 0x70
 8007476:	d1dd      	bne.n	8007434 <_printf_i+0x30>
 8007478:	6823      	ldr	r3, [r4, #0]
 800747a:	f043 0320 	orr.w	r3, r3, #32
 800747e:	6023      	str	r3, [r4, #0]
 8007480:	e003      	b.n	800748a <_printf_i+0x86>
 8007482:	2975      	cmp	r1, #117	; 0x75
 8007484:	d017      	beq.n	80074b6 <_printf_i+0xb2>
 8007486:	2978      	cmp	r1, #120	; 0x78
 8007488:	d1d4      	bne.n	8007434 <_printf_i+0x30>
 800748a:	2378      	movs	r3, #120	; 0x78
 800748c:	f884 3045 	strb.w	r3, [r4, #69]	; 0x45
 8007490:	4864      	ldr	r0, [pc, #400]	; (8007624 <_printf_i+0x220>)
 8007492:	e055      	b.n	8007540 <_printf_i+0x13c>
 8007494:	6813      	ldr	r3, [r2, #0]
 8007496:	1d19      	adds	r1, r3, #4
 8007498:	681b      	ldr	r3, [r3, #0]
 800749a:	6011      	str	r1, [r2, #0]
 800749c:	f104 0542 	add.w	r5, r4, #66	; 0x42
 80074a0:	f884 3042 	strb.w	r3, [r4, #66]	; 0x42
 80074a4:	2301      	movs	r3, #1
 80074a6:	e08c      	b.n	80075c2 <_printf_i+0x1be>
 80074a8:	681b      	ldr	r3, [r3, #0]
 80074aa:	6011      	str	r1, [r2, #0]
 80074ac:	f010 0f40 	tst.w	r0, #64	; 0x40
 80074b0:	bf18      	it	ne
 80074b2:	b21b      	sxthne	r3, r3
 80074b4:	e7cf      	b.n	8007456 <_printf_i+0x52>
 80074b6:	6813      	ldr	r3, [r2, #0]
 80074b8:	6825      	ldr	r5, [r4, #0]
 80074ba:	1d18      	adds	r0, r3, #4
 80074bc:	6010      	str	r0, [r2, #0]
 80074be:	0628      	lsls	r0, r5, #24
 80074c0:	d501      	bpl.n	80074c6 <_printf_i+0xc2>
 80074c2:	681b      	ldr	r3, [r3, #0]
 80074c4:	e002      	b.n	80074cc <_printf_i+0xc8>
 80074c6:	0668      	lsls	r0, r5, #25
 80074c8:	d5fb      	bpl.n	80074c2 <_printf_i+0xbe>
 80074ca:	881b      	ldrh	r3, [r3, #0]
 80074cc:	4854      	ldr	r0, [pc, #336]	; (8007620 <_printf_i+0x21c>)
 80074ce:	296f      	cmp	r1, #111	; 0x6f
 80074d0:	bf14      	ite	ne
 80074d2:	220a      	movne	r2, #10
 80074d4:	2208      	moveq	r2, #8
 80074d6:	2100      	movs	r1, #0
 80074d8:	f884 1043 	strb.w	r1, [r4, #67]	; 0x43
 80074dc:	6865      	ldr	r5, [r4, #4]
 80074de:	60a5      	str	r5, [r4, #8]
 80074e0:	2d00      	cmp	r5, #0
 80074e2:	f2c0 8095 	blt.w	8007610 <_printf_i+0x20c>
 80074e6:	6821      	ldr	r1, [r4, #0]
 80074e8:	f021 0104 	bic.w	r1, r1, #4
 80074ec:	6021      	str	r1, [r4, #0]
 80074ee:	2b00      	cmp	r3, #0
 80074f0:	d13d      	bne.n	800756e <_printf_i+0x16a>
 80074f2:	2d00      	cmp	r5, #0
 80074f4:	f040 808e 	bne.w	8007614 <_printf_i+0x210>
 80074f8:	4665      	mov	r5, ip
 80074fa:	2a08      	cmp	r2, #8
 80074fc:	d10b      	bne.n	8007516 <_printf_i+0x112>
 80074fe:	6823      	ldr	r3, [r4, #0]
 8007500:	07db      	lsls	r3, r3, #31
 8007502:	d508      	bpl.n	8007516 <_printf_i+0x112>
 8007504:	6923      	ldr	r3, [r4, #16]
 8007506:	6862      	ldr	r2, [r4, #4]
 8007508:	429a      	cmp	r2, r3
 800750a:	bfde      	ittt	le
 800750c:	2330      	movle	r3, #48	; 0x30
 800750e:	f805 3c01 	strble.w	r3, [r5, #-1]
 8007512:	f105 35ff 	addle.w	r5, r5, #4294967295
 8007516:	ebac 0305 	sub.w	r3, ip, r5
 800751a:	6123      	str	r3, [r4, #16]
 800751c:	f8cd 8000 	str.w	r8, [sp]
 8007520:	463b      	mov	r3, r7
 8007522:	aa03      	add	r2, sp, #12
 8007524:	4621      	mov	r1, r4
 8007526:	4630      	mov	r0, r6
 8007528:	f7ff fef6 	bl	8007318 <_printf_common>
 800752c:	3001      	adds	r0, #1
 800752e:	d14d      	bne.n	80075cc <_printf_i+0x1c8>
 8007530:	f04f 30ff 	mov.w	r0, #4294967295
 8007534:	b005      	add	sp, #20
 8007536:	e8bd 83f0 	ldmia.w	sp!, {r4, r5, r6, r7, r8, r9, pc}
 800753a:	4839      	ldr	r0, [pc, #228]	; (8007620 <_printf_i+0x21c>)
 800753c:	f884 1045 	strb.w	r1, [r4, #69]	; 0x45
 8007540:	6813      	ldr	r3, [r2, #0]
 8007542:	6821      	ldr	r1, [r4, #0]
 8007544:	1d1d      	adds	r5, r3, #4
 8007546:	681b      	ldr	r3, [r3, #0]
 8007548:	6015      	str	r5, [r2, #0]
 800754a:	060a      	lsls	r2, r1, #24
 800754c:	d50b      	bpl.n	8007566 <_printf_i+0x162>
 800754e:	07ca      	lsls	r2, r1, #31
 8007550:	bf44      	itt	mi
 8007552:	f041 0120 	orrmi.w	r1, r1, #32
 8007556:	6021      	strmi	r1, [r4, #0]
 8007558:	b91b      	cbnz	r3, 8007562 <_printf_i+0x15e>
 800755a:	6822      	ldr	r2, [r4, #0]
 800755c:	f022 0220 	bic.w	r2, r2, #32
 8007560:	6022      	str	r2, [r4, #0]
 8007562:	2210      	movs	r2, #16
 8007564:	e7b7      	b.n	80074d6 <_printf_i+0xd2>
 8007566:	064d      	lsls	r5, r1, #25
 8007568:	bf48      	it	mi
 800756a:	b29b      	uxthmi	r3, r3
 800756c:	e7ef      	b.n	800754e <_printf_i+0x14a>
 800756e:	4665      	mov	r5, ip
 8007570:	fbb3 f1f2 	udiv	r1, r3, r2
 8007574:	fb02 3311 	mls	r3, r2, r1, r3
 8007578:	5cc3      	ldrb	r3, [r0, r3]
 800757a:	f805 3d01 	strb.w	r3, [r5, #-1]!
 800757e:	460b      	mov	r3, r1
 8007580:	2900      	cmp	r1, #0
 8007582:	d1f5      	bne.n	8007570 <_printf_i+0x16c>
 8007584:	e7b9      	b.n	80074fa <_printf_i+0xf6>
 8007586:	6813      	ldr	r3, [r2, #0]
 8007588:	6825      	ldr	r5, [r4, #0]
 800758a:	6961      	ldr	r1, [r4, #20]
 800758c:	1d18      	adds	r0, r3, #4
 800758e:	6010      	str	r0, [r2, #0]
 8007590:	0628      	lsls	r0, r5, #24
 8007592:	681b      	ldr	r3, [r3, #0]
 8007594:	d501      	bpl.n	800759a <_printf_i+0x196>
 8007596:	6019      	str	r1, [r3, #0]
 8007598:	e002      	b.n	80075a0 <_printf_i+0x19c>
 800759a:	066a      	lsls	r2, r5, #25
 800759c:	d5fb      	bpl.n	8007596 <_printf_i+0x192>
 800759e:	8019      	strh	r1, [r3, #0]
 80075a0:	2300      	movs	r3, #0
 80075a2:	6123      	str	r3, [r4, #16]
 80075a4:	4665      	mov	r5, ip
 80075a6:	e7b9      	b.n	800751c <_printf_i+0x118>
 80075a8:	6813      	ldr	r3, [r2, #0]
 80075aa:	1d19      	adds	r1, r3, #4
 80075ac:	6011      	str	r1, [r2, #0]
 80075ae:	681d      	ldr	r5, [r3, #0]
 80075b0:	6862      	ldr	r2, [r4, #4]
 80075b2:	2100      	movs	r1, #0
 80075b4:	4628      	mov	r0, r5
 80075b6:	f7f8 fe13 	bl	80001e0 <memchr>
 80075ba:	b108      	cbz	r0, 80075c0 <_printf_i+0x1bc>
 80075bc:	1b40      	subs	r0, r0, r5
 80075be:	6060      	str	r0, [r4, #4]
 80075c0:	6863      	ldr	r3, [r4, #4]
 80075c2:	6123      	str	r3, [r4, #16]
 80075c4:	2300      	movs	r3, #0
 80075c6:	f884 3043 	strb.w	r3, [r4, #67]	; 0x43
 80075ca:	e7a7      	b.n	800751c <_printf_i+0x118>
 80075cc:	6923      	ldr	r3, [r4, #16]
 80075ce:	462a      	mov	r2, r5
 80075d0:	4639      	mov	r1, r7
 80075d2:	4630      	mov	r0, r6
 80075d4:	47c0      	blx	r8
 80075d6:	3001      	adds	r0, #1
 80075d8:	d0aa      	beq.n	8007530 <_printf_i+0x12c>
 80075da:	6823      	ldr	r3, [r4, #0]
 80075dc:	079b      	lsls	r3, r3, #30
 80075de:	d413      	bmi.n	8007608 <_printf_i+0x204>
 80075e0:	68e0      	ldr	r0, [r4, #12]
 80075e2:	9b03      	ldr	r3, [sp, #12]
 80075e4:	4298      	cmp	r0, r3
 80075e6:	bfb8      	it	lt
 80075e8:	4618      	movlt	r0, r3
 80075ea:	e7a3      	b.n	8007534 <_printf_i+0x130>
 80075ec:	2301      	movs	r3, #1
 80075ee:	464a      	mov	r2, r9
 80075f0:	4639      	mov	r1, r7
 80075f2:	4630      	mov	r0, r6
 80075f4:	47c0      	blx	r8
 80075f6:	3001      	adds	r0, #1
 80075f8:	d09a      	beq.n	8007530 <_printf_i+0x12c>
 80075fa:	3501      	adds	r5, #1
 80075fc:	68e3      	ldr	r3, [r4, #12]
 80075fe:	9a03      	ldr	r2, [sp, #12]
 8007600:	1a9b      	subs	r3, r3, r2
 8007602:	42ab      	cmp	r3, r5
 8007604:	dcf2      	bgt.n	80075ec <_printf_i+0x1e8>
 8007606:	e7eb      	b.n	80075e0 <_printf_i+0x1dc>
 8007608:	2500      	movs	r5, #0
 800760a:	f104 0919 	add.w	r9, r4, #25
 800760e:	e7f5      	b.n	80075fc <_printf_i+0x1f8>
 8007610:	2b00      	cmp	r3, #0
 8007612:	d1ac      	bne.n	800756e <_printf_i+0x16a>
 8007614:	7803      	ldrb	r3, [r0, #0]
 8007616:	f884 3042 	strb.w	r3, [r4, #66]	; 0x42
 800761a:	f104 0542 	add.w	r5, r4, #66	; 0x42
 800761e:	e76c      	b.n	80074fa <_printf_i+0xf6>
 8007620:	08007c5d 	.word	0x08007c5d
 8007624:	08007c6e 	.word	0x08007c6e

08007628 <iprintf>:
 8007628:	b40f      	push	{r0, r1, r2, r3}
 800762a:	4b0a      	ldr	r3, [pc, #40]	; (8007654 <iprintf+0x2c>)
 800762c:	b513      	push	{r0, r1, r4, lr}
 800762e:	681c      	ldr	r4, [r3, #0]
 8007630:	b124      	cbz	r4, 800763c <iprintf+0x14>
 8007632:	69a3      	ldr	r3, [r4, #24]
 8007634:	b913      	cbnz	r3, 800763c <iprintf+0x14>
 8007636:	4620      	mov	r0, r4
 8007638:	f7ff fb60 	bl	8006cfc <__sinit>
 800763c:	ab05      	add	r3, sp, #20
 800763e:	9a04      	ldr	r2, [sp, #16]
 8007640:	68a1      	ldr	r1, [r4, #8]
 8007642:	9301      	str	r3, [sp, #4]
 8007644:	4620      	mov	r0, r4
 8007646:	f7ff fd51 	bl	80070ec <_vfiprintf_r>
 800764a:	b002      	add	sp, #8
 800764c:	e8bd 4010 	ldmia.w	sp!, {r4, lr}
 8007650:	b004      	add	sp, #16
 8007652:	4770      	bx	lr
 8007654:	200002c8 	.word	0x200002c8

08007658 <_puts_r>:
 8007658:	b570      	push	{r4, r5, r6, lr}
 800765a:	460e      	mov	r6, r1
 800765c:	4605      	mov	r5, r0
 800765e:	b118      	cbz	r0, 8007668 <_puts_r+0x10>
 8007660:	6983      	ldr	r3, [r0, #24]
 8007662:	b90b      	cbnz	r3, 8007668 <_puts_r+0x10>
 8007664:	f7ff fb4a 	bl	8006cfc <__sinit>
 8007668:	69ab      	ldr	r3, [r5, #24]
 800766a:	68ac      	ldr	r4, [r5, #8]
 800766c:	b913      	cbnz	r3, 8007674 <_puts_r+0x1c>
 800766e:	4628      	mov	r0, r5
 8007670:	f7ff fb44 	bl	8006cfc <__sinit>
 8007674:	4b23      	ldr	r3, [pc, #140]	; (8007704 <_puts_r+0xac>)
 8007676:	429c      	cmp	r4, r3
 8007678:	d117      	bne.n	80076aa <_puts_r+0x52>
 800767a:	686c      	ldr	r4, [r5, #4]
 800767c:	89a3      	ldrh	r3, [r4, #12]
 800767e:	071b      	lsls	r3, r3, #28
 8007680:	d51d      	bpl.n	80076be <_puts_r+0x66>
 8007682:	6923      	ldr	r3, [r4, #16]
 8007684:	b1db      	cbz	r3, 80076be <_puts_r+0x66>
 8007686:	3e01      	subs	r6, #1
 8007688:	68a3      	ldr	r3, [r4, #8]
 800768a:	f816 1f01 	ldrb.w	r1, [r6, #1]!
 800768e:	3b01      	subs	r3, #1
 8007690:	60a3      	str	r3, [r4, #8]
 8007692:	b9e9      	cbnz	r1, 80076d0 <_puts_r+0x78>
 8007694:	2b00      	cmp	r3, #0
 8007696:	da2e      	bge.n	80076f6 <_puts_r+0x9e>
 8007698:	4622      	mov	r2, r4
 800769a:	210a      	movs	r1, #10
 800769c:	4628      	mov	r0, r5
 800769e:	f000 f89b 	bl	80077d8 <__swbuf_r>
 80076a2:	3001      	adds	r0, #1
 80076a4:	d011      	beq.n	80076ca <_puts_r+0x72>
 80076a6:	200a      	movs	r0, #10
 80076a8:	e011      	b.n	80076ce <_puts_r+0x76>
 80076aa:	4b17      	ldr	r3, [pc, #92]	; (8007708 <_puts_r+0xb0>)
 80076ac:	429c      	cmp	r4, r3
 80076ae:	d101      	bne.n	80076b4 <_puts_r+0x5c>
 80076b0:	68ac      	ldr	r4, [r5, #8]
 80076b2:	e7e3      	b.n	800767c <_puts_r+0x24>
 80076b4:	4b15      	ldr	r3, [pc, #84]	; (800770c <_puts_r+0xb4>)
 80076b6:	429c      	cmp	r4, r3
 80076b8:	bf08      	it	eq
 80076ba:	68ec      	ldreq	r4, [r5, #12]
 80076bc:	e7de      	b.n	800767c <_puts_r+0x24>
 80076be:	4621      	mov	r1, r4
 80076c0:	4628      	mov	r0, r5
 80076c2:	f000 f8ed 	bl	80078a0 <__swsetup_r>
 80076c6:	2800      	cmp	r0, #0
 80076c8:	d0dd      	beq.n	8007686 <_puts_r+0x2e>
 80076ca:	f04f 30ff 	mov.w	r0, #4294967295
 80076ce:	bd70      	pop	{r4, r5, r6, pc}
 80076d0:	2b00      	cmp	r3, #0
 80076d2:	da04      	bge.n	80076de <_puts_r+0x86>
 80076d4:	69a2      	ldr	r2, [r4, #24]
 80076d6:	429a      	cmp	r2, r3
 80076d8:	dc06      	bgt.n	80076e8 <_puts_r+0x90>
 80076da:	290a      	cmp	r1, #10
 80076dc:	d004      	beq.n	80076e8 <_puts_r+0x90>
 80076de:	6823      	ldr	r3, [r4, #0]
 80076e0:	1c5a      	adds	r2, r3, #1
 80076e2:	6022      	str	r2, [r4, #0]
 80076e4:	7019      	strb	r1, [r3, #0]
 80076e6:	e7cf      	b.n	8007688 <_puts_r+0x30>
 80076e8:	4622      	mov	r2, r4
 80076ea:	4628      	mov	r0, r5
 80076ec:	f000 f874 	bl	80077d8 <__swbuf_r>
 80076f0:	3001      	adds	r0, #1
 80076f2:	d1c9      	bne.n	8007688 <_puts_r+0x30>
 80076f4:	e7e9      	b.n	80076ca <_puts_r+0x72>
 80076f6:	6823      	ldr	r3, [r4, #0]
 80076f8:	200a      	movs	r0, #10
 80076fa:	1c5a      	adds	r2, r3, #1
 80076fc:	6022      	str	r2, [r4, #0]
 80076fe:	7018      	strb	r0, [r3, #0]
 8007700:	e7e5      	b.n	80076ce <_puts_r+0x76>
 8007702:	bf00      	nop
 8007704:	08007c08 	.word	0x08007c08
 8007708:	08007c28 	.word	0x08007c28
 800770c:	08007be8 	.word	0x08007be8

08007710 <puts>:
 8007710:	4b02      	ldr	r3, [pc, #8]	; (800771c <puts+0xc>)
 8007712:	4601      	mov	r1, r0
 8007714:	6818      	ldr	r0, [r3, #0]
 8007716:	f7ff bf9f 	b.w	8007658 <_puts_r>
 800771a:	bf00      	nop
 800771c:	200002c8 	.word	0x200002c8

08007720 <_sbrk_r>:
 8007720:	b538      	push	{r3, r4, r5, lr}
 8007722:	4c06      	ldr	r4, [pc, #24]	; (800773c <_sbrk_r+0x1c>)
 8007724:	2300      	movs	r3, #0
 8007726:	4605      	mov	r5, r0
 8007728:	4608      	mov	r0, r1
 800772a:	6023      	str	r3, [r4, #0]
 800772c:	f7fa fae2 	bl	8001cf4 <_sbrk>
 8007730:	1c43      	adds	r3, r0, #1
 8007732:	d102      	bne.n	800773a <_sbrk_r+0x1a>
 8007734:	6823      	ldr	r3, [r4, #0]
 8007736:	b103      	cbz	r3, 800773a <_sbrk_r+0x1a>
 8007738:	602b      	str	r3, [r5, #0]
 800773a:	bd38      	pop	{r3, r4, r5, pc}
 800773c:	20000c4c 	.word	0x20000c4c

08007740 <__sread>:
 8007740:	b510      	push	{r4, lr}
 8007742:	460c      	mov	r4, r1
 8007744:	f9b1 100e 	ldrsh.w	r1, [r1, #14]
 8007748:	f000 f95e 	bl	8007a08 <_read_r>
 800774c:	2800      	cmp	r0, #0
 800774e:	bfab      	itete	ge
 8007750:	6d63      	ldrge	r3, [r4, #84]	; 0x54
 8007752:	89a3      	ldrhlt	r3, [r4, #12]
 8007754:	181b      	addge	r3, r3, r0
 8007756:	f423 5380 	biclt.w	r3, r3, #4096	; 0x1000
 800775a:	bfac      	ite	ge
 800775c:	6563      	strge	r3, [r4, #84]	; 0x54
 800775e:	81a3      	strhlt	r3, [r4, #12]
 8007760:	bd10      	pop	{r4, pc}

08007762 <__swrite>:
 8007762:	e92d 41f0 	stmdb	sp!, {r4, r5, r6, r7, r8, lr}
 8007766:	461f      	mov	r7, r3
 8007768:	898b      	ldrh	r3, [r1, #12]
 800776a:	05db      	lsls	r3, r3, #23
 800776c:	4605      	mov	r5, r0
 800776e:	460c      	mov	r4, r1
 8007770:	4616      	mov	r6, r2
 8007772:	d505      	bpl.n	8007780 <__swrite+0x1e>
 8007774:	2302      	movs	r3, #2
 8007776:	2200      	movs	r2, #0
 8007778:	f9b1 100e 	ldrsh.w	r1, [r1, #14]
 800777c:	f000 f930 	bl	80079e0 <_lseek_r>
 8007780:	89a3      	ldrh	r3, [r4, #12]
 8007782:	f9b4 100e 	ldrsh.w	r1, [r4, #14]
 8007786:	f423 5380 	bic.w	r3, r3, #4096	; 0x1000
 800778a:	81a3      	strh	r3, [r4, #12]
 800778c:	4632      	mov	r2, r6
 800778e:	463b      	mov	r3, r7
 8007790:	4628      	mov	r0, r5
 8007792:	e8bd 41f0 	ldmia.w	sp!, {r4, r5, r6, r7, r8, lr}
 8007796:	f000 b871 	b.w	800787c <_write_r>

0800779a <__sseek>:
 800779a:	b510      	push	{r4, lr}
 800779c:	460c      	mov	r4, r1
 800779e:	f9b1 100e 	ldrsh.w	r1, [r1, #14]
 80077a2:	f000 f91d 	bl	80079e0 <_lseek_r>
 80077a6:	1c43      	adds	r3, r0, #1
 80077a8:	89a3      	ldrh	r3, [r4, #12]
 80077aa:	bf15      	itete	ne
 80077ac:	6560      	strne	r0, [r4, #84]	; 0x54
 80077ae:	f423 5380 	biceq.w	r3, r3, #4096	; 0x1000
 80077b2:	f443 5380 	orrne.w	r3, r3, #4096	; 0x1000
 80077b6:	81a3      	strheq	r3, [r4, #12]
 80077b8:	bf18      	it	ne
 80077ba:	81a3      	strhne	r3, [r4, #12]
 80077bc:	bd10      	pop	{r4, pc}

080077be <__sclose>:
 80077be:	f9b1 100e 	ldrsh.w	r1, [r1, #14]
 80077c2:	f000 b8db 	b.w	800797c <_close_r>

080077c6 <strcpy>:
 80077c6:	4603      	mov	r3, r0
 80077c8:	f811 2b01 	ldrb.w	r2, [r1], #1
 80077cc:	f803 2b01 	strb.w	r2, [r3], #1
 80077d0:	2a00      	cmp	r2, #0
 80077d2:	d1f9      	bne.n	80077c8 <strcpy+0x2>
 80077d4:	4770      	bx	lr
	...

080077d8 <__swbuf_r>:
 80077d8:	b5f8      	push	{r3, r4, r5, r6, r7, lr}
 80077da:	460e      	mov	r6, r1
 80077dc:	4614      	mov	r4, r2
 80077de:	4605      	mov	r5, r0
 80077e0:	b118      	cbz	r0, 80077ea <__swbuf_r+0x12>
 80077e2:	6983      	ldr	r3, [r0, #24]
 80077e4:	b90b      	cbnz	r3, 80077ea <__swbuf_r+0x12>
 80077e6:	f7ff fa89 	bl	8006cfc <__sinit>
 80077ea:	4b21      	ldr	r3, [pc, #132]	; (8007870 <__swbuf_r+0x98>)
 80077ec:	429c      	cmp	r4, r3
 80077ee:	d12a      	bne.n	8007846 <__swbuf_r+0x6e>
 80077f0:	686c      	ldr	r4, [r5, #4]
 80077f2:	69a3      	ldr	r3, [r4, #24]
 80077f4:	60a3      	str	r3, [r4, #8]
 80077f6:	89a3      	ldrh	r3, [r4, #12]
 80077f8:	071a      	lsls	r2, r3, #28
 80077fa:	d52e      	bpl.n	800785a <__swbuf_r+0x82>
 80077fc:	6923      	ldr	r3, [r4, #16]
 80077fe:	b363      	cbz	r3, 800785a <__swbuf_r+0x82>
 8007800:	6923      	ldr	r3, [r4, #16]
 8007802:	6820      	ldr	r0, [r4, #0]
 8007804:	1ac0      	subs	r0, r0, r3
 8007806:	6963      	ldr	r3, [r4, #20]
 8007808:	b2f6      	uxtb	r6, r6
 800780a:	4283      	cmp	r3, r0
 800780c:	4637      	mov	r7, r6
 800780e:	dc04      	bgt.n	800781a <__swbuf_r+0x42>
 8007810:	4621      	mov	r1, r4
 8007812:	4628      	mov	r0, r5
 8007814:	f7ff fa08 	bl	8006c28 <_fflush_r>
 8007818:	bb28      	cbnz	r0, 8007866 <__swbuf_r+0x8e>
 800781a:	68a3      	ldr	r3, [r4, #8]
 800781c:	3b01      	subs	r3, #1
 800781e:	60a3      	str	r3, [r4, #8]
 8007820:	6823      	ldr	r3, [r4, #0]
 8007822:	1c5a      	adds	r2, r3, #1
 8007824:	6022      	str	r2, [r4, #0]
 8007826:	701e      	strb	r6, [r3, #0]
 8007828:	6963      	ldr	r3, [r4, #20]
 800782a:	3001      	adds	r0, #1
 800782c:	4283      	cmp	r3, r0
 800782e:	d004      	beq.n	800783a <__swbuf_r+0x62>
 8007830:	89a3      	ldrh	r3, [r4, #12]
 8007832:	07db      	lsls	r3, r3, #31
 8007834:	d519      	bpl.n	800786a <__swbuf_r+0x92>
 8007836:	2e0a      	cmp	r6, #10
 8007838:	d117      	bne.n	800786a <__swbuf_r+0x92>
 800783a:	4621      	mov	r1, r4
 800783c:	4628      	mov	r0, r5
 800783e:	f7ff f9f3 	bl	8006c28 <_fflush_r>
 8007842:	b190      	cbz	r0, 800786a <__swbuf_r+0x92>
 8007844:	e00f      	b.n	8007866 <__swbuf_r+0x8e>
 8007846:	4b0b      	ldr	r3, [pc, #44]	; (8007874 <__swbuf_r+0x9c>)
 8007848:	429c      	cmp	r4, r3
 800784a:	d101      	bne.n	8007850 <__swbuf_r+0x78>
 800784c:	68ac      	ldr	r4, [r5, #8]
 800784e:	e7d0      	b.n	80077f2 <__swbuf_r+0x1a>
 8007850:	4b09      	ldr	r3, [pc, #36]	; (8007878 <__swbuf_r+0xa0>)
 8007852:	429c      	cmp	r4, r3
 8007854:	bf08      	it	eq
 8007856:	68ec      	ldreq	r4, [r5, #12]
 8007858:	e7cb      	b.n	80077f2 <__swbuf_r+0x1a>
 800785a:	4621      	mov	r1, r4
 800785c:	4628      	mov	r0, r5
 800785e:	f000 f81f 	bl	80078a0 <__swsetup_r>
 8007862:	2800      	cmp	r0, #0
 8007864:	d0cc      	beq.n	8007800 <__swbuf_r+0x28>
 8007866:	f04f 37ff 	mov.w	r7, #4294967295
 800786a:	4638      	mov	r0, r7
 800786c:	bdf8      	pop	{r3, r4, r5, r6, r7, pc}
 800786e:	bf00      	nop
 8007870:	08007c08 	.word	0x08007c08
 8007874:	08007c28 	.word	0x08007c28
 8007878:	08007be8 	.word	0x08007be8

0800787c <_write_r>:
 800787c:	b538      	push	{r3, r4, r5, lr}
 800787e:	4c07      	ldr	r4, [pc, #28]	; (800789c <_write_r+0x20>)
 8007880:	4605      	mov	r5, r0
 8007882:	4608      	mov	r0, r1
 8007884:	4611      	mov	r1, r2
 8007886:	2200      	movs	r2, #0
 8007888:	6022      	str	r2, [r4, #0]
 800788a:	461a      	mov	r2, r3
 800788c:	f7f8 ff50 	bl	8000730 <_write>
 8007890:	1c43      	adds	r3, r0, #1
 8007892:	d102      	bne.n	800789a <_write_r+0x1e>
 8007894:	6823      	ldr	r3, [r4, #0]
 8007896:	b103      	cbz	r3, 800789a <_write_r+0x1e>
 8007898:	602b      	str	r3, [r5, #0]
 800789a:	bd38      	pop	{r3, r4, r5, pc}
 800789c:	20000c4c 	.word	0x20000c4c

080078a0 <__swsetup_r>:
 80078a0:	4b32      	ldr	r3, [pc, #200]	; (800796c <__swsetup_r+0xcc>)
 80078a2:	b570      	push	{r4, r5, r6, lr}
 80078a4:	681d      	ldr	r5, [r3, #0]
 80078a6:	4606      	mov	r6, r0
 80078a8:	460c      	mov	r4, r1
 80078aa:	b125      	cbz	r5, 80078b6 <__swsetup_r+0x16>
 80078ac:	69ab      	ldr	r3, [r5, #24]
 80078ae:	b913      	cbnz	r3, 80078b6 <__swsetup_r+0x16>
 80078b0:	4628      	mov	r0, r5
 80078b2:	f7ff fa23 	bl	8006cfc <__sinit>
 80078b6:	4b2e      	ldr	r3, [pc, #184]	; (8007970 <__swsetup_r+0xd0>)
 80078b8:	429c      	cmp	r4, r3
 80078ba:	d10f      	bne.n	80078dc <__swsetup_r+0x3c>
 80078bc:	686c      	ldr	r4, [r5, #4]
 80078be:	f9b4 300c 	ldrsh.w	r3, [r4, #12]
 80078c2:	b29a      	uxth	r2, r3
 80078c4:	0715      	lsls	r5, r2, #28
 80078c6:	d42c      	bmi.n	8007922 <__swsetup_r+0x82>
 80078c8:	06d0      	lsls	r0, r2, #27
 80078ca:	d411      	bmi.n	80078f0 <__swsetup_r+0x50>
 80078cc:	2209      	movs	r2, #9
 80078ce:	6032      	str	r2, [r6, #0]
 80078d0:	f043 0340 	orr.w	r3, r3, #64	; 0x40
 80078d4:	81a3      	strh	r3, [r4, #12]
 80078d6:	f04f 30ff 	mov.w	r0, #4294967295
 80078da:	e03e      	b.n	800795a <__swsetup_r+0xba>
 80078dc:	4b25      	ldr	r3, [pc, #148]	; (8007974 <__swsetup_r+0xd4>)
 80078de:	429c      	cmp	r4, r3
 80078e0:	d101      	bne.n	80078e6 <__swsetup_r+0x46>
 80078e2:	68ac      	ldr	r4, [r5, #8]
 80078e4:	e7eb      	b.n	80078be <__swsetup_r+0x1e>
 80078e6:	4b24      	ldr	r3, [pc, #144]	; (8007978 <__swsetup_r+0xd8>)
 80078e8:	429c      	cmp	r4, r3
 80078ea:	bf08      	it	eq
 80078ec:	68ec      	ldreq	r4, [r5, #12]
 80078ee:	e7e6      	b.n	80078be <__swsetup_r+0x1e>
 80078f0:	0751      	lsls	r1, r2, #29
 80078f2:	d512      	bpl.n	800791a <__swsetup_r+0x7a>
 80078f4:	6b61      	ldr	r1, [r4, #52]	; 0x34
 80078f6:	b141      	cbz	r1, 800790a <__swsetup_r+0x6a>
 80078f8:	f104 0344 	add.w	r3, r4, #68	; 0x44
 80078fc:	4299      	cmp	r1, r3
 80078fe:	d002      	beq.n	8007906 <__swsetup_r+0x66>
 8007900:	4630      	mov	r0, r6
 8007902:	f7ff fb21 	bl	8006f48 <_free_r>
 8007906:	2300      	movs	r3, #0
 8007908:	6363      	str	r3, [r4, #52]	; 0x34
 800790a:	89a3      	ldrh	r3, [r4, #12]
 800790c:	f023 0324 	bic.w	r3, r3, #36	; 0x24
 8007910:	81a3      	strh	r3, [r4, #12]
 8007912:	2300      	movs	r3, #0
 8007914:	6063      	str	r3, [r4, #4]
 8007916:	6923      	ldr	r3, [r4, #16]
 8007918:	6023      	str	r3, [r4, #0]
 800791a:	89a3      	ldrh	r3, [r4, #12]
 800791c:	f043 0308 	orr.w	r3, r3, #8
 8007920:	81a3      	strh	r3, [r4, #12]
 8007922:	6923      	ldr	r3, [r4, #16]
 8007924:	b94b      	cbnz	r3, 800793a <__swsetup_r+0x9a>
 8007926:	89a3      	ldrh	r3, [r4, #12]
 8007928:	f403 7320 	and.w	r3, r3, #640	; 0x280
 800792c:	f5b3 7f00 	cmp.w	r3, #512	; 0x200
 8007930:	d003      	beq.n	800793a <__swsetup_r+0x9a>
 8007932:	4621      	mov	r1, r4
 8007934:	4630      	mov	r0, r6
 8007936:	f7ff fab3 	bl	8006ea0 <__smakebuf_r>
 800793a:	89a2      	ldrh	r2, [r4, #12]
 800793c:	f012 0301 	ands.w	r3, r2, #1
 8007940:	d00c      	beq.n	800795c <__swsetup_r+0xbc>
 8007942:	2300      	movs	r3, #0
 8007944:	60a3      	str	r3, [r4, #8]
 8007946:	6963      	ldr	r3, [r4, #20]
 8007948:	425b      	negs	r3, r3
 800794a:	61a3      	str	r3, [r4, #24]
 800794c:	6923      	ldr	r3, [r4, #16]
 800794e:	b953      	cbnz	r3, 8007966 <__swsetup_r+0xc6>
 8007950:	f9b4 300c 	ldrsh.w	r3, [r4, #12]
 8007954:	f013 0080 	ands.w	r0, r3, #128	; 0x80
 8007958:	d1ba      	bne.n	80078d0 <__swsetup_r+0x30>
 800795a:	bd70      	pop	{r4, r5, r6, pc}
 800795c:	0792      	lsls	r2, r2, #30
 800795e:	bf58      	it	pl
 8007960:	6963      	ldrpl	r3, [r4, #20]
 8007962:	60a3      	str	r3, [r4, #8]
 8007964:	e7f2      	b.n	800794c <__swsetup_r+0xac>
 8007966:	2000      	movs	r0, #0
 8007968:	e7f7      	b.n	800795a <__swsetup_r+0xba>
 800796a:	bf00      	nop
 800796c:	200002c8 	.word	0x200002c8
 8007970:	08007c08 	.word	0x08007c08
 8007974:	08007c28 	.word	0x08007c28
 8007978:	08007be8 	.word	0x08007be8

0800797c <_close_r>:
 800797c:	b538      	push	{r3, r4, r5, lr}
 800797e:	4c06      	ldr	r4, [pc, #24]	; (8007998 <_close_r+0x1c>)
 8007980:	2300      	movs	r3, #0
 8007982:	4605      	mov	r5, r0
 8007984:	4608      	mov	r0, r1
 8007986:	6023      	str	r3, [r4, #0]
 8007988:	f7fa f9a8 	bl	8001cdc <_close>
 800798c:	1c43      	adds	r3, r0, #1
 800798e:	d102      	bne.n	8007996 <_close_r+0x1a>
 8007990:	6823      	ldr	r3, [r4, #0]
 8007992:	b103      	cbz	r3, 8007996 <_close_r+0x1a>
 8007994:	602b      	str	r3, [r5, #0]
 8007996:	bd38      	pop	{r3, r4, r5, pc}
 8007998:	20000c4c 	.word	0x20000c4c

0800799c <_fstat_r>:
 800799c:	b538      	push	{r3, r4, r5, lr}
 800799e:	4c07      	ldr	r4, [pc, #28]	; (80079bc <_fstat_r+0x20>)
 80079a0:	2300      	movs	r3, #0
 80079a2:	4605      	mov	r5, r0
 80079a4:	4608      	mov	r0, r1
 80079a6:	4611      	mov	r1, r2
 80079a8:	6023      	str	r3, [r4, #0]
 80079aa:	f7fa f99a 	bl	8001ce2 <_fstat>
 80079ae:	1c43      	adds	r3, r0, #1
 80079b0:	d102      	bne.n	80079b8 <_fstat_r+0x1c>
 80079b2:	6823      	ldr	r3, [r4, #0]
 80079b4:	b103      	cbz	r3, 80079b8 <_fstat_r+0x1c>
 80079b6:	602b      	str	r3, [r5, #0]
 80079b8:	bd38      	pop	{r3, r4, r5, pc}
 80079ba:	bf00      	nop
 80079bc:	20000c4c 	.word	0x20000c4c

080079c0 <_isatty_r>:
 80079c0:	b538      	push	{r3, r4, r5, lr}
 80079c2:	4c06      	ldr	r4, [pc, #24]	; (80079dc <_isatty_r+0x1c>)
 80079c4:	2300      	movs	r3, #0
 80079c6:	4605      	mov	r5, r0
 80079c8:	4608      	mov	r0, r1
 80079ca:	6023      	str	r3, [r4, #0]
 80079cc:	f7fa f98e 	bl	8001cec <_isatty>
 80079d0:	1c43      	adds	r3, r0, #1
 80079d2:	d102      	bne.n	80079da <_isatty_r+0x1a>
 80079d4:	6823      	ldr	r3, [r4, #0]
 80079d6:	b103      	cbz	r3, 80079da <_isatty_r+0x1a>
 80079d8:	602b      	str	r3, [r5, #0]
 80079da:	bd38      	pop	{r3, r4, r5, pc}
 80079dc:	20000c4c 	.word	0x20000c4c

080079e0 <_lseek_r>:
 80079e0:	b538      	push	{r3, r4, r5, lr}
 80079e2:	4c07      	ldr	r4, [pc, #28]	; (8007a00 <_lseek_r+0x20>)
 80079e4:	4605      	mov	r5, r0
 80079e6:	4608      	mov	r0, r1
 80079e8:	4611      	mov	r1, r2
 80079ea:	2200      	movs	r2, #0
 80079ec:	6022      	str	r2, [r4, #0]
 80079ee:	461a      	mov	r2, r3
 80079f0:	f7fa f97e 	bl	8001cf0 <_lseek>
 80079f4:	1c43      	adds	r3, r0, #1
 80079f6:	d102      	bne.n	80079fe <_lseek_r+0x1e>
 80079f8:	6823      	ldr	r3, [r4, #0]
 80079fa:	b103      	cbz	r3, 80079fe <_lseek_r+0x1e>
 80079fc:	602b      	str	r3, [r5, #0]
 80079fe:	bd38      	pop	{r3, r4, r5, pc}
 8007a00:	20000c4c 	.word	0x20000c4c

08007a04 <__malloc_lock>:
 8007a04:	4770      	bx	lr

08007a06 <__malloc_unlock>:
 8007a06:	4770      	bx	lr

08007a08 <_read_r>:
 8007a08:	b538      	push	{r3, r4, r5, lr}
 8007a0a:	4c07      	ldr	r4, [pc, #28]	; (8007a28 <_read_r+0x20>)
 8007a0c:	4605      	mov	r5, r0
 8007a0e:	4608      	mov	r0, r1
 8007a10:	4611      	mov	r1, r2
 8007a12:	2200      	movs	r2, #0
 8007a14:	6022      	str	r2, [r4, #0]
 8007a16:	461a      	mov	r2, r3
 8007a18:	f7fa f952 	bl	8001cc0 <_read>
 8007a1c:	1c43      	adds	r3, r0, #1
 8007a1e:	d102      	bne.n	8007a26 <_read_r+0x1e>
 8007a20:	6823      	ldr	r3, [r4, #0]
 8007a22:	b103      	cbz	r3, 8007a26 <_read_r+0x1e>
 8007a24:	602b      	str	r3, [r5, #0]
 8007a26:	bd38      	pop	{r3, r4, r5, pc}
 8007a28:	20000c4c 	.word	0x20000c4c

08007a2c <_init>:
 8007a2c:	b5f8      	push	{r3, r4, r5, r6, r7, lr}
 8007a2e:	bf00      	nop
 8007a30:	bcf8      	pop	{r3, r4, r5, r6, r7}
 8007a32:	bc08      	pop	{r3}
 8007a34:	469e      	mov	lr, r3
 8007a36:	4770      	bx	lr

08007a38 <_fini>:
 8007a38:	b5f8      	push	{r3, r4, r5, r6, r7, lr}
 8007a3a:	bf00      	nop
 8007a3c:	bcf8      	pop	{r3, r4, r5, r6, r7}
 8007a3e:	bc08      	pop	{r3}
 8007a40:	469e      	mov	lr, r3
 8007a42:	4770      	bx	lr
